(lp0
S'"clopra-""yellow"""'
p1
aS'"germa-medica ""mg"""'
p2
aS'"hy-pam ""25"""'
p3
aS'"hydro-serp ""25"""'
p4
aS'"hydro-serp ""50"""'
p5
aS'8-hour bayer'
p6
aS'8-mop'
p7
aS'a-hydrocort'
p8
aS'a-methapred'
p9
aS'a-n stannous aggregated albumin'
p10
aS'a-poxide'
p11
aS'a.p.l.'
p12
aS'a/t/s'
p13
aS'abacavir sulfate'
p14
aS'abacavir sulfate, lamivudine and zidovudine'
p15
aS'abelcet'
p16
aS'abilify'
p17
aS'abilify maintena kit'
p18
aS'abitrexate'
p19
aS'ablavar'
p20
aS'abraxane'
p21
aS'abreva'
p22
aS'absorica'
p23
aS'abstral'
p24
aS'acamprosate calcium'
p25
aS'acanya'
p26
aS'acarbose'
p27
aS'accolate'
p28
aS'accretropin'
p29
aS'accuneb'
p30
aS'accupril'
p31
aS'accurbron'
p32
aS'accuretic'
p33
aS'accutane'
p34
aS'acebutolol hydrochloride'
p35
aS'aceon'
p36
aS'acephen'
p37
aS'acetadote'
p38
aS'acetaminophen'
p39
aS'acetaminophen and codeine phosphate'
p40
aS'acetaminophen and hydrocodone bitartrate'
p41
aS'acetaminophen and pentazocine hydrochloride'
p42
aS'acetaminophen, aspirin and caffeine'
p43
aS'acetaminophen, aspirin, and codeine phosphate'
p44
aS'acetaminophen, caffeine, and dihydrocodeine bitartrate'
p45
aS'acetasol'
p46
aS'acetasol hc'
p47
aS"acetated ringer's in plastic container"
p48
aS'acetazolamide'
p49
aS'acetazolamide sodium'
p50
aS'acetazolamide sodium '
p51
aS'acetic acid'
p52
aS'acetic acid 0.25% in plastic container'
p53
aS'acetic acid 2% in aqueous aluminum acetate'
p54
aS'acetic acid w/ hydrocortisone'
p55
aS'acetohexamide'
p56
aS'acetylcysteine'
p57
aS'aches-n-pain'
p58
aS'achromycin'
p59
aS'achromycin v'
p60
aS'acilac'
p61
aS'aciphex'
p62
aS'aciphex sprinkle'
p63
aS'acitretin'
p64
aS'aclovate'
p65
aS'acova'
p66
aS'actahist'
p67
aS'acth'
p68
aS'acthar'
p69
aS'acthar gel-synthetic'
p70
aS'acthrel'
p71
aS'acticlate'
p72
aS'acticort'
p73
aS'actidil'
p74
aS'actifed'
p75
aS'actifed w/ codeine'
p76
aS'actigall'
p77
aS'actin-n'
p78
aS'actinex'
p79
aS'actiq'
p80
aS'actisite'
p81
aS'activella'
p82
aS'actonel'
p83
aS'actonel with calcium (copackaged)'
p84
aS'actoplus met'
p85
aS'actoplus met xr'
p86
aS'actos'
p87
aS'actron'
p88
aS'acular'
p89
aS'acular ls'
p90
aS'acular preservative free'
p91
aS'acutect'
p92
aS'acuvail'
p93
aS'acyclovir'
p94
aS'acyclovir in sodium chloride 0.9% preservative free'
p95
aS'acyclovir sodium'
p96
aS'acylanid'
p97
aS'aczone'
p98
aS'adagen'
p99
aS'adalat'
p100
aS'adalat cc'
p101
aS'adapalene'
p102
aS'adasuve'
p103
aS'adcirca'
p104
aS'adderall 10'
p105
aS'adderall 12.5'
p106
aS'adderall 15'
p107
aS'adderall 20'
p108
aS'adderall 30'
p109
aS'adderall 5'
p110
aS'adderall 7.5'
p111
aS'adderall xr 10'
p112
aS'adderall xr 15'
p113
aS'adderall xr 20'
p114
aS'adderall xr 25'
p115
aS'adderall xr 30'
p116
aS'adderall xr 5'
p117
aS'adefovir dipivoxil'
p118
aS'adempas'
p119
aS'adenocard'
p120
aS'adenoscan'
p121
aS'adenosine'
p122
aS'adipex-p'
p123
aS'adphen'
p124
aS'adrenaclick'
p125
aS'adrenalin'
p126
aS'adreview'
p127
aS'adriamycin pfs'
p128
aS'adriamycin rdf'
p129
aS'adrucil'
p130
aS'advair diskus 100/50'
p131
aS'advair diskus 250/50'
p132
aS'advair diskus 500/50'
p133
aS'advair hfa'
p134
aS'advicor'
p135
aS'advil'
p136
aS'advil allergy and congestion relief'
p137
aS'advil allergy sinus'
p138
aS'advil cold and sinus'
p139
aS'advil congestion relief'
p140
aS'advil liqui-gels'
p141
aS'advil migraine liqui-gels'
p142
aS'advil pm'
p143
aS'aerobid'
p144
aS'aerolate'
p145
aS'aerolate iii'
p146
aS'aerolate jr'
p147
aS'aerolate sr'
p148
aS'aerolone'
p149
aS'aeroseb-dex'
p150
aS'aeroseb-hc'
p151
aS'aerospan hfa'
p152
aS'aerosporin'
p153
aS'afaxin'
p154
aS'afeditab cr'
p155
aS'afinitor'
p156
aS'afinitor disperz'
p157
aS'afrezza'
p158
aS'afrinol'
p159
aS'agenerase'
p160
aS'aggrastat'
p161
aS'aggrenox'
p162
aS'agrylin'
p163
aS'ak-fluor 10%'
p164
aS'ak-fluor 25%'
p165
aS'ak-pentolate'
p166
aS'akbeta'
p167
aS'akineton'
p168
aS'akne-mycin'
p169
aS'akpentolate'
p170
aS'akpro'
p171
aS'akrinol'
p172
aS'akten'
p173
aS'aktob'
p174
aS'akynzeo'
p175
aS'ala-cort'
p176
aS'ala-scalp'
p177
aS'alamast'
p178
aS'alavert'
p179
aS'alaway'
p180
aS'albalon'
p181
aS'albenza'
p182
aS'albuterol'
p183
aS'albuterol sulfate'
p184
aS'albuterol sulfate and ipratropium bromide'
p185
aS'alcaine'
p186
aS'alclometasone dipropionate'
p187
aS'alcohol 10% and dextrose 5%'
p188
aS'alcohol 5% and dextrose 5%'
p189
aS'alcohol 5% in d5-w'
p190
aS'alcohol 5% in dextrose 5%'
p191
aS'alcohol 5% in dextrose 5% in water'
p192
aS'aldactazide'
p193
aS'aldactone'
p194
aS'aldara'
p195
aS'aldoclor-150'
p196
aS'aldoclor-250'
p197
aS'aldomet'
p198
aS'aldoril 15'
p199
aS'aldoril 25'
p200
aS'aldoril d30'
p201
aS'aldoril d50'
p202
aS'alendronate sodium'
p203
aS'alesse'
p204
aS'aleve'
p205
aS'aleve pm'
p206
aS'aleve-d sinus & cold'
p207
aS'alfenta'
p208
aS'alfentanil'
p209
aS'alfuzosin hydrochloride'
p210
aS'alimta'
p211
aS'alinia'
p212
aS'alkeran'
p213
aS'alkergot'
p214
aS'allay'
p215
aS'allegra'
p216
aS'allegra allergy'
p217
aS'allegra hives'
p218
aS'allegra-d 12 hour allergy and congestion'
p219
aS'allegra-d 24 hour allergy and congestion'
p220
aS'allerfed'
p221
aS'allernaze'
p222
aS'alli'
p223
aS'allopurinol'
p224
aS'allopurinol sodium'
p225
aS'alocril'
p226
aS'alomide'
p227
aS'aloprim'
p228
aS'alora'
p229
aS'alosetron hydrochloride'
p230
aS'aloxi'
p231
aS'alpha chymar'
p232
aS'alphacaine'
p233
aS'alphacaine hydrochloride'
p234
aS'alphacaine hydrochloride w/ epinephrine'
p235
aS'alphaderm'
p236
aS'alphadrol'
p237
aS'alphagan'
p238
aS'alphagan p'
p239
aS'alphalin'
p240
aS'alpharedisol'
p241
aS'alphatrex'
p242
aS'alphazine'
p243
aS'alprazolam'
p244
aS'alprostadil'
p245
aS'alrex'
p246
aS'alsuma'
p247
aS'altabax'
p248
aS'altace'
p249
aS'altavera'
p250
aS'altoprev'
p251
aS'aluminum hydroxide and magnesium trisilicate'
p252
aS'alupent'
p253
aS'alvesco'
p254
aS'alyacen 1/35'
p255
aS'alyacen 7/7/7'
p256
aS'amantadine hydrochloride'
p257
aS'amaryl'
p258
aS'ambenyl'
p259
aS'ambien'
p260
aS'ambien cr'
p261
aS'ambisome'
p262
aS'ambodryl'
p263
aS'amcill'
p264
aS'amcinonide'
p265
aS'amen'
p266
aS'amerge'
p267
aS'amerscan mdp kit'
p268
aS'amicar'
p269
aS'amidate'
p270
aS'amifostine'
p271
aS'amikacin sulfate'
p272
aS'amikacin sulfate in sodium chloride 0.9% in plastic container'
p273
aS'amikin'
p274
aS'amikin in sodium chloride 0.9% in plastic container'
p275
aS'amiloride hydrochloride'
p276
aS'amiloride hydrochloride and hydrochlorothiazide'
p277
aS'aminess 5.2% essential amino acids w/ histadine'
p278
aS'amino acids'
p279
aS'aminoacetic acid 1.5% in plastic container'
p280
aS'aminocaproic'
p281
aS'aminocaproic acid'
p282
aS'aminocaproic acid in plastic container'
p283
aS'aminohippurate sodium'
p284
aS'aminophyllin'
p285
aS'aminophylline'
p286
aS'aminophylline dye free'
p287
aS'aminophylline in sodium chloride 0.45%'
p288
aS'aminophylline in sodium chloride 0.45% in plastic container'
p289
aS'aminosol 5%'
p290
aS'aminosyn 10%'
p291
aS'aminosyn 10% (ph6)'
p292
aS'aminosyn 3.5%'
p293
aS'aminosyn 3.5% in plastic container'
p294
aS'aminosyn 3.5% m'
p295
aS'aminosyn 3.5% m in plastic container'
p296
aS'aminosyn 3.5% w/ dextrose 25% in plastic container'
p297
aS'aminosyn 3.5% w/ dextrose 5% in plastic container'
p298
aS'aminosyn 4.25% w/ dextrose 25% in plastic container'
p299
aS'aminosyn 5%'
p300
aS'aminosyn 7%'
p301
aS'aminosyn 7% (ph6)'
p302
aS'aminosyn 7% w/ electrolytes'
p303
aS'aminosyn 8.5%'
p304
aS'aminosyn 8.5% (ph6)'
p305
aS'aminosyn 8.5% w/ electrolytes'
p306
aS'aminosyn ii 10%'
p307
aS'aminosyn ii 10% in plastic container'
p308
aS'aminosyn ii 10% w/ electrolytes'
p309
aS'aminosyn ii 15% in plastic container'
p310
aS'aminosyn ii 3.5%'
p311
aS'aminosyn ii 3.5% in dextrose 25% in plastic container'
p312
aS'aminosyn ii 3.5% in dextrose 5% in plastic container'
p313
aS'aminosyn ii 3.5% in plastic container'
p314
aS'aminosyn ii 3.5% m'
p315
aS'aminosyn ii 3.5% m in dextrose 5% in plastic container'
p316
aS'aminosyn ii 3.5% m in plastic container'
p317
aS'aminosyn ii 3.5% w/ electrolytes in dextrose 25% in plastic container'
p318
aS'aminosyn ii 3.5% w/ electrolytes in dextrose 25% w/ calcium in plastic container'
p319
aS'aminosyn ii 4.25% in dextrose 10% in plastic container'
p320
aS'aminosyn ii 4.25% in dextrose 20% in plastic container'
p321
aS'aminosyn ii 4.25% in dextrose 25% in plastic container'
p322
aS'aminosyn ii 4.25% m in dextrose 10% in plastic container'
p323
aS'aminosyn ii 4.25% w/ elect and adjusted phosphate in dextrose 10% in plastic container'
p324
aS'aminosyn ii 4.25% w/ electrolytes in dextrose 20% w/ calcium in plastic container'
p325
aS'aminosyn ii 4.25% w/ electrolytes in dextrose 25% in plastic container'
p326
aS'aminosyn ii 4.25% w/ electrolytes in dextrose 25% w/ calcium in plastic container'
p327
aS'aminosyn ii 5%'
p328
aS'aminosyn ii 5% in dextrose 25% in plastic container'
p329
aS'aminosyn ii 5% w/ electrolytes in dextrose 25% w/ calcium in plastic container'
p330
aS'aminosyn ii 7%'
p331
aS'aminosyn ii 7% w/ electrolytes'
p332
aS'aminosyn ii 8.5%'
p333
aS'aminosyn ii 8.5% w/ electrolytes'
p334
aS'aminosyn-hbc 7%'
p335
aS'aminosyn-hbc 7% in plastic container'
p336
aS'aminosyn-hf 8%'
p337
aS'aminosyn-pf 10%'
p338
aS'aminosyn-pf 7%'
p339
aS'aminosyn-rf 5.2%'
p340
aS'amiodarone hydrochloride'
p341
aS'amipaque'
p342
aS'amitid'
p343
aS'amitiza'
p344
aS'amitril'
p345
aS'amitriptyline hydrochloride'
p346
aS'amlexanox'
p347
aS'amlodipine besylate'
p348
aS'amlodipine besylate and atorvastatin calcium'
p349
aS'amlodipine besylate and benazepril hydrochloride'
p350
aS'amlodipine besylate and valsartan'
p351
aS'amlodipine,valsartan and hydrochlorothiazide'
p352
aS'ammonia n 13'
p353
aS'ammonium chloride'
p354
aS'ammonium chloride 0.9% in normal saline'
p355
aS'ammonium chloride 2.14%'
p356
aS'ammonium chloride in plastic container'
p357
aS'ammonium lactate'
p358
aS'ammonul'
p359
aS'amnesteem'
p360
aS'amnestrogen'
p361
aS'amosene'
p362
aS'amoxapine'
p363
aS'amoxicillin'
p364
aS'amoxicillin and clavulanate potassium'
p365
aS'amoxicillin pediatric'
p366
aS'amoxil'
p367
aS'amphadase'
p368
aS'amphetamine asp amphetamine sulf dextroamphet saccharate & dextr sulf'
p369
aS'amphetamine sulfate'
p370
aS'amphicol'
p371
aS'amphotec'
p372
aS'amphotericin b'
p373
aS'ampicillin and sulbactam'
p374
aS'ampicillin sodium'
p375
aS'ampicillin trihydrate'
p376
aS'ampyra'
p377
aS'amrinone lactate'
p378
aS'amrix'
p379
aS'amturnide'
p380
aS'amvaz'
p381
aS'amyvid'
p382
aS'an-dtpa'
p383
aS'an-maa'
p384
aS'an-sulfur colloid'
p385
aS'anadrol-50'
p386
aS'anafranil'
p387
aS'anagrelide hydrochloride'
p388
aS'anaprox'
p389
aS'anaprox ds'
p390
aS'anastrozole'
p391
aS'ancef'
p392
aS'ancef in dextrose 5% in plastic container'
p393
aS'ancef in plastic container'
p394
aS'ancef in sodium chloride 0.9% in plastic container'
p395
aS'ancobon'
p396
aS'androderm'
p397
aS'androgel'
p398
aS'android 10'
p399
aS'android 25'
p400
aS'android 5'
p401
aS'android-f'
p402
aS'anectine'
p403
aS'anestacon'
p404
aS'anexsia'
p405
aS'anexsia 5/325'
p406
aS'anexsia 7.5/325'
p407
aS'anexsia 7.5/650'
p408
aS'angeliq'
p409
aS'angio-conray'
p410
aS'angiomax'
p411
aS'angiovist 282'
p412
aS'angiovist 292'
p413
aS'angiovist 370'
p414
aS'anhydron'
p415
aS'anisotropine methylbromide'
p416
aS'anoquan'
p417
aS'anoro ellipta'
p418
aS'ansaid'
p419
aS'ansolysen'
p420
aS'anspor'
p421
aS'antabuse'
p422
aS'antagonate'
p423
aS'antara (micronized)'
p424
aS'antepar'
p425
aS'anthelios 20'
p426
aS'anthelios 40'
p427
aS'anthelios sx'
p428
aS'antitussive'
p429
aS'antivert'
p430
aS'antizol'
p431
aS'antrenyl'
p432
aS'anturane'
p433
aS'anusol hc'
p434
aS'anzemet'
p435
aS'aphthasol'
p436
aS'apidra'
p437
aS'apidra solostar'
p438
aS'aplenzin'
p439
aS'apogen'
p440
aS'apokyn'
p441
aS'apraclonidine hydrochloride'
p442
aS'aprepitant'
p443
aS'apresazide'
p444
aS'apresoline'
p445
aS'apresoline-esidrix'
p446
aS'apriso'
p447
aS'aptensio xr'
p448
aS'aptiom'
p449
aS'aptivus'
p450
aS'aquamephyton'
p451
aS'aquaphyllin'
p452
aS'aquasol a'
p453
aS'aquatag'
p454
aS'aquatensen'
p455
aS'aralen'
p456
aS'aralen hydrochloride'
p457
aS'aralen phosphate w/ primaquine phosphate'
p458
aS'aramine'
p459
aS'aranelle'
p460
aS'arava'
p461
aS'arcapta neohaler'
p462
aS'arduan'
p463
aS'aredia'
p464
aS'arestin'
p465
aS'arestocaine hydrochloride'
p466
aS'arestocaine hydrochloride w/ levonordefrin'
p467
aS'arfonad'
p468
aS'argatroban'
p469
aS'argatroban in 0.9% sodium chloride'
p470
aS'argatroban in dextrose'
p471
aS'argatroban in sodium chloride'
p472
aS'aricept'
p473
aS'aricept odt'
p474
aS'aridol kit'
p475
aS'arimidex'
p476
aS'aripiprazole'
p477
aS'aristocort'
p478
aS'aristocort a'
p479
aS'aristogel'
p480
aS'aristospan'
p481
aS'arixtra'
p482
aS'armodafinil'
p483
aS'arnuity ellipta'
p484
aS'aromasin'
p485
aS'arranon'
p486
aS'artane'
p487
aS'arthrotec'
p488
aS'articaine hydrochloride and epinephrine bitartrate'
p489
aS'asacol'
p490
aS'asacol hd'
p491
aS'asbron'
p492
aS'asclera'
p493
aS'asellacrin 10'
p494
aS'asellacrin 2'
p495
aS'asendin'
p496
aS'ashlyna'
p497
aS'asmanex hfa'
p498
aS'asmanex twisthaler'
p499
aS'aspirin'
p500
aS'aspirin and dipyridamole'
p501
aS'astagraf xl'
p502
aS'astelin'
p503
aS'astepro'
p504
aS'astramorph pf'
p505
aS'atacand'
p506
aS'atacand hct'
p507
aS'atarax'
p508
aS'atazanavir sulfate'
p509
aS'atelvia'
p510
aS'atenolol'
p511
aS'atenolol and chlorthalidone'
p512
aS'athrombin'
p513
aS'athrombin-k'
p514
aS'ativan'
p515
aS'atnaa'
p516
aS'atomoxetine hydrochloride'
p517
aS'atorvastatin calcium'
p518
aS'atovaquone'
p519
aS'atovaquone and proguanil hydrochloride'
p520
aS'atracurium besylate'
p521
aS'atracurium besylate preservative free'
p522
aS'atralin'
p523
aS'atridox'
p524
aS'atripla'
p525
aS'atromid-s'
p526
aS'atropen'
p527
aS'atropine'
p528
aS'atropine and demerol'
p529
aS'atropine sulfate'
p530
aS'atropine sulfate ansyr plastic syringe'
p531
aS'atrovent'
p532
aS'atrovent hfa'
p533
aS'aubagio'
p534
aS"augmentin '125'"
p535
aS"augmentin '200'"
p536
aS"augmentin '250'"
p537
aS"augmentin '400'"
p538
aS"augmentin '500'"
p539
aS"augmentin '875'"
p540
aS'augmentin es-600'
p541
aS'augmentin xr'
p542
aS'aureomycin'
p543
aS'auryxia'
p544
aS'auvi-q'
p545
aS'avagard'
p546
aS'avage'
p547
aS'avalide'
p548
aS'avandamet'
p549
aS'avandaryl'
p550
aS'avandia'
p551
aS'avapro'
p552
aS'avc'
p553
aS'aveed'
p554
aS'avelox'
p555
aS'avelox in sodium chloride 0.8% in plastic container'
p556
aS'aventyl '
p557
aS'aventyl hydrochloride'
p558
aS'aviane-21'
p559
aS'aviane-28'
p560
aS'avinza'
p561
aS'avita'
p562
aS'avodart'
p563
aS'avycaz'
p564
aS'axert'
p565
aS'axid'
p566
aS'axid ar'
p567
aS'axiron'
p568
aS'axotal'
p569
aS'aygestin'
p570
aS'azacitidine'
p571
aS'azactam'
p572
aS'azactam in plastic container'
p573
aS'azasan'
p574
aS'azasite'
p575
aS'azathioprine'
p576
aS'azathioprine sodium'
p577
aS'azdone'
p578
aS'azelastine hydrochloride'
p579
aS'azelex'
p580
aS'azilect'
p581
aS'azithromycin'
p582
aS'azlin'
p583
aS'azmacort'
p584
aS'azo gantanol'
p585
aS'azo gantrisin'
p586
aS'azolid'
p587
aS'azopt'
p588
aS'azor'
p589
aS'aztreonam'
p590
aS'azulfidine'
p591
aS'azulfidine en-tabs'
p592
aS'baci-rx'
p593
aS'baciguent'
p594
aS'baciim'
p595
aS'bacitracin'
p596
aS'bacitracin zinc and polymyxin b sulfate'
p597
aS'bacitracin zinc-neomycin sulfate-polymyxin b sulfate'
p598
aS'bacitracin zinc-polymyxin b sulfate'
p599
aS'bacitracin-neomycin-polymyxin'
p600
aS'bacitracin-neomycin-polymyxin w/ hydrocortisone acetate'
p601
aS'baclofen'
p602
aS'bacteriostatic sodium chloride 0.9% in plastic container'
p603
aS'bacteriostatic water for injection in plastic container'
p604
aS'bactocill'
p605
aS'bactocill in plastic container'
p606
aS'bactrim'
p607
aS'bactrim ds'
p608
aS'bactrim pediatric'
p609
aS'bactroban'
p610
aS'bal'
p611
aS'balanced salt'
p612
aS'balneol-hc'
p613
aS'balsalazide disodium'
p614
aS'balziva-21'
p615
aS'balziva-28'
p616
aS'bamate'
p617
aS'banan'
p618
aS'bancap'
p619
aS'bancap hc'
p620
aS'banthine'
p621
aS'banzel'
p622
aS'baraclude'
p623
aS'baros'
p624
aS'barstatin 100'
p625
aS'baycol'
p626
aS'bayer extra strength aspirin for migraine pain'
p627
aS'beclovent'
p628
aS'beconase'
p629
aS'beconase aq'
p630
aS'beepen-vk'
p631
aS'beldin'
p632
aS'beleodaq'
p633
aS'belix'
p634
aS'belsomra'
p635
aS'belviq'
p636
aS'benadryl'
p637
aS'benadryl preservative free'
p638
aS'benazepril hydrochloride'
p639
aS'benazepril hydrochloride and hydrochlorothiazide'
p640
aS'bendectin'
p641
aS'bendopa'
p642
aS'benemid'
p643
aS'benicar'
p644
aS'benicar hct'
p645
aS'benoquin'
p646
aS'benoxinate hydrochloride'
p647
aS'bensulfoid'
p648
aS'bentyl'
p649
aS'bentyl preservative free'
p650
aS'benylin'
p651
aS'benzaclin'
p652
aS'benzamycin'
p653
aS'benzamycin pak'
p654
aS'benzonatate'
p655
aS'benzphetamine hydrochloride'
p656
aS'benzthiazide'
p657
aS'benztropine mesylate'
p658
aS'benzyl benzoate'
p659
aS'bepadin'
p660
aS'bepreve'
p661
aS'berocca pn'
p662
aS'berubigen'
p663
aS'besivance'
p664
aS'beta-2'
p665
aS'beta-hc'
p666
aS'beta-val'
p667
aS'betaderm'
p668
aS'betadine'
p669
aS'betagan'
p670
aS'betalin 12'
p671
aS'betalin s'
p672
aS'betamethasone acetate and betamethasone sodium phosphate'
p673
aS'betamethasone dipropionate'
p674
aS'betamethasone sodium phosphate'
p675
aS'betamethasone valerate'
p676
aS'betapace'
p677
aS'betapace af'
p678
aS'betapar'
p679
aS'betapen-vk'
p680
aS'betaprone'
p681
aS'betatrex'
p682
aS'betaxolol hydrochloride'
p683
aS'betaxon'
p684
aS'bethanechol chloride'
p685
aS'bethkis'
p686
aS'betimol'
p687
aS'betoptic'
p688
aS'betoptic pilo'
p689
aS'betoptic s'
p690
aS'bexarotene'
p691
aS'bextra'
p692
aS'beyaz'
p693
aS'biaxin'
p694
aS'biaxin xl'
p695
aS'bicalutamide'
p696
aS'bicillin'
p697
aS'bicillin c-r'
p698
aS'bicillin c-r 900/300'
p699
aS'bicillin l-a'
p700
aS'bicnu'
p701
aS'bidil'
p702
aS'bilivist'
p703
aS'bilopaque'
p704
aS'biltricide'
p705
aS'bimatoprost'
p706
aS'binosto'
p707
aS'bio-tropin'
p708
aS'bioscrub'
p709
aS'biphetamine 12.5'
p710
aS'biphetamine 20'
p711
aS'biphetamine 7.5'
p712
aS'bisoprolol fumarate'
p713
aS'bisoprolol fumarate and hydrochlorothiazide'
p714
aS'blenoxane'
p715
aS'bleomycin sulfate'
p716
aS'bleph-10'
p717
aS'bleph-30'
p718
aS'blephamide'
p719
aS'blephamide s.o.p.'
p720
aS'blocadren'
p721
aS'bloxiverz'
p722
aS'boniva'
p723
aS'bontril'
p724
aS'bontril pdm'
p725
aS'borofair'
p726
aS'bosulif'
p727
aS'branchamin 4%'
p728
aS'branchamin 4% in plastic container'
p729
aS'bravelle'
p730
aS'breathtek ubt for h-pylori'
p731
aS'breo ellipta'
p732
aS'brethaire'
p733
aS'brethine'
p734
aS'bretylium tosylate'
p735
aS'bretylium tosylate in dextrose 5%'
p736
aS'bretylium tosylate in dextrose 5% in plastic container'
p737
aS'bretylol'
p738
aS'brevibloc'
p739
aS'brevibloc double strength in plastic container'
p740
aS'brevibloc in plastic container'
p741
aS'brevicon 21-day'
p742
aS'brevicon 28-day'
p743
aS'brevital sodium'
p744
aS'brian care'
p745
aS'bricanyl'
p746
aS'briellyn'
p747
aS'brilinta'
p748
aS'brimonidine tartrate'
p749
aS'brintellix'
p750
aS'brisdelle'
p751
aS'bristacycline'
p752
aS'bristagen'
p753
aS'bristamycin'
p754
aS'bromanate dm'
p755
aS'bromanyl'
p756
aS'bromday'
p757
aS'bromfed-dm'
p758
aS'bromfenac sodium'
p759
aS'bromocriptine mesylate'
p760
aS'bromodiphenhydramine hydrochloride and codeine phosphate'
p761
aS'brompheniramine maleate'
p762
aS'brompheniramine maleate, pseudoephedrine hydrochloride and dextromethorphan hydrobromide'
p763
aS'brompheril'
p764
aS'broncho saline'
p765
aS'bronitin mist'
p766
aS'bronkaid mist'
p767
aS'bronkodyl'
p768
aS'bronkometer'
p769
aS'bronkosol'
p770
aS'brovana'
p771
aS'bryrel'
p772
aS'bss'
p773
aS'bss plus'
p774
aS'bucet'
p775
aS'bucladin-s'
p776
aS'budesonide'
p777
aS'bumetanide'
p778
aS'bumex'
p779
aS'bunavail'
p780
aS'buphenyl'
p781
aS'bupivacaine hydrochloride'
p782
aS'bupivacaine hydrochloride and epinephrine'
p783
aS'bupivacaine hydrochloride kit'
p784
aS'bupivacaine hydrochloride preservative free'
p785
aS'bupivacaine hydrochloride w/epinephrine'
p786
aS'buprenex'
p787
aS'buprenorphine hydrochloride'
p788
aS'buprenorphine hydrochloride and naloxone hydrochloride'
p789
aS'buprenorphine hydrochloride and naloxone hydrochloride '
p790
aS'bupropion hydrochloride'
p791
aS'buspar'
p792
aS'buspirone hydrochloride'
p793
aS'busulfex'
p794
aS'butabarb'
p795
aS'butabarbital'
p796
aS'butabarbital sodium'
p797
aS'butalan'
p798
aS'butalbital and acetaminophen'
p799
aS'butalbital, acetaminophen and caffeine'
p800
aS'butalbital, acetaminophen, caffeine and codeine phosphate'
p801
aS'butalbital, aspirin and caffeine'
p802
aS'butalbital, aspirin, caffeine, and codeine phosphate'
p803
aS'butalibital, acetaminophen and caffeine'
p804
aS'butapap'
p805
aS'butazolidin'
p806
aS'buticaps'
p807
aS'butisol sodium'
p808
aS'butoconazole nitrate'
p809
aS'butorphanol tartrate'
p810
aS'butorphanol tartrate preservative free'
p811
aS'butrans'
p812
aS'bydureon'
p813
aS'byetta'
p814
aS'bystolic'
p815
aS'c-solve-2'
p816
aS'cabergoline'
p817
aS'caduet'
p818
aS'cafcit'
p819
aS'cafergot'
p820
aS'caffeine citrate'
p821
aS'calan'
p822
aS'calan sr'
p823
aS'calcibind'
p824
aS'calcijex'
p825
aS'calcimar'
p826
aS'calciparine'
p827
aS'calcipotriene'
p828
aS'calcipotriene and betamethasone dipropionate'
p829
aS'calcitonin-salmon'
p830
aS'calcitriol'
p831
aS'calcium acetate'
p832
aS'calcium carbonate, famotidine and magnesium hydroxide'
p833
aS'calcium chloride 10% in plastic container'
p834
aS'calcium disodium versenate'
p835
aS'calcium gluceptate'
p836
aS'calderol'
p837
aS'caldolor'
p838
aS'calmurid hc'
p839
aS'calomist'
p840
aS'cam-ap-es'
p841
aS'cam-metrazine'
p842
aS'cambia'
p843
aS'camila'
p844
aS'camoquin hydrochloride'
p845
aS'campral'
p846
aS'camptosar'
p847
aS'canasa'
p848
aS'cancidas'
p849
aS'candesartan cilexetil'
p850
aS'candesartan cilexetil and hydrochlorothiazide'
p851
aS'candex'
p852
aS'cantil'
p853
aS'cap-profen'
p854
aS'capastat sulfate'
p855
aS'capecitabine'
p856
aS'capex'
p857
aS'capital and codeine'
p858
aS'capital soleil 15'
p859
aS'capitrol'
p860
aS'capoten'
p861
aS'capozide 25/15'
p862
aS'capozide 25/25'
p863
aS'capozide 50/15'
p864
aS'capozide 50/25'
p865
aS'caprelsa'
p866
aS'captopril'
p867
aS'captopril and hydrochlorothiazide'
p868
aS'carac'
p869
aS'carafate'
p870
aS'carbachol'
p871
aS'carbaglu'
p872
aS'carbamazepine'
p873
aS'carbastat'
p874
aS'carbatrol'
p875
aS'carbidopa'
p876
aS'carbidopa and levodopa'
p877
aS'carbidopa, levodopa and entacapone'
p878
aS'carbilev'
p879
aS'carbinoxamine maleate'
p880
aS'carbocaine'
p881
aS'carbocaine w/ neo-cobefrin'
p882
aS'carboplatin'
p883
aS'cardene'
p884
aS'cardene in 0.83% sodium chloride in plastic container'
p885
aS'cardene in 0.86% sodium chloride in plastic container'
p886
aS'cardene in 4.8% dextrose in plastic container'
p887
aS'cardene in 5.0% dextrose in plastic container'
p888
aS'cardene sr'
p889
aS'cardiogen-82'
p890
aS'cardiografin'
p891
aS'cardiolite'
p892
aS'cardioplegic in plastic container'
p893
aS'cardioquin'
p894
aS'cardiotec'
p895
aS'cardizem'
p896
aS'cardizem cd'
p897
aS'cardizem la'
p898
aS'cardizem sr'
p899
aS'cardrase'
p900
aS'cardura'
p901
aS'cardura xl'
p902
aS'carisoprodol'
p903
aS'carisoprodol and aspirin'
p904
aS'carisoprodol compound'
p905
aS'carisoprodol, aspirin and codeine phosphate'
p906
aS'carmol hc'
p907
aS'carnitor'
p908
aS'carnitor sf'
p909
aS'carteolol hydrochloride'
p910
aS'cartia xt'
p911
aS'cartrol'
p912
aS'carvedilol'
p913
aS'casodex'
p914
aS'cataflam'
p915
aS'catapres'
p916
aS'catapres-tts-1'
p917
aS'catapres-tts-2'
p918
aS'catapres-tts-3'
p919
aS'catarase'
p920
aS'caverject'
p921
aS'caverject impulse'
p922
aS'cayston'
p923
aS'ceclor'
p924
aS'ceclor cd'
p925
aS'cedax'
p926
aS'cedilanid-d'
p927
aS'cefaclor'
p928
aS'cefadroxil'
p929
aS'cefadyl'
p930
aS'cefazolin and dextrose'
p931
aS'cefazolin sodium'
p932
aS'cefdinir'
p933
aS'cefepime and dextrose in duplex container'
p934
aS'cefepime hydrochloride'
p935
aS'cefepime in plastic container'
p936
aS'cefixime'
p937
aS'cefizox'
p938
aS'cefizox in dextrose 5% in plastic container'
p939
aS'cefizox in plastic container'
p940
aS'cefmax'
p941
aS'cefobid'
p942
aS'cefobid in plastic container'
p943
aS'cefotan'
p944
aS'cefotan in plastic container'
p945
aS'cefotaxime'
p946
aS'cefotaxime and dextrose 2.4% in plastic container'
p947
aS'cefotaxime and dextrose 3.9% in plastic container'
p948
aS'cefotaxime sodium'
p949
aS'cefotetan'
p950
aS'cefotetan and dextrose in duplex container'
p951
aS'cefoxitin'
p952
aS'cefoxitin and dextrose in duplex container'
p953
aS'cefpiramide sodium'
p954
aS'cefpodoxime proxetil'
p955
aS'cefprozil'
p956
aS'ceftazidime'
p957
aS'ceftazidime in dextrose container'
p958
aS'ceftazidime sodium in plastic container'
p959
aS'ceftin'
p960
aS'ceftriaxone'
p961
aS'ceftriaxone and dextrose in duplex container'
p962
aS'ceftriaxone in plastic container'
p963
aS'cefuroxime and dextrose in duplex container'
p964
aS'cefuroxime axetil'
p965
aS'cefuroxime sodium'
p966
aS'cefuroxime sodium in plastic container'
p967
aS'cefzil'
p968
aS'celebrex'
p969
aS'celecoxib'
p970
aS'celestone'
p971
aS'celestone soluspan'
p972
aS'celexa'
p973
aS'cellcept'
p974
aS'celontin'
p975
aS'cenestin'
p976
aS'centany'
p977
aS'centrax'
p978
aS'cephalexin'
p979
aS'cephalothin'
p980
aS'cephalothin sodium'
p981
aS'cephalothin sodium w/ dextrose in plastic container'
p982
aS'cephalothin sodium w/ sodium chloride in plastic container'
p983
aS'cephapirin sodium'
p984
aS'cephradine'
p985
aS'cephulac'
p986
aS'ceptaz'
p987
aS'ceradon'
p988
aS'cerdelga'
p989
aS'cerebyx'
p990
aS'ceredase'
p991
aS'ceretec'
p992
aS'cerezyme'
p993
aS'cerubidine'
p994
aS'cerumenex'
p995
aS'cervidil'
p996
aS'cesamet'
p997
aS'cetacort'
p998
aS'cetamide'
p999
aS'cetapred'
p1000
aS'cetirizine hydrochloride'
p1001
aS'cetirizine hydrochloride allergy'
p1002
aS'cetirizine hydrochloride and pseudoephedrine hydrochloride'
p1003
aS'cetirizine hydrochloride hives'
p1004
aS'cetirizine hydrochloride hives relief'
p1005
aS'cetraxal'
p1006
aS'cetrotide'
p1007
aS'cevimeline'
p1008
aS'cevimeline hydrochloride'
p1009
aS'chantix'
p1010
aS'chemet'
p1011
aS'chenix'
p1012
aS'chenodiol'
p1013
aS'chg scrub'
p1014
aS'chibroxin'
p1015
aS"children's advil"
p1016
aS"children's advil allergy sinus"
p1017
aS"children's advil cold"
p1018
aS"children's advil-flavored"
p1019
aS"children's allegra allergy"
p1020
aS"children's allegra hives"
p1021
aS"children's cetirizine hydrochloride allergy"
p1022
aS"children's cetirizine hydrochloride hives relief"
p1023
aS"children's claritin"
p1024
aS"children's elixsure"
p1025
aS"children's fexofenadine hydrochloride allergy"
p1026
aS"children's fexofenadine hydrochloride hives"
p1027
aS"children's ibuprofen"
p1028
aS"children's motrin"
p1029
aS"children's motrin cold"
p1030
aS"children's zyrtec allergy"
p1031
aS"children's zyrtec hives relief"
p1032
aS'chirhostim'
p1033
aS'chirocaine'
p1034
aS'chlor-trimeton'
p1035
aS'chloramphenicol'
p1036
aS'chloramphenicol sodium succinate'
p1037
aS'chloraprep one-step'
p1038
aS'chloraprep one-step frepp'
p1039
aS'chloraprep one-step sepp'
p1040
aS'chloraprep single swabstick'
p1041
aS'chloraprep triple swabstick'
p1042
aS'chloraprep with tint'
p1043
aS'chlordiazachel'
p1044
aS'chlordiazepoxide and amitriptyline hydrochloride'
p1045
aS'chlordiazepoxide hydrochloride'
p1046
aS'chlorhexidine gluconate'
p1047
aS'chlormerodrin hg 197'
p1048
aS'chlorofair'
p1049
aS'chloromycetin'
p1050
aS'chloromycetin hydrocortisone'
p1051
aS'chloromycetin palmitate'
p1052
aS'chloromyxin'
p1053
aS'chloroprocaine hydrochloride'
p1054
aS'chloroptic'
p1055
aS'chloroptic s.o.p.'
p1056
aS'chloroptic-p s.o.p.'
p1057
aS'chloroquine phosphate'
p1058
aS'chlorothiazide'
p1059
aS'chlorothiazide and reserpine'
p1060
aS'chlorothiazide sodium'
p1061
aS'chlorothiazide w/ reserpine'
p1062
aS'chlorothiazide-reserpine'
p1063
aS'chlorotrianisene'
p1064
aS'chlorpheniramine maleate'
p1065
aS'chlorpromazine hydrochloride'
p1066
aS'chlorpromazine hydrochloride intensol'
p1067
aS'chlorpropamide'
p1068
aS'chlorthalidone'
p1069
aS'chlorzoxazone'
p1070
aS'cholac'
p1071
aS'cholbam'
p1072
aS'cholebrine'
p1073
aS'choledyl'
p1074
aS'choledyl sa'
p1075
aS'cholestyramine'
p1076
aS'cholestyramine light'
p1077
aS'choletec'
p1078
aS'choline c-11'
p1079
aS'cholografin meglumine'
p1080
aS'cholografin sodium'
p1081
aS'cholovue'
p1082
aS'choloxin'
p1083
aS'cholybar'
p1084
aS'chorionic gonadotropin'
p1085
aS'chromalbin'
p1086
aS'chromic chloride'
p1087
aS'chromic chloride in plastic container'
p1088
aS'chromitope sodium'
p1089
aS'chronulac'
p1090
aS'chymex'
p1091
aS'chymodiactin'
p1092
aS'cialis'
p1093
aS'cibacalcin'
p1094
aS'ciclopirox'
p1095
aS'cida-stat'
p1096
aS'cidofovir'
p1097
aS'cilostazol'
p1098
aS'ciloxan'
p1099
aS'cimetidine'
p1100
aS'cimetidine hydrochloride'
p1101
aS'cimetidine hydrochloride in sodium chloride 0.9% in plastic container'
p1102
aS'cin-quin'
p1103
aS'cinnasil'
p1104
aS'cinobac'
p1105
aS'cinoxacin'
p1106
aS'cintichem technetium 99m hedspa'
p1107
aS'cipro'
p1108
aS'cipro hc'
p1109
aS'cipro in dextrose 5% in plastic container'
p1110
aS'cipro in sodium chloride 0.9% in plastic container'
p1111
aS'cipro xr'
p1112
aS'ciprodex'
p1113
aS'ciprofloxacin'
p1114
aS'ciprofloxacin extended release'
p1115
aS'ciprofloxacin hydrochloride'
p1116
aS'ciprofloxacin in dextrose 5%'
p1117
aS'ciprofloxacin in dextrose 5% in plastic container'
p1118
aS'circanol'
p1119
aS'cis-mdp'
p1120
aS'cis-pyro'
p1121
aS'cisatracurium besylate'
p1122
aS'cisatracurium besylate preservative free'
p1123
aS'cisplatin'
p1124
aS'citalopram hydrobromide'
p1125
aS'citanest'
p1126
aS'citanest forte'
p1127
aS'citanest forte dental'
p1128
aS'citanest plain'
p1129
aS'citanest plain dental'
p1130
aS'cladribine'
p1131
aS'claforan'
p1132
aS'claforan in dextrose 5% in plastic container'
p1133
aS'claforan in sodium chloride 0.9% in plastic container'
p1134
aS'claravis'
p1135
aS'clarinex'
p1136
aS'clarinex d 24 hour'
p1137
aS'clarinex-d 12 hour'
p1138
aS'clarithromycin'
p1139
aS'claritin'
p1140
aS'claritin hives relief'
p1141
aS'claritin hives relief reditab'
p1142
aS'claritin reditabs'
p1143
aS'claritin-d'
p1144
aS'claritin-d 24 hour'
p1145
aS'clemastine fumarate'
p1146
aS'clenz-lyte'
p1147
aS'cleocin'
p1148
aS'cleocin hydrochloride'
p1149
aS'cleocin phosphate'
p1150
aS'cleocin phosphate in dextrose 5% in plastic container'
p1151
aS'cleocin t'
p1152
aS'cleviprex'
p1153
aS'climara'
p1154
aS'climara pro'
p1155
aS'clinda-derm'
p1156
aS'clindagel'
p1157
aS'clindamycin hydrochloride'
p1158
aS'clindamycin palmitate hydrochloride'
p1159
aS'clindamycin phosphate'
p1160
aS'clindamycin phosphate and benzoyl peroxide'
p1161
aS'clindamycin phosphate in 5% dextrose in plastic container'
p1162
aS'clindamycin phosphate in dextrose 5%'
p1163
aS'clindamycin phosphate in dextrose 5% in plastic container'
p1164
aS'clindesse'
p1165
aS'clindets'
p1166
aS'clinimix 2.75/10 sulfite free in dextrose 10% in plastic container'
p1167
aS'clinimix 2.75/25 sulfite free in dextrose 25% in plastic container'
p1168
aS'clinimix 2.75/5 sulfite free in dextrose 5% in plastic container'
p1169
aS'clinimix 4.25/10 sulfite free in dextrose 10% in plastic container'
p1170
aS'clinimix 4.25/20 sulfite free in dextrose 20% in plastic container'
p1171
aS'clinimix 4.25/25 sulfite free in dextrose 25% in plastic container'
p1172
aS'clinimix 4.25/5 sulfite free in dextrose 5% in plastic container'
p1173
aS'clinimix 5/10 sulfite free in dextrose 10% in plastic container'
p1174
aS'clinimix 5/15 sulfite free in dextrose 15% in plastic container'
p1175
aS'clinimix 5/20 sulfite free in dextrose 20% in plastic container'
p1176
aS'clinimix 5/25 sulfite free in dextrose 25% in plastic container'
p1177
aS'clinimix 5/35 sulfite free in dextrose 35% in plastic container'
p1178
aS'clinimix e 2.75/10 sulfite-free w/ elect in dextrose 10% w/ calcium in plastic container'
p1179
aS'clinimix e 2.75/25 sulfite-free w/ elect in dextrose 25% w/ calcium in plastic container'
p1180
aS'clinimix e 2.75/5 sulfite-free w/ elect in dextrose 5% w/ calcium in plastic container'
p1181
aS'clinimix e 4.25/10 sulfite-free w/ elect in dextrose 10% w/ calcium in plastic container'
p1182
aS'clinimix e 4.25/20 sulfite-free w/ elect in dextrose 20% w/ calcium in plastic container'
p1183
aS'clinimix e 4.25/25 sulfite-free w/ elect in dextrose 25% w/ calcium in plastic container'
p1184
aS'clinimix e 4.25/5 sulfite-free w/ elect in dextrose 5% w/ calcium in plastic container'
p1185
aS'clinimix e 5/10 sulfite-free w/ elect in dextrose 10% w/ calcium in plastic container'
p1186
aS'clinimix e 5/15 sulfite-free w/ elect in dextrose 15% w/ calcium in plastic container'
p1187
aS'clinimix e 5/20 sulfite-free w/ elect in 20% dextrose w/ calcium in plastic container'
p1188
aS'clinimix e 5/25 sulfite-free w/ elect in dextrose 25% w/ calcium in plastic container'
p1189
aS'clinimix e 5/35 sulfite-free w/ elect in dextrose 35% w/ calcium in plastic container'
p1190
aS'clinisol 15% sulfite free in plastic container'
p1191
aS'clinolipid 20%'
p1192
aS'clinoril'
p1193
aS'clistin'
p1194
aS'clobetasol propionate'
p1195
aS'clobetasol propionate (emollient)'
p1196
aS'clobex'
p1197
aS'cloderm'
p1198
aS'clofibrate'
p1199
aS'clolar'
p1200
aS'clomid'
p1201
aS'clomiphene citrate'
p1202
aS'clomipramine hydrochloride'
p1203
aS'clonazepam'
p1204
aS'clonidine'
p1205
aS'clonidine hydrochloride'
p1206
aS'clonidine hydrochloride '
p1207
aS'clonidine hydrochloride and chlorthalidone'
p1208
aS'clopidogrel'
p1209
aS'clopidogrel bisulfate'
p1210
aS'clopra'
p1211
aS'clorazepate dipotassium'
p1212
aS'clorpres'
p1213
aS'clotrimazole'
p1214
aS'clotrimazole and betamethasone dipropionate'
p1215
aS'cloxacillin sodium'
p1216
aS'cloxapen'
p1217
aS'clozapine'
p1218
aS'clozaril'
p1219
aS'co-gesic'
p1220
aS'co-lav'
p1221
aS'coactin'
p1222
aS'coartem'
p1223
aS'cobavite'
p1224
aS'codamine'
p1225
aS'codeine sulfate'
p1226
aS'codeine, aspirin, apap formula no. 2'
p1227
aS'codeine, aspirin, apap formula no. 3'
p1228
aS'codeine, aspirin, apap formula no. 4'
p1229
aS'codeprex'
p1230
aS'codimal-l.a. 12'
p1231
aS'codoxy'
p1232
aS'codrix'
p1233
aS'cogentin'
p1234
aS'cognex'
p1235
aS'col-probenecid'
p1236
aS'colazal'
p1237
aS'colbenemid'
p1238
aS'colcrys'
p1239
aS'cold capsule iv'
p1240
aS'cold capsule v'
p1241
aS'colestid'
p1242
aS'colestipol hydrochloride'
p1243
aS'colgate total'
p1244
aS'colistimethate sodium'
p1245
aS'colocort'
p1246
aS'colonaid'
p1247
aS'colovage'
p1248
aS'coly-mycin m'
p1249
aS'coly-mycin s'
p1250
aS'colyte'
p1251
aS'colyte with flavor packs'
p1252
aS'colyte-flavored'
p1253
aS'combigan'
p1254
aS'combipatch'
p1255
aS'combipres'
p1256
aS'combivent'
p1257
aS'combivent respimat'
p1258
aS'combivir'
p1259
aS'combunox'
p1260
aS'cometriq'
p1261
aS'commit'
p1262
aS'compazine'
p1263
aS'complera'
p1264
aS'compound 65'
p1265
aS'compro'
p1266
aS'comtan'
p1267
aS'concentraid'
p1268
aS'concerta'
p1269
aS'condylox'
p1270
aS'conray'
p1271
aS'conray 30'
p1272
aS'conray 325'
p1273
aS'conray 400'
p1274
aS'conray 43'
p1275
aS'constilac'
p1276
aS'constulose'
p1277
aS'contrave'
p1278
aS'conzip'
p1279
aS'copaxone'
p1280
aS'copegus'
p1281
aS'cor-oticin'
p1282
aS'cordarone'
p1283
aS'cordran'
p1284
aS'cordran sp'
p1285
aS'cordran-n'
p1286
aS'coreg'
p1287
aS'coreg cr'
p1288
aS'corgard'
p1289
aS'corlanor'
p1290
aS'corlopam'
p1291
aS'cormax'
p1292
aS'corphed'
p1293
aS'cort-dome'
p1294
aS'cortalone'
p1295
aS'cortan'
p1296
aS'cortef'
p1297
aS'cortef acetate'
p1298
aS'cortenema'
p1299
aS'corticotropin'
p1300
aS'cortifoam'
p1301
aS'cortisone acetate'
p1302
aS'cortisporin'
p1303
aS'cortone'
p1304
aS'cortril'
p1305
aS'cortrophin-zinc'
p1306
aS'cortrosyn'
p1307
aS'corvert'
p1308
aS'corzide'
p1309
aS'cosmegen'
p1310
aS'cosopt'
p1311
aS'cosopt pf'
p1312
aS'cosyntropin'
p1313
aS'cotazym'
p1314
aS'cotrim'
p1315
aS'cotrim d.s.'
p1316
aS'coumadin'
p1317
aS'covera-hs'
p1318
aS'cozaar'
p1319
aS'creon'
p1320
aS'crescormon'
p1321
aS'cresemba'
p1322
aS'crestor'
p1323
aS'crinone'
p1324
aS'crixivan'
p1325
aS'crolom'
p1326
aS'cromolyn sodium'
p1327
aS'cromoptic'
p1328
aS'crotan'
p1329
aS'cryselle'
p1330
aS'crystodigin'
p1331
aS'cu-7'
p1332
aS'cubicin'
p1333
aS'cupric chloride in plastic container'
p1334
aS'cupric sulfate'
p1335
aS'cuprimine'
p1336
aS'curosurf'
p1337
aS'curretab'
p1338
aS'cutivate'
p1339
aS'cuvposa'
p1340
aS'cyanocobalamin'
p1341
aS'cyanocobalamin co 57 schilling test kit'
p1342
aS'cyanokit'
p1343
aS'cyclacillin'
p1344
aS'cyclafem 1/35'
p1345
aS'cyclafem 7/7/7'
p1346
aS'cyclaine'
p1347
aS'cyclapen-w'
p1348
aS'cyclessa'
p1349
aS'cyclobenzaprine hydrochloride'
p1350
aS'cyclocort'
p1351
aS'cyclogyl'
p1352
aS'cyclomydril'
p1353
aS'cyclopar'
p1354
aS'cyclopentolate hydrochloride'
p1355
aS'cyclophosphamide'
p1356
aS'cycloset'
p1357
aS'cyclosporine'
p1358
aS'cycrin'
p1359
aS'cyklokapron'
p1360
aS'cylert'
p1361
aS'cymbalta'
p1362
aS'cyproheptadine hydrochloride'
p1363
aS'cystadane'
p1364
aS'cystagon'
p1365
aS'cystaran'
p1366
aS'cysteine hydrochloride'
p1367
aS'cysto-conray ii'
p1368
aS'cystografin'
p1369
aS'cystografin dilute'
p1370
aS'cysview kit'
p1371
aS'cytadren'
p1372
aS'cytarabine'
p1373
aS'cytomel'
p1374
aS'cytosar-u'
p1375
aS'cytotec'
p1376
aS'cytovene'
p1377
aS'cytoxan'
p1378
aS'cytoxan (lyophilized)'
p1379
aS'd.h.e. 45'
p1380
aS'dacarbazine'
p1381
aS'dacogen'
p1382
aS'dactinomycin'
p1383
aS'dalgan'
p1384
aS'daliresp'
p1385
aS'dalmane'
p1386
aS'dalvance'
p1387
aS'danazol'
p1388
aS'danocrine'
p1389
aS'dantrium'
p1390
aS'dantrolene sodium'
p1391
aS'dapiprazole hydrochloride'
p1392
aS'dapsone'
p1393
aS'daptomycin'
p1394
aS'daranide'
p1395
aS'daraprim'
p1396
aS'darbid'
p1397
aS'daricon'
p1398
aS'darifenacin hydrobromide'
p1399
aS'darvocet'
p1400
aS'darvocet a500'
p1401
aS'darvocet-n 100'
p1402
aS'darvocet-n 50'
p1403
aS'darvon'
p1404
aS'darvon compound'
p1405
aS'darvon compound-65'
p1406
aS'darvon w/ asa'
p1407
aS'darvon-n'
p1408
aS'darvon-n w/ asa'
p1409
aS'dasetta 1/35'
p1410
aS'dasetta 7/7/7'
p1411
aS'datscan'
p1412
aS'daunorubicin hydrochloride'
p1413
aS'daunoxome'
p1414
aS'daypro'
p1415
aS'daypro alta'
p1416
aS'daysee'
p1417
aS'daytrana'
p1418
aS'ddavp'
p1419
aS'ddavp (needs no refrigeration)'
p1420
aS'deapril-st'
p1421
aS'deca-durabolin'
p1422
aS'decabid'
p1423
aS'decaderm'
p1424
aS'decadron'
p1425
aS'decadron w/ xylocaine'
p1426
aS'decadron-la'
p1427
aS'decapryn'
p1428
aS'decaspray'
p1429
aS'decitabine'
p1430
aS'declomycin'
p1431
aS'deferoxamine mesylate'
p1432
aS'definity'
p1433
aS'del-vi-a'
p1434
aS'delalutin'
p1435
aS'delatestryl'
p1436
aS'delaxin'
p1437
aS'delcobese'
p1438
aS'delestrogen'
p1439
aS'delfen'
p1440
aS'delflex w/ dextrose 1.5% in plastic container'
p1441
aS'delflex w/ dextrose 1.5% low magnesium in plastic container'
p1442
aS'delflex w/ dextrose 1.5% low magnesium low calcium in plastic container'
p1443
aS'delflex w/ dextrose 2.5% in plastic container'
p1444
aS'delflex w/ dextrose 2.5% low magnesium in plastic container'
p1445
aS'delflex w/ dextrose 2.5% low magnesium low calcium in plastic container'
p1446
aS'delflex w/ dextrose 3.5% in plastic container'
p1447
aS'delflex w/ dextrose 4.25% in plastic container'
p1448
aS'delflex w/ dextrose 4.25% low magnesium in plastic container'
p1449
aS'delflex w/ dextrose 4.25% low magnesium low calcium in plastic container'
p1450
aS'delflex-lm w/ dextrose 1.5% in plastic container'
p1451
aS'delflex-lm w/ dextrose 2.5% in plastic container'
p1452
aS'delflex-lm w/ dextrose 3.5% in plastic container'
p1453
aS'delflex-lm w/ dextrose 4.25% in plastic container'
p1454
aS'delsym'
p1455
aS'delta-cortef'
p1456
aS'delta-dome'
p1457
aS'deltalin'
p1458
aS'deltasone'
p1459
aS'delzicol'
p1460
aS'demadex'
p1461
aS'demeclocycline hydrochloride'
p1462
aS'demerol'
p1463
aS'demi-regroton'
p1464
aS'demser'
p1465
aS'demulen 1/35-21'
p1466
aS'demulen 1/35-28'
p1467
aS'demulen 1/50-21'
p1468
aS'demulen 1/50-28'
p1469
aS'denavir'
p1470
aS'dendrid'
p1471
aS'dentipatch'
p1472
aS'depacon'
p1473
aS'depakene'
p1474
aS'depakote'
p1475
aS'depakote cp'
p1476
aS'depakote er'
p1477
aS'depen'
p1478
aS'depinar'
p1479
aS'depo-estradiol'
p1480
aS'depo-medrol'
p1481
aS'depo-provera'
p1482
aS'depo-subq provera 104'
p1483
aS'depo-testadiol'
p1484
aS'depo-testosterone'
p1485
aS'depocyt'
p1486
aS'depodur'
p1487
aS'derma-smoothe/fs'
p1488
aS'dermabet'
p1489
aS'dermacort'
p1490
aS'dermatop'
p1491
aS'dermatop e emollient'
p1492
aS'dermotic'
p1493
aS'desferal'
p1494
aS'desipramine hydrochloride'
p1495
aS'desloratadine'
p1496
aS'desloratadine and pseudoephedrine sulfate 24 hour'
p1497
aS'desmopressin acetate'
p1498
aS'desmopressin acetate (needs no refrigeration)'
p1499
aS'desmopressin acetate preservative free'
p1500
aS'desogen'
p1501
aS'desogestrel and ethinyl estradiol'
p1502
aS'desonate'
p1503
aS'desonide'
p1504
aS'desowen'
p1505
aS'desoximetasone'
p1506
aS'desoxyn'
p1507
aS'desvenlafaxine'
p1508
aS'desyrel'
p1509
aS'detrol'
p1510
aS'detrol la'
p1511
aS'dexacen-4'
p1512
aS'dexacidin'
p1513
aS'dexacort'
p1514
aS'dexair'
p1515
aS'dexamethasone'
p1516
aS'dexamethasone acetate'
p1517
aS'dexamethasone intensol'
p1518
aS'dexamethasone sodium phosphate'
p1519
aS'dexampex'
p1520
aS'dexasporin'
p1521
aS'dexbrompheniramine maleate and pseudoephedrine sulfate'
p1522
aS'dexchlorpheniramine maleate'
p1523
aS'dexedrine'
p1524
aS'dexferrum'
p1525
aS'dexilant'
p1526
aS'dexmedetomidine hydrochloride'
p1527
aS'dexmethylphenidate hydrochloride'
p1528
aS'dexone 0.5'
p1529
aS'dexone 0.75'
p1530
aS'dexone 1.5'
p1531
aS'dexone 4'
p1532
aS'dexrazoxane hydrochloride'
p1533
aS'dextroamp saccharate, amp aspartate, dextroamp sulfate and amp sulfate'
p1534
aS'dextroamp saccharate,amp aspartate,dextroamp sulfate and amp sulfate'
p1535
aS'dextroamphetamine sulfate'
p1536
aS'dextromethorphan polistirex'
p1537
aS'dextrose 10% and sodium chloride 0.11% in plastic container'
p1538
aS'dextrose 10% and sodium chloride 0.2% in plastic container'
p1539
aS'dextrose 10% and sodium chloride 0.33% in plastic container'
p1540
aS'dextrose 10% and sodium chloride 0.45% in plastic container'
p1541
aS'dextrose 10% and sodium chloride 0.9% in plastic container'
p1542
aS'dextrose 10% in plastic container'
p1543
aS'dextrose 2.5% and sodium chloride 0.11% in plastic container'
p1544
aS'dextrose 2.5% and sodium chloride 0.2% in plastic container'
p1545
aS'dextrose 2.5% and sodium chloride 0.33% in plastic container'
p1546
aS'dextrose 2.5% and sodium chloride 0.45% in plastic container'
p1547
aS'dextrose 2.5% and sodium chloride 0.9% in plastic container'
p1548
aS"dextrose 2.5% in half-strength lactated ringer's in plastic container"
p1549
aS'dextrose 2.5% in plastic container'
p1550
aS'dextrose 20% in plastic container'
p1551
aS'dextrose 25%'
p1552
aS'dextrose 3.3% and sodium chloride 0.3% in plastic container'
p1553
aS'dextrose 30% in plastic container'
p1554
aS'dextrose 38.5% in plastic container'
p1555
aS"dextrose 4% in modified lactated ringer's in plastic container"
p1556
aS'dextrose 40% in plastic container'
p1557
aS'dextrose 5% and electrolyte no 75 in plastic container'
p1558
aS'dextrose 5% and electrolyte no.48 in plastic container'
p1559
aS"dextrose 5% and lactated ringer's in plastic container"
p1560
aS'dextrose 5% and potassium chloride 0.075% in plastic container'
p1561
aS'dextrose 5% and potassium chloride 0.15% in plastic container'
p1562
aS'dextrose 5% and potassium chloride 0.224% in plastic container'
p1563
aS'dextrose 5% and potassium chloride 0.3% in plastic container'
p1564
aS"dextrose 5% and ringer's in plastic container"
p1565
aS'dextrose 5% and sodium chloride 0.11% in plastic container'
p1566
aS'dextrose 5% and sodium chloride 0.2% in plastic container'
p1567
aS'dextrose 5% and sodium chloride 0.225% in plastic container'
p1568
aS'dextrose 5% and sodium chloride 0.3% in plastic container'
p1569
aS'dextrose 5% and sodium chloride 0.33% in plastic container'
p1570
aS'dextrose 5% and sodium chloride 0.45% in plastic container'
p1571
aS'dextrose 5% and sodium chloride 0.9% in plastic container'
p1572
aS"dextrose 5% in acetated ringer's in plastic container"
p1573
aS"dextrose 5% in lactated ringer's in plastic container"
p1574
aS'dextrose 5% in plastic container'
p1575
aS"dextrose 5% in ringer's in plastic container"
p1576
aS'dextrose 5% in sodium chloride 0.2% in plastic container'
p1577
aS'dextrose 5% in sodium chloride 0.33% in plastic container'
p1578
aS'dextrose 5% in sodium chloride 0.45% in plastic container'
p1579
aS'dextrose 5% in sodium chloride 0.9% in plastic container'
p1580
aS'dextrose 5%, sodium chloride 0.2% and potassium chloride 0.075%'
p1581
aS'dextrose 5%, sodium chloride 0.2% and potassium chloride 0.15% in plastic container'
p1582
aS'dextrose 5%, sodium chloride 0.2% and potassium chloride 0.224% in plastic container'
p1583
aS'dextrose 5%, sodium chloride 0.2% and potassium chloride 0.3% in plastic container'
p1584
aS'dextrose 5%, sodium chloride 0.2% and potassium chloride 10meq'
p1585
aS'dextrose 5%, sodium chloride 0.2% and potassium chloride 15meq (k)'
p1586
aS'dextrose 5%, sodium chloride 0.2% and potassium chloride 20meq'
p1587
aS'dextrose 5%, sodium chloride 0.2% and potassium chloride 20meq (k)'
p1588
aS'dextrose 5%, sodium chloride 0.2% and potassium chloride 30meq'
p1589
aS'dextrose 5%, sodium chloride 0.2% and potassium chloride 40meq'
p1590
aS'dextrose 5%, sodium chloride 0.2% and potassium chloride 5meq'
p1591
aS'dextrose 5%, sodium chloride 0.2% and potassium chloride 5meq (k)'
p1592
aS'dextrose 5%, sodium chloride 0.33% and potassium chloride 0.075% in plastic container'
p1593
aS'dextrose 5%, sodium chloride 0.33% and potassium chloride 0.15% in plastic container'
p1594
aS'dextrose 5%, sodium chloride 0.33% and potassium chloride 0.22% in plastic container'
p1595
aS'dextrose 5%, sodium chloride 0.33% and potassium chloride 0.30% in plastic container'
p1596
aS'dextrose 5%, sodium chloride 0.33% and potassium chloride 10meq in plastic container'
p1597
aS'dextrose 5%, sodium chloride 0.33% and potassium chloride 15meq in plastic container'
p1598
aS'dextrose 5%, sodium chloride 0.33% and potassium chloride 20meq in plastic container'
p1599
aS'dextrose 5%, sodium chloride 0.33% and potassium chloride 30meq in plastic container'
p1600
aS'dextrose 5%, sodium chloride 0.33% and potassium chloride 40meq in plastic container'
p1601
aS'dextrose 5%, sodium chloride 0.33% and potassium chloride 5meq in plastic container'
p1602
aS'dextrose 5%, sodium chloride 0.45% and potassium chloride 0.075%'
p1603
aS'dextrose 5%, sodium chloride 0.45% and potassium chloride 0.15% in plastic container'
p1604
aS'dextrose 5%, sodium chloride 0.45% and potassium chloride 0.22% in plastic container'
p1605
aS'dextrose 5%, sodium chloride 0.45% and potassium chloride 0.3% in plastic container'
p1606
aS'dextrose 5%, sodium chloride 0.45% and potassium chloride 15meq in plastic container'
p1607
aS'dextrose 5%, sodium chloride 0.45% and potassium chloride 20meq (k) in plastic container'
p1608
aS'dextrose 5%, sodium chloride 0.45% and potassium chloride 5meq in plastic container'
p1609
aS'dextrose 50% in plastic container'
p1610
aS'dextrose 60%'
p1611
aS'dextrose 60% in plastic container'
p1612
aS'dextrose 7.7% in plastic container'
p1613
aS'dextrose 70% in plastic container'
p1614
aS'dextrostat'
p1615
aS'dhc plus'
p1616
aS'di-atro'
p1617
aS'di-metrex'
p1618
aS'diabeta'
p1619
aS'diabinese'
p1620
aS'dial'
p1621
aS'dialyte concentrate w/ dextrose 30% in plastic container'
p1622
aS'dialyte concentrate w/ dextrose 50% in plastic container'
p1623
aS'dialyte lm/ dextrose 1.5% in plastic container'
p1624
aS'dialyte lm/ dextrose 2.5% in plastic container'
p1625
aS'dialyte lm/ dextrose 4.25% in plastic container'
p1626
aS'dialyte w/ dextrose 1.5% in plastic container'
p1627
aS'dialyte w/ dextrose 4.25% in plastic container'
p1628
aS'diamox'
p1629
aS'dianeal 137 w/ dextrose 1.5% in plastic container'
p1630
aS'dianeal 137 w/ dextrose 2.5% in plastic container'
p1631
aS'dianeal 137 w/ dextrose 4.25% in plastic container'
p1632
aS'dianeal low calcium w/ dextrose 1.5% in plastic container'
p1633
aS'dianeal low calcium w/ dextrose 2.5% in plastic container'
p1634
aS'dianeal low calcium w/ dextrose 3.5% in plastic container'
p1635
aS'dianeal low calcium w/ dextrose 4.25% in plastic container'
p1636
aS'dianeal pd-1 w/ dextrose 1.5% in plastic container'
p1637
aS'dianeal pd-1 w/ dextrose 2.5% in plastic container'
p1638
aS'dianeal pd-1 w/ dextrose 3.5% in plastic container'
p1639
aS'dianeal pd-1 w/ dextrose 4.25% in plastic container'
p1640
aS'dianeal pd-2 w/ dextrose 1.5% in plastic container'
p1641
aS'dianeal pd-2 w/ dextrose 2.5% in plastic container'
p1642
aS'dianeal pd-2 w/ dextrose 3.5% in plastic container'
p1643
aS'dianeal pd-2 w/ dextrose 4.25% in plastic container'
p1644
aS'diapid'
p1645
aS'diasone sodium'
p1646
aS'diastat'
p1647
aS'diastat acudial'
p1648
aS'diatrizoate meglumine'
p1649
aS'diatrizoate-60'
p1650
aS'diazepam'
p1651
aS'diazepam intensol'
p1652
aS'diazoxide'
p1653
aS'dibenil'
p1654
aS'dibenzyline'
p1655
aS'diclegis'
p1656
aS'diclofenac potassium'
p1657
aS'diclofenac sodium'
p1658
aS'diclofenac sodium '
p1659
aS'diclofenac sodium and misoprostol'
p1660
aS'dicloxacillin sodium'
p1661
aS'dicopac kit'
p1662
aS'dicumarol'
p1663
aS'dicurin procaine'
p1664
aS'dicyclomine hydrochloride'
p1665
aS'dicyclomine hydrochloride (preservative-free)'
p1666
aS'didanosine'
p1667
aS'didrex'
p1668
aS'didronel'
p1669
aS'dienestrol'
p1670
aS'diethylpropion hydrochloride'
p1671
aS'diethylstilbestrol'
p1672
aS'differin'
p1673
aS'dificid'
p1674
aS'diflorasone diacetate'
p1675
aS'diflucan'
p1676
aS'diflucan in dextrose 5% in plastic container'
p1677
aS'diflucan in sodium chloride 0.9%'
p1678
aS'diflucan in sodium chloride 0.9% in plastic container'
p1679
aS'diflunisal'
p1680
aS'digoxin'
p1681
aS'digoxin pediatric'
p1682
aS'dihydroergotamine mesylate'
p1683
aS'dilacor xr'
p1684
aS'dilantin'
p1685
aS'dilantin-125'
p1686
aS'dilantin-30'
p1687
aS'dilatrate-sr'
p1688
aS'dilaudid'
p1689
aS'dilaudid-hp'
p1690
aS'dilor'
p1691
aS'dilor-400'
p1692
aS'dilt-cd'
p1693
aS'diltiazem hydrochloride'
p1694
aS'diltzac'
p1695
aS'dimenhydrinate'
p1696
aS'dimetane'
p1697
aS'dimetane-dx'
p1698
aS'dimetane-ten'
p1699
aS'dimethyl sulfoxide'
p1700
aS'dionosil aqueous'
p1701
aS'dionosil oily'
p1702
aS'diovan'
p1703
aS'diovan hct'
p1704
aS'dipentum'
p1705
aS'diphen'
p1706
aS'diphenhydramine hydrochloride'
p1707
aS'diphenhydramine hydrochloride preservative free'
p1708
aS'diphenoxylate hydrochloride and atropine sulfate'
p1709
aS'diphenoxylate hydrochloride w/ atropine sulfate'
p1710
aS'diphenylan sodium'
p1711
aS'dipivefrin hydrochloride'
p1712
aS'diprivan'
p1713
aS'diprolene'
p1714
aS'diprolene af'
p1715
aS'diprosone'
p1716
aS'dipyridamole'
p1717
aS'discase'
p1718
aS'disipal'
p1719
aS'disobrom'
p1720
aS'disomer'
p1721
aS'disophrol'
p1722
aS'disopyramide phosphate'
p1723
aS'dispermox'
p1724
aS'disulfiram'
p1725
aS'disulfiram '
p1726
aS'ditate-ds'
p1727
aS'ditropan'
p1728
aS'ditropan xl'
p1729
aS'diucardin'
p1730
aS'diulo'
p1731
aS'diupres-250'
p1732
aS'diupres-500'
p1733
aS'diuril'
p1734
aS'diutensen-r'
p1735
aS'divalproex sodium'
p1736
aS'divigel'
p1737
aS'dizac'
p1738
aS'dobutamine hydrochloride'
p1739
aS'dobutamine hydrochloride in dextrose 5%'
p1740
aS'dobutamine hydrochloride in dextrose 5% in plastic container'
p1741
aS'dobutrex'
p1742
aS'doca'
p1743
aS'docefrez'
p1744
aS'docetaxel'
p1745
aS'dolene'
p1746
aS'dolene ap-65'
p1747
aS'dolobid'
p1748
aS'dolophine hydrochloride'
p1749
aS'domeboro'
p1750
aS'donepezil hydrochloride'
p1751
aS'dopamine hydrochloride'
p1752
aS'dopamine hydrochloride and dextrose 5%'
p1753
aS'dopamine hydrochloride and dextrose 5% in plastic container'
p1754
aS'dopamine hydrochloride in dextrose 5%'
p1755
aS'dopamine hydrochloride in dextrose 5% in plastic container'
p1756
aS'dopar'
p1757
aS'dopram'
p1758
aS'doral'
p1759
aS'doribax'
p1760
aS'doriden'
p1761
aS'dormate'
p1762
aS'doryx'
p1763
aS'dorzolamide hydrochloride'
p1764
aS'dorzolamide hydrochloride and timolol maleate'
p1765
aS'dostinex'
p1766
aS'dotarem'
p1767
aS'dovonex'
p1768
aS'dow-isoniazid'
p1769
aS'doxapram hydrochloride'
p1770
aS'doxazosin mesylate'
p1771
aS'doxepin hydrochloride'
p1772
aS'doxercalciferol'
p1773
aS'doxil (liposomal)'
p1774
aS'doxorubicin hydrochloride'
p1775
aS'doxorubicin hydrochloride (liposomal)'
p1776
aS'doxteric'
p1777
aS'doxy 100'
p1778
aS'doxy 200'
p1779
aS'doxy-lemmon'
p1780
aS'doxy-sleep-aid'
p1781
aS'doxychel'
p1782
aS'doxychel hyclate'
p1783
aS'doxycycline'
p1784
aS'doxycycline hyclate'
p1785
aS'doxylamine succinate'
p1786
aS'dralserp'
p1787
aS'dralzine'
p1788
aS'draximage mdp-10'
p1789
aS'draximage mdp-25'
p1790
aS'dricort'
p1791
aS'drisdol'
p1792
aS'drixoral'
p1793
aS'drixoral plus'
p1794
aS'drolban'
p1795
aS'dronabinol'
p1796
aS'droperidol'
p1797
aS'drospirenone and ethinyl estradiol'
p1798
aS'droxia'
p1799
aS'dtic-dome'
p1800
aS'dtpa'
p1801
aS'duac'
p1802
aS'duavee'
p1803
aS'duetact'
p1804
aS'duexis'
p1805
aS'dulera'
p1806
aS'duloxetine hydrochloride'
p1807
aS'duo-medihaler'
p1808
aS'duocaine'
p1809
aS'duodote'
p1810
aS'duoneb'
p1811
aS'duopa'
p1812
aS'duphalac'
p1813
aS'durabolin'
p1814
aS'duracillin a.s.'
p1815
aS'duraclon'
p1816
aS'duradyne dhc'
p1817
aS'duragesic-100'
p1818
aS'duragesic-12'
p1819
aS'duragesic-25'
p1820
aS'duragesic-50'
p1821
aS'duragesic-75'
p1822
aS'duramorph pf'
p1823
aS'duranest'
p1824
aS'duraphyl'
p1825
aS'duraprep'
p1826
aS'duraquin'
p1827
aS'durezol'
p1828
aS'duricef'
p1829
aS'dutasteride'
p1830
aS'dutasteride and tamsulosin hydrochloride'
p1831
aS'dutoprol'
p1832
aS'dutrebis'
p1833
aS'duvoid'
p1834
aS'dv'
p1835
aS'dyazide'
p1836
aS'dycill'
p1837
aS'dyclone'
p1838
aS'dyloject'
p1839
aS'dymelor'
p1840
aS'dymista'
p1841
aS'dyna-hex'
p1842
aS'dynabac'
p1843
aS'dynacin'
p1844
aS'dynacirc'
p1845
aS'dynacirc cr'
p1846
aS'dynapen'
p1847
aS'dyrenium'
p1848
aS'e-base'
p1849
aS'e-glades'
p1850
aS'e-mycin'
p1851
aS'e-mycin e'
p1852
aS'e-solve 2'
p1853
aS'e-z prep'
p1854
aS'e-z prep 220'
p1855
aS'e-z scrub'
p1856
aS'e-z scrub 201'
p1857
aS'e-z scrub 241'
p1858
aS'e-z-em prep lyte'
p1859
aS'e.e.s.'
p1860
aS'e.e.s. 200'
p1861
aS'e.e.s. 400'
p1862
aS'ec-naprosyn'
p1863
aS'econazole nitrate'
p1864
aS'econochlor'
p1865
aS'econopred'
p1866
aS'ecoza'
p1867
aS'edarbi'
p1868
aS'edarbyclor'
p1869
aS'edecrin'
p1870
aS'edex'
p1871
aS'edluar'
p1872
aS'edrophonium chloride'
p1873
aS'edrophonium chloride preservative free'
p1874
aS'edurant'
p1875
aS'effexor'
p1876
aS'effexor xr'
p1877
aS'effient'
p1878
aS'efidac 24 chlorpheniramine maleate'
p1879
aS'efidac 24 pseudoephedrine hydrochloride/brompheniramine maleate'
p1880
aS'efudex'
p1881
aS'egrifta'
p1882
aS'elase-chloromycetin'
p1883
aS'elavil'
p1884
aS'eldecort'
p1885
aS'eldepryl'
p1886
aS'elelyso'
p1887
aS'elepsia xr'
p1888
aS'elestat'
p1889
aS'elestrin'
p1890
aS'elidel'
p1891
aS'eligard'
p1892
aS'elimite'
p1893
aS'elinest'
p1894
aS'eliphos'
p1895
aS'eliquis'
p1896
aS'elixicon'
p1897
aS'elixomin'
p1898
aS'elixophyllin'
p1899
aS'elixophyllin sr'
p1900
aS'ella'
p1901
aS'ellence'
p1902
aS'elliotts b solution'
p1903
aS'elmiron'
p1904
aS'elocon'
p1905
aS'eloxatin'
p1906
aS'emadine'
p1907
aS'embeda'
p1908
aS'embeline'
p1909
aS'embeline e'
p1910
aS'embolex'
p1911
aS'emcyt'
p1912
aS'emend'
p1913
aS'emete-con'
p1914
aS'emgel'
p1915
aS'emla'
p1916
aS'emoquette'
p1917
aS'empracet w/ codeine phosphate #3'
p1918
aS'empracet w/ codeine phosphate #4'
p1919
aS'emsam'
p1920
aS'emtriva'
p1921
aS'enablex'
p1922
aS'enalapril maleate'
p1923
aS'enalapril maleate and hydrochlorothiazide'
p1924
aS'enalaprilat'
p1925
aS'endep'
p1926
aS'endometrin'
p1927
aS'endosol extra'
p1928
aS'enduron'
p1929
aS'enduronyl'
p1930
aS'enduronyl forte'
p1931
aS'enflurane'
p1932
aS'enjuvia'
p1933
aS'enlon'
p1934
aS'enlon-plus'
p1935
aS'enovid'
p1936
aS'enovid-e'
p1937
aS'enovid-e 21'
p1938
aS'enoxaparin sodium'
p1939
aS'enoxaparin sodium (preservative free)'
p1940
aS'enpresse-21'
p1941
aS'enpresse-28'
p1942
aS'enskyce'
p1943
aS'entacapone'
p1944
aS'entecavir'
p1945
aS'entereg'
p1946
aS'entocort ec'
p1947
aS'enulose'
p1948
aS'eovist'
p1949
aS'epaned kit'
p1950
aS'epanova'
p1951
aS'epi e z pen jr'
p1952
aS'epicort'
p1953
aS'epiduo'
p1954
aS'epifoam'
p1955
aS'epinastine hydrochloride'
p1956
aS'epinephrine'
p1957
aS'epipen'
p1958
aS'epipen e z pen'
p1959
aS'epipen jr.'
p1960
aS'epirubicin hydrochloride'
p1961
aS'epitol'
p1962
aS'epivir'
p1963
aS'epivir-hbv'
p1964
aS'eplerenone'
p1965
aS'epoprostenol sodium'
p1966
aS'eprosartan mesylate'
p1967
aS'epzicom'
p1968
aS'equagesic'
p1969
aS'equanil'
p1970
aS'equetro'
p1971
aS'equipin'
p1972
aS'eraxis'
p1973
aS'ergamisol'
p1974
aS'ergocalciferol'
p1975
aS'ergoloid mesylates'
p1976
aS'ergomar'
p1977
aS'ergostat'
p1978
aS'ergotamine tartrate and caffeine'
p1979
aS'erivedge'
p1980
aS'erlotinib hydrochloride'
p1981
aS'errin'
p1982
aS'ertaczo'
p1983
aS'ery-tab'
p1984
aS'eryc'
p1985
aS'eryc 125'
p1986
aS'eryc sprinkles'
p1987
aS'erycette'
p1988
aS'eryderm'
p1989
aS'erygel'
p1990
aS'erymax'
p1991
aS'erypar'
p1992
aS'eryped'
p1993
aS'erythra-derm'
p1994
aS'erythro-statin'
p1995
aS'erythrocin'
p1996
aS'erythrocin stearate'
p1997
aS'erythromycin'
p1998
aS'erythromycin and benzoyl peroxide'
p1999
aS'erythromycin estolate'
p2000
aS'erythromycin ethylsuccinate'
p2001
aS'erythromycin ethylsuccinate and sulfisoxazole acetyl'
p2002
aS'erythromycin lactobionate'
p2003
aS'erythromycin stearate'
p2004
aS'eryzole'
p2005
aS'esbriet'
p2006
aS'escitalopram oxalate'
p2007
aS'esclim'
p2008
aS'esgic'
p2009
aS'esgic-plus'
p2010
aS'esidrix'
p2011
aS'esimil'
p2012
aS'eskalith'
p2013
aS'eskalith cr'
p2014
aS'esmolol hydrochloride'
p2015
aS'esomeprazole magnesium'
p2016
aS'esomeprazole sodium'
p2017
aS'esomeprazole strontium'
p2018
aS'estarylla'
p2019
aS'estazolam'
p2020
aS'esterified estrogens'
p2021
aS'estinyl'
p2022
aS'estrace'
p2023
aS'estraderm'
p2024
aS'estradiol'
p2025
aS'estradiol and norethindrone acetate'
p2026
aS'estradiol and norgestimate'
p2027
aS'estradiol cypionate'
p2028
aS'estradiol valerate'
p2029
aS'estradurin'
p2030
aS'estraguard'
p2031
aS'estrasorb'
p2032
aS'estratab'
p2033
aS'estring'
p2034
aS'estrogel'
p2035
aS'estrogenic substance'
p2036
aS'estrone'
p2037
aS'estropipate'
p2038
aS'estrostep 21'
p2039
aS'estrostep fe'
p2040
aS'estrovis'
p2041
aS'eszopiclone'
p2042
aS'ethambutol hydrochloride'
p2043
aS'ethamide'
p2044
aS'ethamolin'
p2045
aS'ethchlorvynol'
p2046
aS'ethmozine'
p2047
aS'ethosuximide'
p2048
aS'ethrane'
p2049
aS'ethril 250'
p2050
aS'ethril 500'
p2051
aS'ethyol'
p2052
aS'etidronate disodium'
p2053
aS'etodolac'
p2054
aS'etomidate'
p2055
aS'etopophos preservative free'
p2056
aS'etoposide'
p2057
aS'etrafon 2-10'
p2058
aS'etrafon 2-25'
p2059
aS'etrafon-a'
p2060
aS'etrafon-forte'
p2061
aS'eulexin'
p2062
aS'eurax'
p2063
aS'euthroid-0.5'
p2064
aS'euthroid-1'
p2065
aS'euthroid-2'
p2066
aS'euthroid-3'
p2067
aS'eutonyl'
p2068
aS'eutron'
p2069
aS'evalose'
p2070
aS'evamist'
p2071
aS'evans blue'
p2072
aS'evekeo'
p2073
aS'evex'
p2074
aS'evista'
p2075
aS'evoclin'
p2076
aS'evotaz'
p2077
aS'evoxac'
p2078
aS'evzio'
p2079
aS'exalgo'
p2080
aS'excedrin (migraine)'
p2081
aS'exelderm'
p2082
aS'exelon'
p2083
aS'exemestane'
p2084
aS'exforge'
p2085
aS'exforge hct'
p2086
aS'exidine'
p2087
aS'exjade'
p2088
aS'exna'
p2089
aS'exosurf neonatal'
p2090
aS'exparel'
p2091
aS'exsel'
p2092
aS'extended phenytoin sodium'
p2093
aS'extina'
p2094
aS'extra-strength aim'
p2095
aS'extraneal'
p2096
aS'exubera'
p2097
aS'fabior'
p2098
aS'factive'
p2099
aS'factrel'
p2100
aS'fallback solo'
p2101
aS'falmina'
p2102
aS'famciclovir'
p2103
aS'famotidine'
p2104
aS'famotidine preservative free'
p2105
aS'famotidine preservative free (pharmacy bulk)'
p2106
aS'famotidine preservative free in plastic container'
p2107
aS'famvir'
p2108
aS'fanapt'
p2109
aS'fansidar'
p2110
aS'fareston'
p2111
aS'farxiga'
p2112
aS'farydak'
p2113
aS'faslodex'
p2114
aS'fastin'
p2115
aS'fazaclo odt'
p2116
aS'felbamate'
p2117
aS'felbatol'
p2118
aS'feldene'
p2119
aS'felodipine'
p2120
aS'femara'
p2121
aS'femcet'
p2122
aS'femcon fe'
p2123
aS'femhrt'
p2124
aS'feminone'
p2125
aS'femogen'
p2126
aS'fempatch'
p2127
aS'femring'
p2128
aS'femstat'
p2129
aS'femstat 3'
p2130
aS'femtrace'
p2131
aS'fenofibrate'
p2132
aS'fenofibrate (micronized)'
p2133
aS'fenofibric acid'
p2134
aS'fenoglide'
p2135
aS'fenoldopam mesylate'
p2136
aS'fenoprofen calcium'
p2137
aS'fentanyl'
p2138
aS'fentanyl citrate'
p2139
aS'fentanyl citrate and droperidol'
p2140
aS'fentanyl citrate preservative free'
p2141
aS'fentanyl-100'
p2142
aS'fentanyl-12'
p2143
aS'fentanyl-25'
p2144
aS'fentanyl-37'
p2145
aS'fentanyl-50'
p2146
aS'fentanyl-62'
p2147
aS'fentanyl-75'
p2148
aS'fentanyl-87'
p2149
aS'fentora'
p2150
aS'feraheme'
p2151
aS'feridex i.v.'
p2152
aS'ferndex'
p2153
aS'fernisolone-p'
p2154
aS'fernisone'
p2155
aS'ferriprox'
p2156
aS'ferriseltz'
p2157
aS'ferrlecit'
p2158
aS'ferrous citrate fe 59'
p2159
aS'fertinex'
p2160
aS'fetzima'
p2161
aS'fexofenadine hydrochloride'
p2162
aS'fexofenadine hydrochloride allergy'
p2163
aS'fexofenadine hydrochloride and pseudoephedrine hydrochloride'
p2164
aS'fexofenadine hydrochloride hives'
p2165
aS'fibricor'
p2166
aS'finacea'
p2167
aS'finasteride'
p2168
aS'fioricet'
p2169
aS'fioricet w/ codeine'
p2170
aS'fiorinal'
p2171
aS'fiorinal w/codeine'
p2172
aS'firazyr'
p2173
aS'firmagon'
p2174
aS'flagyl'
p2175
aS'flagyl er'
p2176
aS'flagyl i.v.'
p2177
aS'flagyl i.v. rtu in plastic container'
p2178
aS'flarex'
p2179
aS'flavored colestid'
p2180
aS'flavoxate hydrochloride'
p2181
aS'flaxedil'
p2182
aS'flecainide acetate'
p2183
aS'flector'
p2184
aS'flexeril'
p2185
aS'flexicort'
p2186
aS'flo-pred'
p2187
aS'flolan'
p2188
aS'flomax'
p2189
aS'flonase'
p2190
aS'flonase allergy relief'
p2191
aS'florinef'
p2192
aS'florone'
p2193
aS'florone e'
p2194
aS'floropryl'
p2195
aS'flovent'
p2196
aS'flovent diskus 100'
p2197
aS'flovent diskus 250'
p2198
aS'flovent diskus 50'
p2199
aS'flovent hfa'
p2200
aS'floxin'
p2201
aS'floxin in dextrose 5%'
p2202
aS'floxin in dextrose 5% in plastic container'
p2203
aS'floxin otic'
p2204
aS'floxuridine'
p2205
aS'flucanazole in sodium chloride 0.9% in plastic container'
p2206
aS'fluconazole'
p2207
aS'fluconazole in dextrose 5% in plastic container'
p2208
aS'fluconazole in sodium chloride 0.9%'
p2209
aS'fluconazole in sodium chloride 0.9% in plastic container'
p2210
aS'flucytosine'
p2211
aS'fludara'
p2212
aS'fludarabine phosphate'
p2213
aS'fludeoxyglucose f 18'
p2214
aS'fludeoxyglucose f18'
p2215
aS'fludrocortisone acetate'
p2216
aS'fluidil'
p2217
aS'flumadine'
p2218
aS'flumazenil'
p2219
aS'flunisolide'
p2220
aS'fluocet'
p2221
aS'fluocinolone acetonide'
p2222
aS'fluocinonide'
p2223
aS'fluocinonide emulsified base'
p2224
aS'fluonid'
p2225
aS'fluor-op'
p2226
aS'fluorescite'
p2227
aS'fluorine f-18'
p2228
aS'fluoroplex'
p2229
aS'fluorouracil'
p2230
aS'fluothane'
p2231
aS'fluotrex'
p2232
aS'fluoxetine'
p2233
aS'fluoxetine hydrochloride'
p2234
aS'fluoxymesterone'
p2235
aS'fluphenazine decanoate'
p2236
aS'fluphenazine hydrochloride'
p2237
aS'flurandrenolide'
p2238
aS'flurazepam hydrochloride'
p2239
aS'flurbiprofen'
p2240
aS'flurbiprofen sodium'
p2241
aS'flutamide'
p2242
aS'flutex'
p2243
aS'fluticasone propionate'
p2244
aS'fluvastatin sodium'
p2245
aS'fluvoxamine maleate'
p2246
aS'fluxid'
p2247
aS'fml'
p2248
aS'fml forte'
p2249
aS'fml-s'
p2250
aS'foamcoat'
p2251
aS'foamicon'
p2252
aS'focalin'
p2253
aS'focalin xr'
p2254
aS'folex'
p2255
aS'folex pfs'
p2256
aS'folic acid'
p2257
aS'folicet'
p2258
aS'follistim'
p2259
aS'follistim aq'
p2260
aS'follutein'
p2261
aS'folotyn'
p2262
aS'folvite'
p2263
aS'folvron'
p2264
aS'fomepizole'
p2265
aS'fondaparinux sodium'
p2266
aS'foradil'
p2267
aS'foradil certihaler'
p2268
aS'forane'
p2269
aS'forbaxin'
p2270
aS'forfivo xl'
p2271
aS'fortamet'
p2272
aS'fortaz'
p2273
aS'fortaz in plastic container'
p2274
aS'forteo'
p2275
aS'fortesta'
p2276
aS'fortical'
p2277
aS'fortovase'
p2278
aS'fosamax'
p2279
aS'fosamax plus d'
p2280
aS'foscarnet sodium'
p2281
aS'foscavir'
p2282
aS'fosinopril sodium'
p2283
aS'fosinopril sodium and hydrochlorothiazide'
p2284
aS'fosphenytoin sodium'
p2285
aS'fosrenol'
p2286
aS'fovane'
p2287
aS'fragmin'
p2288
aS'freamine 8.5%'
p2289
aS'freamine hbc 6.9%'
p2290
aS'freamine ii 8.5%'
p2291
aS'freamine iii 10%'
p2292
aS'freamine iii 3% w/ electrolytes'
p2293
aS'freamine iii 8.5%'
p2294
aS'freamine iii 8.5% w/ electrolytes'
p2295
aS'frova'
p2296
aS'frovatriptan succinate'
p2297
aS'fudr'
p2298
aS'fulvicin p/g'
p2299
aS'fulvicin p/g 165'
p2300
aS'fulvicin p/g 330'
p2301
aS'fulvicin-u/f'
p2302
aS'fulyzaq'
p2303
aS'funduscein-25'
p2304
aS'fungizone'
p2305
aS'furacin'
p2306
aS'furadantin'
p2307
aS'furalan'
p2308
aS'furosemide'
p2309
aS'furoxone'
p2310
aS'fusilev'
p2311
aS'fuzeon'
p2312
aS'fycompa'
p2313
aS'gabapentin'
p2314
aS'gabitril'
p2315
aS'gablofen'
p2316
aS'gadavist'
p2317
aS'galantamine hydrobromide'
p2318
aS'gallium citrate ga 67'
p2319
aS'galzin'
p2320
aS'gamene'
p2321
aS'gamophen'
p2322
aS'ganciclovir'
p2323
aS'ganciclovir sodium'
p2324
aS'ganirelix acetate'
p2325
aS'ganite'
p2326
aS'gantanol'
p2327
aS'gantanol-ds'
p2328
aS'gantrisin'
p2329
aS'gantrisin pediatric'
p2330
aS'garamycin'
p2331
aS'gastrocrom'
p2332
aS'gastrografin'
p2333
aS'gastromark'
p2334
aS'gastrovist'
p2335
aS'gatifloxacin'
p2336
aS'gattex kit'
p2337
aS'gaviscon'
p2338
aS'gelnique'
p2339
aS'gelnique 3%'
p2340
aS'gemcitabine hydrochloride'
p2341
aS'gemfibrozil'
p2342
aS'gemonil'
p2343
aS'gemzar'
p2344
aS'gen-xene'
p2345
aS'genapax'
p2346
aS'gencept 10/11-21'
p2347
aS'gencept 10/11-28'
p2348
aS'generlac'
p2349
aS'genesa'
p2350
aS'gengraf'
p2351
aS'genoptic'
p2352
aS'genotropin'
p2353
aS'genotropin preservative free'
p2354
aS'gentacidin'
p2355
aS'gentafair'
p2356
aS'gentak'
p2357
aS'gentamicin'
p2358
aS'gentamicin sulfate'
p2359
aS'gentamicin sulfate in sodium chloride 0.9% in plastic container'
p2360
aS'geocillin'
p2361
aS'geodon'
p2362
aS'geopen'
p2363
aS'geref'
p2364
aS'gerimal'
p2365
aS'germa-medica'
p2366
aS'giazo'
p2367
aS'gildagia'
p2368
aS'gildess 1.5/30'
p2369
aS'gildess 1/20'
p2370
aS'gildess 24 fe'
p2371
aS'gildess fe 1.5/30'
p2372
aS'gildess fe 1/20'
p2373
aS'gilenya'
p2374
aS'gilotrif'
p2375
aS'glatopa'
p2376
aS'gleevec'
p2377
aS'gleostine'
p2378
aS'gliadel'
p2379
aS'glimepiride'
p2380
aS'glipizide'
p2381
aS'glipizide and metformin hydrochloride'
p2382
aS'glofil-125'
p2383
aS'glucagen'
p2384
aS'glucagon'
p2385
aS'glucamide'
p2386
aS'glucophage'
p2387
aS'glucophage xr'
p2388
aS'glucoscan'
p2389
aS'glucotrol'
p2390
aS'glucotrol xl'
p2391
aS'glucovance'
p2392
aS'glumetza'
p2393
aS'glutethimide'
p2394
aS'glyburide'
p2395
aS'glyburide (micronized)'
p2396
aS'glyburide and metformin hydrochloride'
p2397
aS'glycine 1.5% in plastic container'
p2398
aS'glycolax'
p2399
aS'glycoprep'
p2400
aS'glycopyrrolate'
p2401
aS'glycort'
p2402
aS'glydo'
p2403
aS'glynase'
p2404
aS'glyset'
p2405
aS'glyxambi'
p2406
aS'go-evac'
p2407
aS'golytely'
p2408
aS'gonal-f'
p2409
aS'gonal-f rff'
p2410
aS'gonal-f rff redi-ject'
p2411
aS'gralise'
p2412
aS'granisetron hydrochloride'
p2413
aS'granisetron hydrochloride preservative free'
p2414
aS'granisol'
p2415
aS'granisteron hydrochloride'
p2416
aS'grifulvin v'
p2417
aS'gris-peg'
p2418
aS'grisactin'
p2419
aS'grisactin ultra'
p2420
aS'griseofulvin'
p2421
aS'griseofulvin, ultramicrosize'
p2422
aS'griseofulvin,ultramicrosize'
p2423
aS'guaifenesin'
p2424
aS'guanabenz acetate'
p2425
aS'guanethidine monosulfate'
p2426
aS'guanfacine hydrochloride'
p2427
aS'guanidine hydrochloride'
p2428
aS'gvs'
p2429
aS'gynazole-1'
p2430
aS'gyne-lotrimin'
p2431
aS'gyne-lotrimin 3'
p2432
aS'gyne-lotrimin 3 combination pack'
p2433
aS'gyne-lotrimin combination pack'
p2434
aS'gyne-sulf'
p2435
aS'gynix'
p2436
aS'gynodiol'
p2437
aS'gynorest'
p2438
aS'h-cort'
p2439
aS'h.p. acthar gel'
p2440
aS'h.r.-50'
p2441
aS'habitrol'
p2442
aS'halaven'
p2443
aS'halcion'
p2444
aS'haldol'
p2445
aS'haldol solutab'
p2446
aS'haldrone'
p2447
aS'halfan'
p2448
aS'halflytely'
p2449
aS'halobetasol propionate'
p2450
aS'halog'
p2451
aS'halog-e'
p2452
aS'haloperidol'
p2453
aS'haloperidol decanoate'
p2454
aS'haloperidol intensol'
p2455
aS'haloperidol lactate'
p2456
aS'halotestin'
p2457
aS'halotex'
p2458
aS'halothane'
p2459
aS'harmonyl'
p2460
aS'harvoni'
p2461
aS'hc #1'
p2462
aS'hc #4'
p2463
aS'hc (hydrocortisone)'
p2464
aS'head & shoulders conditioner'
p2465
aS'heather'
p2466
aS'heavy solution nupercaine'
p2467
aS'hectorol'
p2468
aS'hedulin'
p2469
aS'helicosol'
p2470
aS'helidac'
p2471
aS'hemabate'
p2472
aS'hemangeol'
p2473
aS'hemsol-hc'
p2474
aS'heparin lock flush'
p2475
aS'heparin sodium'
p2476
aS'heparin sodium 1,000 units and sodium chloride 0.9% in plastic container'
p2477
aS'heparin sodium 1,000 units in dextrose 5% in plastic container'
p2478
aS'heparin sodium 1,000 units in sodium chloride 0.9% in plastic container'
p2479
aS'heparin sodium 10,000 units and dextrose 5% in plastic container'
p2480
aS'heparin sodium 10,000 units in dextrose 5%'
p2481
aS'heparin sodium 10,000 units in dextrose 5% in plastic container'
p2482
aS'heparin sodium 10,000 units in sodium chloride 0.45%'
p2483
aS'heparin sodium 10,000 units in sodium chloride 0.9%'
p2484
aS'heparin sodium 12,500 units in dextrose 5%'
p2485
aS'heparin sodium 12,500 units in dextrose 5% in plastic container'
p2486
aS'heparin sodium 12,500 units in sodium chloride 0.45% in plastic container'
p2487
aS'heparin sodium 12,500 units in sodium chloride 0.9%'
p2488
aS'heparin sodium 2,000 units and sodium chloride 0.9% in plastic container'
p2489
aS'heparin sodium 2,000 units in dextrose 5% in plastic container'
p2490
aS'heparin sodium 2,000 units in sodium chloride 0.9% in plastic container'
p2491
aS'heparin sodium 20,000 units and dextrose 5% in plastic container'
p2492
aS'heparin sodium 20,000 units in dextrose 5% in plastic container'
p2493
aS'heparin sodium 25,000 units and dextrose 5% in plastic container'
p2494
aS'heparin sodium 25,000 units in dextrose 5%'
p2495
aS'heparin sodium 25,000 units in dextrose 5% in plastic container'
p2496
aS'heparin sodium 25,000 units in sodium chloride 0.45% in plastic container'
p2497
aS'heparin sodium 25,000 units in sodium chloride 0.9%'
p2498
aS'heparin sodium 25,000 units in sodium chloride 0.9% in plastic container'
p2499
aS'heparin sodium 5,000 units and sodium chloride 0.9% in plastic container'
p2500
aS'heparin sodium 5,000 units in dextrose 5% in plastic container'
p2501
aS'heparin sodium 5,000 units in sodium chloride 0.45%'
p2502
aS'heparin sodium 5,000 units in sodium chloride 0.9%'
p2503
aS'heparin sodium 5,000 units in sodium chloride 0.9% in plastic container'
p2504
aS'heparin sodium in plastic container'
p2505
aS'heparin sodium preservative free'
p2506
aS'hepatamine 8%'
p2507
aS'hepatasol 8%'
p2508
aS'hepatolite'
p2509
aS'hepsera'
p2510
aS'heptalac'
p2511
aS'herplex'
p2512
aS'hetlioz'
p2513
aS'hetrazan'
p2514
aS'hexa-betalin'
p2515
aS'hexa-germ'
p2516
aS'hexabrix'
p2517
aS'hexadrol'
p2518
aS'hexalen'
p2519
aS'hexascrub'
p2520
aS'hi-cor'
p2521
aS'hibiclens'
p2522
aS'hibistat'
p2523
aS'hicon'
p2524
aS'hippuran i 131'
p2525
aS'hipputope'
p2526
aS'hiprex'
p2527
aS'hiserpia'
p2528
aS'hispril'
p2529
aS'histafed'
p2530
aS'histalog'
p2531
aS'histamine phosphate'
p2532
aS'hivid'
p2533
aS'hiwolfia'
p2534
aS'hms'
p2535
aS'homapin-10'
p2536
aS'homapin-5'
p2537
aS'homatropine methylbromide and hydrocodone bitartrate'
p2538
aS'homatroprine methylbromide and hydrocodone bitartrate'
p2539
aS'horizant'
p2540
aS'humalog'
p2541
aS'humalog kwikpen'
p2542
aS'humalog mix 50/50'
p2543
aS'humalog mix 50/50 kwikpen'
p2544
aS'humalog mix 50/50 pen'
p2545
aS'humalog mix 75/25'
p2546
aS'humalog mix 75/25 kwikpen'
p2547
aS'humalog mix 75/25 pen'
p2548
aS'humalog pen'
p2549
aS'humatin'
p2550
aS'humatrope'
p2551
aS'humegon'
p2552
aS'humorsol'
p2553
aS'humulin 50/50'
p2554
aS'humulin 70/30'
p2555
aS'humulin 70/30 pen'
p2556
aS'humulin br'
p2557
aS'humulin l'
p2558
aS'humulin n'
p2559
aS'humulin r'
p2560
aS'humulin r pen'
p2561
aS'humulin u'
p2562
aS'hy-phen'
p2563
aS'hycamtin'
p2564
aS'hycodan'
p2565
aS'hydase'
p2566
aS'hydeltra-tba'
p2567
aS'hydeltrasol'
p2568
aS'hydergine'
p2569
aS'hydergine lc'
p2570
aS'hydra-zide'
p2571
aS'hydralazine and hydrochlorthiazide'
p2572
aS'hydralazine hydrochloride'
p2573
aS'hydralazine hydrochloride and hydrochlorothiazide'
p2574
aS'hydralazine hydrochloride w/ hydrochlorothiazide 100/50'
p2575
aS'hydralazine hydrochloride w/ hydrochlorothiazide 25/25'
p2576
aS'hydralazine hydrochloride w/ hydrochlorothiazide 50/50'
p2577
aS'hydralazine hydrochloride, hydrochlorothiazide and reserpine'
p2578
aS'hydralazine hydrochloride-hydrochlorothiazide-reserpine'
p2579
aS'hydralazine, hydrochlorothiazide w/ reserpine'
p2580
aS'hydramine'
p2581
aS'hydrap-es'
p2582
aS'hydrea'
p2583
aS'hydro-d'
p2584
aS'hydro-reserp'
p2585
aS'hydro-ride'
p2586
aS'hydro-rx'
p2587
aS'hydrochlorothiazide'
p2588
aS'hydrochlorothiazide intensol'
p2589
aS'hydrochlorothiazide w/ hydralazine'
p2590
aS'hydrochlorothiazide w/ reserpine'
p2591
aS'hydrochlorothiazide w/ reserpine and hydralazine'
p2592
aS'hydrocodone bitartrate and acetaminophen'
p2593
aS'hydrocodone bitartrate and chlorpheniramine maleate'
p2594
aS'hydrocodone bitartrate and homatropine methylbromide'
p2595
aS'hydrocodone bitartrate and ibuprofen'
p2596
aS'hydrocodone bitartrate and pseudoephedrine hydrochloride'
p2597
aS'hydrocodone bitartrate, chlorpheniramine maleate and pseudoephedrine hydrochloride'
p2598
aS'hydrocodone bitartrate, chlorpheniramine maleate and pseudoephedrine hydrochloride '
p2599
aS'hydrocodone polistirex and chlorpheniramine polistirex'
p2600
aS'hydrocodone polistirex and chlorpheniramne polistirex'
p2601
aS'hydrocortisone'
p2602
aS'hydrocortisone acetate'
p2603
aS'hydrocortisone acetate 1% and pramoxine hydrochloride 1%'
p2604
aS'hydrocortisone and acetic acid'
p2605
aS'hydrocortisone butyrate'
p2606
aS'hydrocortisone in absorbase'
p2607
aS'hydrocortisone sodium succinate'
p2608
aS'hydrocortisone valerate'
p2609
aS'hydrocortone'
p2610
aS'hydrodiuril'
p2611
aS'hydroflumethiazide'
p2612
aS'hydroflumethiazide and reserpine'
p2613
aS'hydrogenated ergot alkaloids'
p2614
aS'hydromorphone hydrochloride'
p2615
aS'hydromox'
p2616
aS'hydromox r'
p2617
aS'hydropane'
p2618
aS'hydropres 25'
p2619
aS'hydropres 50'
p2620
aS'hydroserpine plus (r-h-h)'
p2621
aS'hydroxocobalamin'
p2622
aS'hydroxomin'
p2623
aS'hydroxychloroquine sulfate'
p2624
aS'hydroxyprogesterone caproate'
p2625
aS'hydroxystilbamidine isethionate'
p2626
aS'hydroxyurea'
p2627
aS'hydroxyzine'
p2628
aS'hydroxyzine hydrochloride'
p2629
aS'hydroxyzine pamoate'
p2630
aS'hygroton'
p2631
aS'hylenex recombinant'
p2632
aS'hylorel'
p2633
aS'hypaque'
p2634
aS'hypaque sodium 20%'
p2635
aS'hypaque-76'
p2636
aS'hypaque-cysto'
p2637
aS'hypaque-m,75%'
p2638
aS'hypaque-m,90%'
p2639
aS'hyperstat'
p2640
aS'hyprotigen 5%'
p2641
aS'hyserpin'
p2642
aS'hysingla'
p2643
aS'hytone'
p2644
aS'hytrin'
p2645
aS'hyzaar'
p2646
aS'hyzyd'
p2647
aS'ibandronate sodium'
p2648
aS'ibrance'
p2649
aS'ibrin'
p2650
aS'ibu'
p2651
aS'ibu-tab'
p2652
aS'ibu-tab 200'
p2653
aS'ibuprin'
p2654
aS'ibuprofen'
p2655
aS'ibuprofen and diphenhydramine citrate'
p2656
aS'ibuprofen and diphenhydramine hydrochloride'
p2657
aS'ibuprofen and phenylephrine hydrochloride'
p2658
aS'ibuprofen and pseudoephedrine hydrochloride'
p2659
aS'ibuprohm'
p2660
aS'ibuprohm cold and sinus'
p2661
aS'ibutilide fumarate'
p2662
aS'ic-green'
p2663
aS'iclusig'
p2664
aS'idamycin'
p2665
aS'idamycin pfs'
p2666
aS'idarubicin hydrochloride'
p2667
aS'idarubicin hydrochloride pfs'
p2668
aS'idkit:hp'
p2669
aS'ifex'
p2670
aS'ifex/mesnex kit'
p2671
aS'ifosfamide'
p2672
aS'ifosfamide/mesna kit'
p2673
aS'iletin i'
p2674
aS'iletin ii'
p2675
aS'ilevro'
p2676
aS'ilosone'
p2677
aS'ilosone sulfa'
p2678
aS'ilotycin'
p2679
aS'ilotycin gluceptate'
p2680
aS'iluvien'
p2681
aS'imagent'
p2682
aS'imbruvica'
p2683
aS'imdur'
p2684
aS'imipenem and cilastatin'
p2685
aS'imipramine hydrochloride'
p2686
aS'imipramine pamoate'
p2687
aS'imiquimod'
p2688
aS'imitrex'
p2689
aS'imitrex statdose'
p2690
aS'imodium'
p2691
aS'imodium a-d'
p2692
aS'imodium a-d ez chews'
p2693
aS'imodium multi-symptom relief'
p2694
aS'impavido'
p2695
aS'implanon'
p2696
aS'imuran'
p2697
aS'inapsine'
p2698
aS'incivek'
p2699
aS'increlex'
p2700
aS'incruse ellipta '
p2701
aS'indapamide'
p2702
aS'inderal'
p2703
aS'inderal la'
p2704
aS'inderide la 120/50'
p2705
aS'inderide la 160/50'
p2706
aS'inderide la 80/50'
p2707
aS'inderide-40/25'
p2708
aS'inderide-80/25'
p2709
aS'indiclor'
p2710
aS'indium in 111 chloride'
p2711
aS'indium in-111 oxyquinoline'
p2712
aS'indo-lemmon'
p2713
aS'indocin'
p2714
aS'indocin sr'
p2715
aS'indocyanine green'
p2716
aS'indomethacin'
p2717
aS'indomethacin sodium'
p2718
aS"infants' feverall"
p2719
aS'infasurf preservative free'
p2720
aS'infed'
p2721
aS'inflamase forte'
p2722
aS'inflamase mild'
p2723
aS'infumorph'
p2724
aS'infuvite adult'
p2725
aS'infuvite pediatric'
p2726
aS'infuvite pediatric (pharmacy bulk package)'
p2727
aS'inh'
p2728
aS'injectafer'
p2729
aS'injectapap'
p2730
aS'inlyta'
p2731
aS'innofem'
p2732
aS'innohep'
p2733
aS'innopran xl'
p2734
aS'innovar'
p2735
aS'inocor'
p2736
aS'inomax'
p2737
aS'inpersol-lc/lm w/ dextrose 1.5% in plastic container'
p2738
aS'inpersol-lc/lm w/ dextrose 2.5% in plastic container'
p2739
aS'inpersol-lc/lm w/ dextrose 3.5% in plastic container'
p2740
aS'inpersol-lc/lm w/ dextrose 4.25% in plastic container'
p2741
aS'inpersol-zm w/ dextrose 1.5% in plastic container'
p2742
aS'inpersol-zm w/ dextrose 2.5% in plastic container'
p2743
aS'inpersol-zm w/ dextrose 4.25% in plastic container'
p2744
aS'inspra'
p2745
aS'instant microspheres'
p2746
aS'insulatard nph human'
p2747
aS'insulin'
p2748
aS'insulin insulatard nph nordisk'
p2749
aS'insulin nordisk mixtard (pork)'
p2750
aS'intal'
p2751
aS'integrilin'
p2752
aS'intelence'
p2753
aS'intermezzo'
p2754
aS'intralipid 10%'
p2755
aS'intralipid 20%'
p2756
aS'intralipid 30%'
p2757
aS'intropin'
p2758
aS'introvale'
p2759
aS'intuniv'
p2760
aS'inulin and sodium chloride'
p2761
aS'invagesic'
p2762
aS'invagesic forte'
p2763
aS'invanz'
p2764
aS'invega'
p2765
aS'invega sustenna'
p2766
aS'inversine'
p2767
aS'invirase'
p2768
aS'invokamet'
p2769
aS'invokana'
p2770
aS'iobenguane sulfate i 131'
p2771
aS'iodohippurate sodium i 131'
p2772
aS'iodotope'
p2773
aS'ionamin'
p2774
aS'ionosol b and dextrose 5% in plastic container'
p2775
aS'ionosol mb and dextrose 5% in plastic container'
p2776
aS'ionosol t and dextrose 5% in plastic container'
p2777
aS'ionsys'
p2778
aS'iontocaine'
p2779
aS'iopamidol'
p2780
aS'iopamidol-200'
p2781
aS'iopamidol-200 in plastic container'
p2782
aS'iopamidol-250'
p2783
aS'iopamidol-250 in plastic container'
p2784
aS'iopamidol-300'
p2785
aS'iopamidol-300 in plastic container'
p2786
aS'iopamidol-370'
p2787
aS'iopamidol-370 in plastic container'
p2788
aS'iopidine'
p2789
aS'iosat'
p2790
aS'iplex'
p2791
aS'ipratropium bromide'
p2792
aS'iprivask'
p2793
aS'iquix'
p2794
aS'irbesartan'
p2795
aS'irbesartan and hydrochlorothiazide'
p2796
aS'iressa'
p2797
aS'irinotecan hydrochloride'
p2798
aS'iron dextran'
p2799
aS'irrigating solution g in plastic container'
p2800
aS'isentress'
p2801
aS'ismelin'
p2802
aS'ismo'
p2803
aS'ismotic'
p2804
aS'isocaine hydrochloride'
p2805
aS'isocaine hydrochloride w/ levonordefrin'
p2806
aS'isoclor'
p2807
aS'isoetharine hydrochloride'
p2808
aS'isoetharine hydrochloride s/f'
p2809
aS'isoetharine mesylate'
p2810
aS'isoflurane'
p2811
aS'isolyte e in dextrose 5% in plastic container'
p2812
aS'isolyte e in plastic container'
p2813
aS'isolyte e w/ dextrose 5% in plastic container'
p2814
aS'isolyte h in dextrose 5% in plastic container'
p2815
aS'isolyte h w/ dextrose 5% in plastic container'
p2816
aS'isolyte m in dextrose 5% in plastic container'
p2817
aS'isolyte m w/ dextrose 5% in plastic container'
p2818
aS'isolyte p in dextrose 5% in plastic container'
p2819
aS'isolyte p w/ dextrose 5% in plastic container'
p2820
aS'isolyte r in dextrose 5% in plastic container'
p2821
aS'isolyte r w/ dextrose 5% in plastic container'
p2822
aS'isolyte s in dextrose 5% in plastic container'
p2823
aS'isolyte s in plastic container'
p2824
aS'isolyte s ph 7.4 in plastic container'
p2825
aS'isolyte s w/ dextrose 5% in plastic container'
p2826
aS'isoniazid'
p2827
aS'isopaque 280'
p2828
aS'isopaque 440'
p2829
aS'isoproterenol hydrochloride'
p2830
aS'isoptin'
p2831
aS'isopto carpine'
p2832
aS'isopto cetamide'
p2833
aS'isopto cetapred'
p2834
aS'isordil'
p2835
aS'isosorbide dinitrate'
p2836
aS'isosorbide mononitrate'
p2837
aS'isosulfan blue'
p2838
aS'isotonic gentamicin sulfate in plastic container'
p2839
aS'isovue-128'
p2840
aS'isovue-200'
p2841
aS'isovue-250'
p2842
aS'isovue-300'
p2843
aS'isovue-370'
p2844
aS'isovue-m 200'
p2845
aS'isovue-m 300'
p2846
aS'isradipine'
p2847
aS'istalol'
p2848
aS'istodax'
p2849
aS'isuprel'
p2850
aS'itraconazole'
p2851
aS'iv persantine'
p2852
aS'ivadantin'
p2853
aS'ivermectin'
p2854
aS'ivy block'
p2855
aS'ixempra kit'
p2856
aS'izba'
p2857
aS'jadelle'
p2858
aS'jadenu'
p2859
aS'jakafi'
p2860
aS'jalyn'
p2861
aS'janimine'
p2862
aS'jantoven'
p2863
aS'janumet'
p2864
aS'janumet xr'
p2865
aS'januvia'
p2866
aS'jardiance'
p2867
aS'jeanatope'
p2868
aS'jencycla'
p2869
aS'jenloga'
p2870
aS'jentadueto'
p2871
aS'jevtana kit'
p2872
aS'jublia'
p2873
aS'junel 1.5/30'
p2874
aS'junel 1/20'
p2875
aS'junel fe 1.5/30'
p2876
aS'junel fe 1/20'
p2877
aS'junior strength advil'
p2878
aS'junior strength ibuprofen'
p2879
aS'junior strength motrin'
p2880
aS'juvisync'
p2881
aS'juxtapid'
p2882
aS'k+10'
p2883
aS'k+8'
p2884
aS'k-lease'
p2885
aS'k-tab'
p2886
aS'kabiven in plastic container'
p2887
aS'kadian'
p2888
aS'kafocin'
p2889
aS'kainair'
p2890
aS'kaletra'
p2891
aS'kalexate'
p2892
aS'kalydeco'
p2893
aS'kanamycin'
p2894
aS'kanamycin sulfate'
p2895
aS'kantrex'
p2896
aS'kaon cl'
p2897
aS'kaon cl-10'
p2898
aS'kappadione'
p2899
aS'kapvay'
p2900
aS'karbinal er'
p2901
aS'kariva'
p2902
aS'kayexalate'
p2903
aS'kazano'
p2904
aS'keflet'
p2905
aS'keflex'
p2906
aS'keflin'
p2907
aS'keflin in plastic container'
p2908
aS'keftab'
p2909
aS'kefurox'
p2910
aS'kefurox in plastic container'
p2911
aS'kefzol'
p2912
aS'kelnor'
p2913
aS'kemadrin'
p2914
aS'kemstro'
p2915
aS'kenacort'
p2916
aS'kenalog'
p2917
aS'kenalog in orabase'
p2918
aS'kenalog-10'
p2919
aS'kenalog-40'
p2920
aS'kenalog-h'
p2921
aS'keppra'
p2922
aS'keppra xr'
p2923
aS'kerledex'
p2924
aS'kerlone'
p2925
aS'kerydin'
p2926
aS'kesso-gesic'
p2927
aS'ketalar'
p2928
aS'ketamine hydrochloride'
p2929
aS'ketek'
p2930
aS'ketoconazole'
p2931
aS'ketoprofen'
p2932
aS'ketorolac tromethamine'
p2933
aS'ketotifen fumarate'
p2934
aS'ketozole'
p2935
aS'khedezla'
p2936
aS'kimidess'
p2937
aS'kinevac'
p2938
aS'kinlytic'
p2939
aS'kionex'
p2940
aS'kitabis pak'
p2941
aS'klaron'
p2942
aS'klebcil'
p2943
aS'klonopin'
p2944
aS'klonopin rapidly disintegrating'
p2945
aS'klor-con'
p2946
aS'klor-con m10'
p2947
aS'klor-con m15'
p2948
aS'klor-con m20'
p2949
aS'kloromin'
p2950
aS'klotrix'
p2951
aS'koglucoid'
p2952
aS'kombiglyze xr'
p2953
aS'konakion'
p2954
aS'korlym'
p2955
aS'korostatin'
p2956
aS'kurvelo'
p2957
aS'kuvan'
p2958
aS'kwell'
p2959
aS'kybella'
p2960
aS'kynamro'
p2961
aS'kyprolis'
p2962
aS'kytril'
p2963
aS'labetalol hydrochloride'
p2964
aS'labetalol hydrocloride'
p2965
aS'labid'
p2966
aS'lac-hydrin'
p2967
aS'lacrisert'
p2968
aS"lactated ringer's and dextrose 5% in plastic container"
p2969
aS"lactated ringer's in plastic container"
p2970
aS'lactulose'
p2971
aS'lamictal'
p2972
aS'lamictal cd'
p2973
aS'lamictal odt'
p2974
aS'lamictal xr'
p2975
aS'lamisil'
p2976
aS'lamisil at'
p2977
aS'lamivudine'
p2978
aS'lamivudine and zidovudine'
p2979
aS'lamotrigine'
p2980
aS'lamprene'
p2981
aS'lanabiotic'
p2982
aS'laniazid'
p2983
aS'lanophyllin'
p2984
aS'lanorinal'
p2985
aS'lanoxicaps'
p2986
aS'lanoxin'
p2987
aS'lanoxin pediatric'
p2988
aS'lansoprazole'
p2989
aS'lansoprazole '
p2990
aS'lansoprazole, amoxicillin and clarithromycin'
p2991
aS'lantrisul'
p2992
aS'lantus'
p2993
aS'lantus solostar'
p2994
aS'largon'
p2995
aS'lariam'
p2996
aS'larin 1.5/30'
p2997
aS'larin 1/20'
p2998
aS'larin 24 fe'
p2999
aS'larin fe 1.5/30'
p3000
aS'larin fe 1/20'
p3001
aS'larodopa'
p3002
aS'larotid'
p3003
aS'laryng-o-jet kit'
p3004
aS'laryngotracheal anesthesia kit'
p3005
aS'lasix'
p3006
aS'lastacaft'
p3007
aS'latanoprost'
p3008
aS'latisse'
p3009
aS'latuda'
p3010
aS'lax-lyte with flavor packs'
p3011
aS'laxilose'
p3012
aS'lazanda'
p3013
aS'ledercillin vk'
p3014
aS'leflunomide'
p3015
aS'lentard'
p3016
aS'lente'
p3017
aS'lente iletin ii'
p3018
aS'lente iletin ii (pork)'
p3019
aS'lente insulin'
p3020
aS'lenvima'
p3021
aS'leritine'
p3022
aS'lescol'
p3023
aS'lescol xl'
p3024
aS'lessina-21'
p3025
aS'lessina-28'
p3026
aS'letairis'
p3027
aS'letrozole'
p3028
aS'leucovorin calcium'
p3029
aS'leucovorin calcium preservative free'
p3030
aS'leukeran'
p3031
aS'leuprolide acetate'
p3032
aS'leustatin'
p3033
aS'levalbuterol hydrochloride'
p3034
aS'levaquin'
p3035
aS'levaquin in dextrose 5% in plastic container'
p3036
aS'levatol'
p3037
aS'levemir'
p3038
aS'levemir flexpen'
p3039
aS'levemir flextouch'
p3040
aS'levemir innolet'
p3041
aS'levemir penfill'
p3042
aS'levetiracetam'
p3043
aS'levetiracetam in sodium chloride'
p3044
aS'levitra'
p3045
aS'levlite'
p3046
aS'levo-dromoran'
p3047
aS'levo-t'
p3048
aS'levobunolol hydrochloride'
p3049
aS'levocarnitine'
p3050
aS'levocetirizine dihydrochloride'
p3051
aS'levofloxacin'
p3052
aS'levofloxacin in dextrose 5% in plastic container'
p3053
aS'levolet'
p3054
aS'levoleucovorin calcium'
p3055
aS'levonest'
p3056
aS'levonorgestrel'
p3057
aS'levonorgestrel and ethinyl estradiol'
p3058
aS'levonorgestrel and ethinyl estradiol and ethinyl estradiol'
p3059
aS'levophed'
p3060
aS'levoprome'
p3061
aS'levora 0.15/30-21'
p3062
aS'levora 0.15/30-28'
p3063
aS'levorphanol tartrate'
p3064
aS'levothroid'
p3065
aS'levothyroxine sodium'
p3066
aS'levoxyl'
p3067
aS'levulan'
p3068
aS'lexapro'
p3069
aS'lexiscan'
p3070
aS'lexiva'
p3071
aS'lexxel'
p3072
aS'lialda'
p3073
aS'librelease'
p3074
aS'libritabs'
p3075
aS'librium'
p3076
aS'lidex'
p3077
aS'lidex-e'
p3078
aS'lidocaine'
p3079
aS'lidocaine and prilocaine'
p3080
aS'lidocaine hydrochloride'
p3081
aS'lidocaine hydrochloride 0.1% and dextrose 5% in plastic container'
p3082
aS'lidocaine hydrochloride 0.2% and dextrose 5% in plastic container'
p3083
aS'lidocaine hydrochloride 0.2% in dextrose 5%'
p3084
aS'lidocaine hydrochloride 0.2% in dextrose 5% in plastic container'
p3085
aS'lidocaine hydrochloride 0.4% and dextrose 5% in plastic container'
p3086
aS'lidocaine hydrochloride 0.4% in dextrose 5%'
p3087
aS'lidocaine hydrochloride 0.4% in dextrose 5% in plastic container'
p3088
aS'lidocaine hydrochloride 0.8% and dextrose 5% in plastic container'
p3089
aS'lidocaine hydrochloride 0.8% in dextrose 5% in plastic container'
p3090
aS'lidocaine hydrochloride 5% and dextrose 7.5%'
p3091
aS'lidocaine hydrochloride and epinephrine'
p3092
aS'lidocaine hydrochloride in plastic container'
p3093
aS'lidocaine hydrochloride preservative free'
p3094
aS'lidocaine hydrochloride preservative free in plastic container'
p3095
aS'lidocaine hydrochloride viscous'
p3096
aS'lidocaine hydrochloride w/ epinephrine'
p3097
aS'lidocaine viscous'
p3098
aS'lidocaton'
p3099
aS'lidoderm'
p3100
aS'lidopen'
p3101
aS'lidosite topical system kit'
p3102
aS'lignospan forte'
p3103
aS'lignospan standard'
p3104
aS'liletta'
p3105
aS'limbitrol'
p3106
aS'limbitrol ds'
p3107
aS'lincocin'
p3108
aS'lincomycin hydrochloride'
p3109
aS'lindane'
p3110
aS'linezolid'
p3111
aS'linzess'
p3112
aS'lioresal'
p3113
aS'liothyronine sodium'
p3114
aS'lipidil'
p3115
aS'lipiodol'
p3116
aS'lipitor'
p3117
aS'lipo gantrisin'
p3118
aS'lipo-hepin'
p3119
aS'lipofen'
p3120
aS'liposyn 10%'
p3121
aS'liposyn 20%'
p3122
aS'liposyn ii 10%'
p3123
aS'liposyn ii 20%'
p3124
aS'liposyn iii 10%'
p3125
aS'liposyn iii 20%'
p3126
aS'liposyn iii 30%'
p3127
aS'liptruzet'
p3128
aS'liquaemin lock flush'
p3129
aS'liquaemin sodium'
p3130
aS'liquaemin sodium preservative free'
p3131
aS'liquamar'
p3132
aS'liquid pred'
p3133
aS'lisinopril'
p3134
aS'lisinopril and hydrochlorothiazide'
p3135
aS'lithane'
p3136
aS'lithium carbonate'
p3137
aS'lithium citrate'
p3138
aS'lithobid'
p3139
aS'lithonate'
p3140
aS'lithostat'
p3141
aS'lithotabs'
p3142
aS'livalo'
p3143
aS'livostin'
p3144
aS'lo loestrin fe'
p3145
aS'lo minastrin fe'
p3146
aS'lo-trol'
p3147
aS'lo/ovral'
p3148
aS'lo/ovral-28'
p3149
aS'locholest'
p3150
aS'locholest light'
p3151
aS'locoid'
p3152
aS'locoid lipocream'
p3153
aS'locorten'
p3154
aS'lodine'
p3155
aS'lodine xl'
p3156
aS'lodosyn'
p3157
aS'loestrin 21 1.5/30'
p3158
aS'loestrin 21 1/20'
p3159
aS'loestrin 24 fe'
p3160
aS'loestrin fe 1.5/30'
p3161
aS'loestrin fe 1/20'
p3162
aS'logen'
p3163
aS'lomanate'
p3164
aS'lomotil'
p3165
aS'loniten'
p3166
aS'lonox'
p3167
aS'loperamide hydrochloride'
p3168
aS'loperamide hydrochloride and simethicone'
p3169
aS'lopid'
p3170
aS'lopressidone'
p3171
aS'lopressor'
p3172
aS'lopressor hct'
p3173
aS'loprox'
p3174
aS'lopurin'
p3175
aS'lorabid'
p3176
aS'loratadine'
p3177
aS'loratadine and pseudoephedrine sulfate'
p3178
aS'loratadine redidose'
p3179
aS'loraz'
p3180
aS'lorazepam'
p3181
aS'lorazepam intensol'
p3182
aS'lorazepam preservative free'
p3183
aS'lorcet-hd'
p3184
aS'lorelco'
p3185
aS'lorfan'
p3186
aS'lortab'
p3187
aS'loryna'
p3188
aS'losartan potassium'
p3189
aS'losartan potassium and hydrochlorothiazide'
p3190
aS'loseasonique'
p3191
aS'lotemax'
p3192
aS'lotensin'
p3193
aS'lotensin hct'
p3194
aS'lotrel'
p3195
aS'lotrimin'
p3196
aS'lotrimin ultra'
p3197
aS'lotrisone'
p3198
aS'lotronex'
p3199
aS'lotusate'
p3200
aS'lovastatin'
p3201
aS'lovaza'
p3202
aS'lovenox'
p3203
aS'lovenox (preservative free)'
p3204
aS'low-ogestrel-21'
p3205
aS'low-ogestrel-28'
p3206
aS'low-quel'
p3207
aS'loxapine succinate'
p3208
aS'loxitane'
p3209
aS'loxitane c'
p3210
aS'loxitane im'
p3211
aS'lozol'
p3212
aS'lta ii kit'
p3213
aS'ludiomil'
p3214
aS'lufyllin'
p3215
aS'lumason'
p3216
aS'lumenhance'
p3217
aS'lumigan'
p3218
aS'lunelle'
p3219
aS'lunesta'
p3220
aS'lungaggregate reagent'
p3221
aS'lupaneta pack'
p3222
aS'lupron'
p3223
aS'lupron depot'
p3224
aS'lupron depot-ped'
p3225
aS'lusedra'
p3226
aS'lutrepulse kit'
p3227
aS'luveris'
p3228
aS'luvox'
p3229
aS'luvox cr'
p3230
aS'luxiq'
p3231
aS'luzu'
p3232
aS'lybrel'
p3233
aS'lygen'
p3234
aS'lymphazurin'
p3235
aS'lymphoseek kit'
p3236
aS'lynoral'
p3237
aS'lynparza'
p3238
aS'lyophilized cytoxan'
p3239
aS'lyrica'
p3240
aS'lysodren'
p3241
aS'lysteda'
p3242
aS'm-predrol'
p3243
aS'm-zole 3 combination pack'
p3244
aS'm-zole 7 dual pack'
p3245
aS'm.v.c. 9+3'
p3246
aS'm.v.i. adult'
p3247
aS'm.v.i. adult (pharmacy bulk package)'
p3248
aS'm.v.i. pediatric'
p3249
aS'm.v.i.-12'
p3250
aS'm.v.i.-12 (without vitamin k)'
p3251
aS'm.v.i.-12 lyophilized'
p3252
aS'macrobid'
p3253
aS'macrodantin'
p3254
aS'macrotec'
p3255
aS'macugen'
p3256
aS'mafenide acetate'
p3257
aS'magnacort'
p3258
aS'magnesium hydroxide and omeprazole and sodium bicarbonate'
p3259
aS'magnesium sulfate'
p3260
aS'magnesium sulfate in dextrose 5% in plastic container'
p3261
aS'magnesium sulfate in plastic container'
p3262
aS'magnevist'
p3263
aS'makena'
p3264
aS'malarone'
p3265
aS'malarone pediatric'
p3266
aS'malathion'
p3267
aS'mandol'
p3268
aS'manganese chloride in plastic container'
p3269
aS'manganese sulfate'
p3270
aS'mannitol 10%'
p3271
aS'mannitol 10% in plastic container'
p3272
aS'mannitol 10% w/ dextrose 5% in distilled water'
p3273
aS'mannitol 15%'
p3274
aS'mannitol 15% in plastic container'
p3275
aS'mannitol 15% w/ dextrose 5% in sodium chloride 0.45%'
p3276
aS'mannitol 20%'
p3277
aS'mannitol 20% in plastic container'
p3278
aS'mannitol 25%'
p3279
aS'mannitol 5%'
p3280
aS'mannitol 5% in plastic container'
p3281
aS'mannitol 5% w/ dextrose 5% in sodium chloride 0.12%'
p3282
aS'maolate'
p3283
aS'maprotiline hydrochloride'
p3284
aS'marcaine'
p3285
aS'marcaine hydrochloride'
p3286
aS'marcaine hydrochloride preservative free'
p3287
aS'marcaine hydrochloride w/ epinephrine'
p3288
aS'marcaine hydrochloride w/ epinephrine preservative free'
p3289
aS'marezine'
p3290
aS'marinol'
p3291
aS'marlissa'
p3292
aS'marplan'
p3293
aS'marqibo kit'
p3294
aS'matulane'
p3295
aS'mavik'
p3296
aS'maxair'
p3297
aS'maxalt'
p3298
aS'maxalt-mlt'
p3299
aS'maxaquin'
p3300
aS'maxibolin'
p3301
aS'maxidex'
p3302
aS'maxipime'
p3303
aS'maxitrol'
p3304
aS'maxolon'
p3305
aS'maxzide'
p3306
aS'maxzide-25'
p3307
aS'mazanor'
p3308
aS'md-50'
p3309
aS'md-60'
p3310
aS'md-76'
p3311
aS'md-76r'
p3312
aS'md-gastroview'
p3313
aS'mdp-bracco'
p3314
aS'measurin'
p3315
aS'mebendazole'
p3316
aS'mecamylamine hydrochloride'
p3317
aS'meclan'
p3318
aS'meclizine hydrochloride'
p3319
aS'meclodium'
p3320
aS'meclofenamate sodium'
p3321
aS'meclomen'
p3322
aS'medigesic plus'
p3323
aS'medihaler ergotamine'
p3324
aS'medihaler-epi'
p3325
aS'medihaler-iso'
p3326
aS'medipren'
p3327
aS'medrol'
p3328
aS'medrol acetate'
p3329
aS'medroxyprogesterone acetate'
p3330
aS'mefenamic acid'
p3331
aS'mefloquine hydrochloride'
p3332
aS'mefoxin'
p3333
aS'mefoxin in dextrose 5% in plastic container'
p3334
aS'mefoxin in plastic container'
p3335
aS'mefoxin in sodium chloride 0.9% in plastic container'
p3336
aS'megace'
p3337
aS'megace es'
p3338
aS'megatope'
p3339
aS'megestrol acetate'
p3340
aS'mekinist'
p3341
aS'melfiat'
p3342
aS'melfiat-105'
p3343
aS'mellaril'
p3344
aS'mellaril-s'
p3345
aS'meloxicam'
p3346
aS'melphalan hydrochloride'
p3347
aS'memantine'
p3348
aS'memantine hydrochloride'
p3349
aS'membraneblue'
p3350
aS"men's rogaine"
p3351
aS'menadione'
p3352
aS'menest'
p3353
aS'menopur'
p3354
aS'menostar'
p3355
aS'menotropins'
p3356
aS'menrium 10-4'
p3357
aS'menrium 5-2'
p3358
aS'menrium 5-4'
p3359
aS'mentax'
p3360
aS'mentax-tc'
p3361
aS'mepergan'
p3362
aS'meperidine and atropine sulfate'
p3363
aS'meperidine hydrochloride'
p3364
aS'meperidine hydrochloride preservative free'
p3365
aS'mephyton'
p3366
aS'mepivacaine hydrochloride'
p3367
aS'mepivacaine hydrochloride w/ levonordefrin'
p3368
aS'mepriam'
p3369
aS'mepro-aspirin'
p3370
aS'meprobamate'
p3371
aS'meprobamate and aspirin'
p3372
aS'mepron'
p3373
aS'meprospan'
p3374
aS'mercaptopurine'
p3375
aS'meretek ubt kit (w/ pranactin)'
p3376
aS'meridia'
p3377
aS'meropenem'
p3378
aS'meropenem and sodium chloride in duplex container'
p3379
aS'merrem'
p3380
aS'mersalyl-theophylline'
p3381
aS'mesalamine'
p3382
aS'mesantoin'
p3383
aS'mesna'
p3384
aS'mesnex'
p3385
aS'mestinon'
p3386
aS'metadate cd'
p3387
aS'metadate er'
p3388
aS'metaglip'
p3389
aS'metahydrin'
p3390
aS'metandren'
p3391
aS'metaproterenol sulfate'
p3392
aS'metaraminol bitartrate'
p3393
aS'metastron'
p3394
aS'metatensin #2'
p3395
aS'metatensin #4'
p3396
aS'metaxalone'
p3397
aS'metformin hydrochloride'
p3398
aS'methadone hydrochloride'
p3399
aS'methadone hydrochloride intensol'
p3400
aS'methadose'
p3401
aS'methampex'
p3402
aS'methamphetamine hydrochloride'
p3403
aS'methazolamide'
p3404
aS'methdilazine hydrochloride'
p3405
aS'methenamine hippurate'
p3406
aS'methergine'
p3407
aS'methimazole'
p3408
aS'methocarbamol'
p3409
aS'methocarbamol and aspirin'
p3410
aS'methotrexate lpf'
p3411
aS'methotrexate preservative free'
p3412
aS'methotrexate sodium'
p3413
aS'methotrexate sodium preservative free'
p3414
aS'methoxsalen'
p3415
aS'methscopolamine bromide'
p3416
aS'methyclothiazide'
p3417
aS'methyclothiazide and deserpidine'
p3418
aS'methyldopa'
p3419
aS'methyldopa and chlorothiazide'
p3420
aS'methyldopa and hydrochlorothiazide'
p3421
aS'methyldopate hydrochloride'
p3422
aS'methylergonovine maleate'
p3423
aS'methylin'
p3424
aS'methylin er'
p3425
aS'methylphenidate hydrochloride'
p3426
aS'methylprednisolone'
p3427
aS'methylprednisolone acetate'
p3428
aS'methylprednisolone sodium succinate'
p3429
aS'methyltestosterone'
p3430
aS'meti-derm'
p3431
aS'meticortelone'
p3432
aS'meticorten'
p3433
aS'metimyd'
p3434
aS'metipranolol'
p3435
aS'metoclopramide'
p3436
aS'metoclopramide hydrochloride'
p3437
aS'metoclopramide intensol'
p3438
aS'metolazone'
p3439
aS'metopirone'
p3440
aS'metoprolol succinate'
p3441
aS'metoprolol tartrate'
p3442
aS'metoprolol tartrate and hydrochlorothiazide'
p3443
aS'metozolv odt'
p3444
aS'metra'
p3445
aS'metreton'
p3446
aS'metro i.v.'
p3447
aS'metro i.v. in plastic container'
p3448
aS'metrocream'
p3449
aS'metrodin'
p3450
aS'metrogel'
p3451
aS'metrogel-vaginal'
p3452
aS'metrolotion'
p3453
aS'metromidol'
p3454
aS'metronidazole'
p3455
aS'metronidazole hydrochloride'
p3456
aS'metronidazole in plastic container'
p3457
aS'metubine iodide'
p3458
aS'metvixia'
p3459
aS'mevacor'
p3460
aS'mexate'
p3461
aS'mexate-aq'
p3462
aS'mexate-aq preserved'
p3463
aS'mexiletine hydrochloride'
p3464
aS'mexitil'
p3465
aS'mezlin'
p3466
aS'miacalcin'
p3467
aS'micardis'
p3468
aS'micardis hct'
p3469
aS'miconazole 3'
p3470
aS'miconazole 3 combination pack'
p3471
aS'miconazole 7'
p3472
aS'miconazole 7 combination pack'
p3473
aS'miconazole nitrate'
p3474
aS'miconazole nitrate combination pack'
p3475
aS'micort-hc'
p3476
aS'micrainin'
p3477
aS'micro-k'
p3478
aS'micro-k 10'
p3479
aS'micro-k ls'
p3480
aS'microderm'
p3481
aS'microgestin 1.5/30'
p3482
aS'microgestin 1/20'
p3483
aS'microgestin fe 1.5/30'
p3484
aS'microgestin fe 1/20'
p3485
aS'microlite'
p3486
aS'micronase'
p3487
aS'micronor'
p3488
aS'microsul'
p3489
aS'microzide'
p3490
aS'midamor'
p3491
aS'midazolam hydrochloride'
p3492
aS'midazolam hydrochloride preservative free'
p3493
aS'midodrine hydrochloride'
p3494
aS'midol'
p3495
aS'midol liquid gels'
p3496
aS'midozalam hydrochloride'
p3497
aS'mifeprex'
p3498
aS'migergot'
p3499
aS'miglitol'
p3500
aS'migranal'
p3501
aS'milontin'
p3502
aS'milophene'
p3503
aS'milprem-200'
p3504
aS'milprem-400'
p3505
aS'milrinone lactate'
p3506
aS'milrinone lactate in dextrose 5%'
p3507
aS'milrinone lactate in dextrose 5% in plastic container'
p3508
aS'milrinone lactate in plastic container'
p3509
aS'miltown'
p3510
aS'minastrin 24 fe'
p3511
aS'minipress'
p3512
aS'minipress xl'
p3513
aS'minirin'
p3514
aS'minitec'
p3515
aS'minitran'
p3516
aS'minivelle'
p3517
aS'minizide'
p3518
aS'minocin'
p3519
aS'minocycline hydrochloride'
p3520
aS'minodyl'
p3521
aS'minoxidil'
p3522
aS'minoxidil (for men)'
p3523
aS'minoxidil (for women)'
p3524
aS'minoxidil extra strength (for men)'
p3525
aS'mintezol'
p3526
aS'miochol'
p3527
aS'miochol-e'
p3528
aS'miostat'
p3529
aS'miradon'
p3530
aS'miralax'
p3531
aS'miraluma'
p3532
aS'mirapex'
p3533
aS'mirapex er'
p3534
aS'mircette'
p3535
aS'mirena'
p3536
aS'mirtazapine'
p3537
aS'mirvaso'
p3538
aS'misoprostol'
p3539
aS'mithracin'
p3540
aS'mitigare'
p3541
aS'mitomycin'
p3542
aS'mitosol'
p3543
aS'mitoxantrone hydrochloride'
p3544
aS'mitozytrex'
p3545
aS'mivacron'
p3546
aS'mivacron in dextrose 5% in plastic container'
p3547
aS'mivacurium chloride'
p3548
aS'mixtard human 70/30'
p3549
aS'moban'
p3550
aS'mobic'
p3551
aS'moctanin'
p3552
aS'modafinil'
p3553
aS'moderil'
p3554
aS'modicon 21'
p3555
aS'modicon 28'
p3556
aS'modrastane'
p3557
aS'moduretic 5-50'
p3558
aS'moexipril hydrochloride'
p3559
aS'moexipril hydrochloride and hydrochlorothiazide'
p3560
aS'moexipril hydrochloride and hydrocholrothiazide'
p3561
aS'molindone hydrochloride'
p3562
aS'mometasone furoate'
p3563
aS'monistat'
p3564
aS'monistat 1 combination pack'
p3565
aS'monistat 3'
p3566
aS'monistat 3 combination pack'
p3567
aS'monistat 3 combination pack (prefilled)'
p3568
aS'monistat 5'
p3569
aS'monistat 7'
p3570
aS'monistat 7 combination pack'
p3571
aS'monistat-3 combination pack'
p3572
aS'monistat-derm'
p3573
aS'mono-linyah'
p3574
aS'monobasic sodium phosphate and dibasic sodium phosphate'
p3575
aS'monocid'
p3576
aS'monodox'
p3577
aS'monoket'
p3578
aS'monopril'
p3579
aS'monopril-hct'
p3580
aS'montelukast sodium'
p3581
aS'monurol'
p3582
aS'morphine sulfate'
p3583
aS'motofen'
p3584
aS'motofen half-strength'
p3585
aS'motrin'
p3586
aS'motrin ib'
p3587
aS'motrin migraine pain'
p3588
aS'movantik'
p3589
aS'moviprep'
p3590
aS'moxam'
p3591
aS'moxatag'
p3592
aS'moxeza'
p3593
aS'moxifloxacin hydrochloride'
p3594
aS'mozobil'
p3595
aS'mpi dmsa kidney reagent'
p3596
aS'mpi dtpa kit - chelate'
p3597
aS'mpi indium dtpa in 111'
p3598
aS'mpi krypton 81m generator'
p3599
aS'mpi stannous diphosphonate'
p3600
aS'ms contin'
p3601
aS'mucinex'
p3602
aS'mucinex d'
p3603
aS'mucinex dm'
p3604
aS'mucomyst'
p3605
aS'mucomyst w/ isoproterenol'
p3606
aS'mucosil-10'
p3607
aS'mucosil-20'
p3608
aS'multaq'
p3609
aS'multifuge'
p3610
aS'multihance'
p3611
aS'multihance multipack'
p3612
aS'mupirocin'
p3613
aS'muse'
p3614
aS'mustargen'
p3615
aS'mutamycin'
p3616
aS'mvc plus'
p3617
aS'myambutol'
p3618
aS'mycamine'
p3619
aS'mycelex'
p3620
aS'mycelex-7'
p3621
aS'mycelex-7 combination pack'
p3622
aS'mycelex-g'
p3623
aS'mychel-s'
p3624
aS'mycifradin'
p3625
aS'mycitracin'
p3626
aS'myco-triacet ii'
p3627
aS'mycobutin'
p3628
aS'mycolog-ii'
p3629
aS'mycophenolate mofetil'
p3630
aS'mycophenolic acid'
p3631
aS'mycostatin'
p3632
aS'mydriacyl'
p3633
aS'mydriafair'
p3634
aS'myfed'
p3635
aS'myfortic'
p3636
aS'myidyl'
p3637
aS'mykacet'
p3638
aS'mykinac'
p3639
aS'mykrox'
p3640
aS'mylaxen'
p3641
aS'myleran'
p3642
aS'mylotarg'
p3643
aS'mymethazine fortis'
p3644
aS'myorisan'
p3645
aS'myotonachol'
p3646
aS'myoview'
p3647
aS'myoview 30ml'
p3648
aS'myrbetriq'
p3649
aS'mysoline'
p3650
aS'mytelase'
p3651
aS'mytrex a'
p3652
aS'mytrex f'
p3653
aS'myzilra'
p3654
aS'n.e.e. 1/35 21'
p3655
aS'n.e.e. 1/35 28'
p3656
aS'nabumetone'
p3657
aS'nadolol'
p3658
aS'nadolol and bendroflumethiazide'
p3659
aS'nafazair'
p3660
aS'nafcillin sodium'
p3661
aS'naftin'
p3662
aS'nalbuphine'
p3663
aS'nalbuphine hydrochloride'
p3664
aS'nalfon'
p3665
aS'nalidixic acid'
p3666
aS'nallpen'
p3667
aS'nallpen in plastic container'
p3668
aS'naloxone'
p3669
aS'naloxone hydrochloride'
p3670
aS'naloxone hydrochloride and pentazocine hydrochloride'
p3671
aS'naltrexone hydrochloride'
p3672
aS'namenda'
p3673
aS'namenda xr'
p3674
aS'namzaric'
p3675
aS'nandrolone decanoate'
p3676
aS'nandrolone phenpropionate'
p3677
aS'naphazoline hydrochloride'
p3678
aS'naphazoline hydrochloride and pheniramine maleate'
p3679
aS'naphcon forte'
p3680
aS'naphcon-a'
p3681
aS'naprelan'
p3682
aS'naprosyn'
p3683
aS'naproxen'
p3684
aS'naproxen and esomeprazole magnesium'
p3685
aS'naproxen sodium'
p3686
aS'naproxen sodium and pseudoephedrine hydrochloride'
p3687
aS'naqua'
p3688
aS'naquival'
p3689
aS'naratriptan'
p3690
aS'narcan'
p3691
aS'nardil'
p3692
aS'naropin'
p3693
aS'nasacort'
p3694
aS'nasacort allergy 24 hour'
p3695
aS'nasacort hfa'
p3696
aS'nasalcrom'
p3697
aS'nasalide'
p3698
aS'nasarel'
p3699
aS'nascobal'
p3700
aS'nasonex'
p3701
aS'natacyn'
p3702
aS'natazia'
p3703
aS'nateglinide'
p3704
aS'natesto'
p3705
aS'natrecor'
p3706
aS'natroba'
p3707
aS'natural estrogenic substance-estrone'
p3708
aS'naturetin-10'
p3709
aS'naturetin-2.5'
p3710
aS'naturetin-5'
p3711
aS'navane'
p3712
aS'navelbine'
p3713
aS'navstel'
p3714
aS'nebcin'
p3715
aS'nebivolol hydrochloride'
p3716
aS'nebupent'
p3717
aS'nedocromil sodium'
p3718
aS'nefazodone hydrochloride'
p3719
aS'neggram'
p3720
aS'nembutal'
p3721
aS'nembutal sodium'
p3722
aS'neo tect kit'
p3723
aS'neo-cort-dome'
p3724
aS'neo-cortef'
p3725
aS'neo-delta-cortef'
p3726
aS'neo-fradin'
p3727
aS'neo-hydeltrasol'
p3728
aS'neo-medrol'
p3729
aS'neo-medrol acetate'
p3730
aS'neo-polycin'
p3731
aS'neo-rx'
p3732
aS'neo-synalar'
p3733
aS'neobiotic'
p3734
aS'neodecadron'
p3735
aS'neomycin & polymyxin b sulfates & bacitracin zinc & hydrocortisone'
p3736
aS'neomycin and polymyxin b sulfate'
p3737
aS'neomycin and polymyxin b sulfates and bacitracin zinc'
p3738
aS'neomycin and polymyxin b sulfates and dexamethasone'
p3739
aS'neomycin and polymyxin b sulfates and gramicidin'
p3740
aS'neomycin and polymyxin b sulfates and hydrocortisone'
p3741
aS'neomycin and polymyxin b sulfates, bacitracin zinc and hydrocortisone'
p3742
aS'neomycin sulfate'
p3743
aS'neomycin sulfate and dexamethasone sodium phosphate'
p3744
aS'neomycin sulfate and polymyxin b sulfate gramicidin'
p3745
aS'neomycin sulfate, polymyxin b sulfate & hydrocortisone'
p3746
aS'neomycin sulfate-dexamethasone sodium phosphate'
p3747
aS'neomycin sulfate-polymyxin b sulfate-hydrocortisone'
p3748
aS'neomycin sulfate-triamcinolone acetonide'
p3749
aS'neopap'
p3750
aS'neopasalate'
p3751
aS'neopham 6.4%'
p3752
aS'neoprofen'
p3753
aS'neoral'
p3754
aS'neosar'
p3755
aS'neoscan'
p3756
aS'neosporin'
p3757
aS'neosporin g.u. irrigant'
p3758
aS'neostigmine methylsulfate'
p3759
aS'neothylline'
p3760
aS'neotrizine'
p3761
aS'nephramine 5.4%'
p3762
aS'nephroflow'
p3763
aS'neptazane'
p3764
aS'nesacaine'
p3765
aS'nesacaine-mpf'
p3766
aS'nesina'
p3767
aS'netromycin'
p3768
aS'neupro'
p3769
aS'neuraceq'
p3770
aS'neuramate'
p3771
aS'neurolite'
p3772
aS'neurontin'
p3773
aS'neutrexin'
p3774
aS'nevanac'
p3775
aS'nevirapine'
p3776
aS'nexavar'
p3777
aS'nexcede'
p3778
aS'nexium'
p3779
aS'nexium 24hr'
p3780
aS'nexium iv'
p3781
aS'nexplanon'
p3782
aS'nexterone'
p3783
aS'niacin'
p3784
aS'niacor'
p3785
aS'niaspan'
p3786
aS'niaspan titration starter pack'
p3787
aS'nicardipine hydrochloride'
p3788
aS'niclocide'
p3789
aS'nicoderm cq'
p3790
aS'nicolar'
p3791
aS'nicorette'
p3792
aS'nicorette (mint)'
p3793
aS'nicotine'
p3794
aS'nicotine polacrilex'
p3795
aS'nicotrol'
p3796
aS'nifedipine'
p3797
aS'nikki'
p3798
aS'nilandron'
p3799
aS'nilstat'
p3800
aS'nimbex'
p3801
aS'nimbex preservative free'
p3802
aS'nimodipine'
p3803
aS'nimotop'
p3804
aS'nipent'
p3805
aS'nipride'
p3806
aS'niravam'
p3807
aS'nisoldipine'
p3808
aS'nithiodote'
p3809
aS'nitro iv'
p3810
aS'nitro-bid'
p3811
aS'nitro-dur'
p3812
aS'nitrofurantoin'
p3813
aS'nitrofurantoin (monohydrate/macrocrystals)'
p3814
aS'nitrofurantoin macrocrystalline'
p3815
aS'nitrofurazone'
p3816
aS'nitroglycerin'
p3817
aS'nitroglycerin in dextrose 5%'
p3818
aS'nitrol'
p3819
aS'nitrolingual'
p3820
aS'nitrolingual pumpspray'
p3821
aS'nitromist'
p3822
aS'nitronal'
p3823
aS'nitropress'
p3824
aS'nitrostat'
p3825
aS'nix'
p3826
aS'nizatidine'
p3827
aS'nizoral'
p3828
aS'nizoral a-d'
p3829
aS'nogenic hc'
p3830
aS'noludar'
p3831
aS'nolvadex'
p3832
aS'nor-qd'
p3833
aS'norcept-e 1/35 21'
p3834
aS'norcept-e 1/35 28'
p3835
aS'norcet'
p3836
aS'norco'
p3837
aS'norcuron'
p3838
aS'nordette-21'
p3839
aS'nordette-28'
p3840
aS'norditropin'
p3841
aS'norditropin flexpro'
p3842
aS'norditropin nordiflex'
p3843
aS'norepinephrine bitartrate'
p3844
aS'norethin 1/35e-21'
p3845
aS'norethin 1/35e-28'
p3846
aS'norethin 1/50m-21'
p3847
aS'norethin 1/50m-28'
p3848
aS'norethindrone'
p3849
aS'norethindrone acetate'
p3850
aS'norethindrone acetate and ethinyl estradiol'
p3851
aS'norethindrone acetate and ethinyl estradiol and ferrous fumarate'
p3852
aS'norethindrone and ethinyl estradiol'
p3853
aS'norethindrone and ethinyl estradiol (10/11)'
p3854
aS'norethindrone and ethinyl estradiol (7/14)'
p3855
aS'norethindrone and ethinyl estradiol and ferrous fumarate'
p3856
aS'norethindrone and mestranol'
p3857
aS'norflex'
p3858
aS'norgesic'
p3859
aS'norgesic forte'
p3860
aS'norgestimate and ethinyl estradiol'
p3861
aS'norinyl'
p3862
aS'norinyl 1+35 21-day'
p3863
aS'norinyl 1+35 28-day'
p3864
aS'norinyl 1+50 21-day'
p3865
aS'norinyl 1+50 28-day'
p3866
aS'norinyl 1+80 21-day'
p3867
aS'norinyl 1+80 28-day'
p3868
aS'norisodrine'
p3869
aS'norisodrine aerotrol'
p3870
aS'noritate'
p3871
aS'norlestrin 21 1/50'
p3872
aS'norlestrin 21 2.5/50'
p3873
aS'norlestrin 28 1/50'
p3874
aS'norlestrin fe 1/50'
p3875
aS'norlestrin fe 2.5/50'
p3876
aS'norlutate'
p3877
aS'norlutin'
p3878
aS'normiflo'
p3879
aS'normocarb hf 25'
p3880
aS'normocarb hf 35'
p3881
aS'normodyne'
p3882
aS'normosol-m and dextrose 5% in plastic container'
p3883
aS'normosol-r and dextrose 5% in plastic container'
p3884
aS'normosol-r in plastic container'
p3885
aS'normozide'
p3886
aS'noroxin'
p3887
aS'norpace'
p3888
aS'norpace cr'
p3889
aS'norplant'
p3890
aS'norplant system in plastic container'
p3891
aS'norpramin'
p3892
aS'norquest fe'
p3893
aS'northera'
p3894
aS'nortrel 0.5/35-21'
p3895
aS'nortrel 0.5/35-28'
p3896
aS'nortrel 1/35-21'
p3897
aS'nortrel 1/35-28'
p3898
aS'nortrel 7/7/7'
p3899
aS'nortriptyline hydrochloride'
p3900
aS'norvasc'
p3901
aS'norvir'
p3902
aS'novafed'
p3903
aS'novamine 11.4%'
p3904
aS'novamine 15%'
p3905
aS'novamine 15% sulfite free in plastic container'
p3906
aS'novamine 8.5%'
p3907
aS'novantrone'
p3908
aS'novocain'
p3909
aS'novolin 70/30'
p3910
aS'novolin l'
p3911
aS'novolin n'
p3912
aS'novolin r'
p3913
aS'novolog'
p3914
aS'novolog flexpen'
p3915
aS'novolog flextouch'
p3916
aS'novolog innolet'
p3917
aS'novolog mix 50/50'
p3918
aS'novolog mix 70/30'
p3919
aS'novolog mix 70/30 flexpen'
p3920
aS'novolog mix 70/30 penfill'
p3921
aS'novolog penfill'
p3922
aS'novothyrox'
p3923
aS'novrad'
p3924
aS'noxafil'
p3925
aS'nph iletin i (beef-pork)'
p3926
aS'nph iletin ii'
p3927
aS'nph iletin ii (pork)'
p3928
aS'nph insulin'
p3929
aS'nph purified pork isophane insulin'
p3930
aS'nubain'
p3931
aS'nucynta'
p3932
aS'nucynta er'
p3933
aS'nuedexta'
p3934
aS'nulytely'
p3935
aS'nulytely-flavored'
p3936
aS'numorphan'
p3937
aS'nuprin'
p3938
aS'nuromax'
p3939
aS'nutracort'
p3940
aS'nutrestore'
p3941
aS'nutrilipid 10%'
p3942
aS'nutrilipid 20%'
p3943
aS'nutropin'
p3944
aS'nutropin aq'
p3945
aS'nutropin aq pen'
p3946
aS'nutropin depot'
p3947
aS'nuvaring'
p3948
aS'nuvessa'
p3949
aS'nuvigil'
p3950
aS'nydrazid'
p3951
aS'nymalize'
p3952
aS'nysert'
p3953
aS'nystaform'
p3954
aS'nystatin'
p3955
aS'nystatin and triamcinolone acetonide'
p3956
aS'nystatin-triamcinolone acetonide'
p3957
aS'nystex'
p3958
aS'nystop'
p3959
aS'obestin-30'
p3960
aS'obredon'
p3961
aS'oby-trim'
p3962
aS'ocl'
p3963
aS'octocaine'
p3964
aS'octreoscan'
p3965
aS'octreotide acetate'
p3966
aS'octreotide acetate (preservative free)'
p3967
aS'ocuclear'
p3968
aS'ocufen'
p3969
aS'ocuflox'
p3970
aS'ocumycin'
p3971
aS'ocupress'
p3972
aS'ocusert pilo-20'
p3973
aS'ocusert pilo-40'
p3974
aS'ocusulf-10'
p3975
aS'ocusulf-30'
p3976
aS'ofev'
p3977
aS'ofirmev'
p3978
aS'ofloxacin'
p3979
aS'oforta'
p3980
aS'ogen'
p3981
aS'ogen .625'
p3982
aS'ogen 1.25'
p3983
aS'ogen 2.5'
p3984
aS'ogen 5'
p3985
aS'ogestrel 0.5/50-21'
p3986
aS'ogestrel 0.5/50-28'
p3987
aS'olanzapine'
p3988
aS'olanzapine and fluoxetine hydrochloride'
p3989
aS'oleptro'
p3990
aS'olopatadine hydrochloride'
p3991
aS'olux'
p3992
aS'olux e'
p3993
aS'olysio'
p3994
aS'omega-3-acid ethyl esters'
p3995
aS'omeprazole'
p3996
aS'omeprazole and clarithromycin and amoxicillin'
p3997
aS'omeprazole and sodium bicarbonate'
p3998
aS'omeprazole magnesium'
p3999
aS'omidria'
p4000
aS'omnaris'
p4001
aS'omnicef'
p4002
aS'omnipaque 140'
p4003
aS'omnipaque 180'
p4004
aS'omnipaque 210'
p4005
aS'omnipaque 240'
p4006
aS'omnipaque 300'
p4007
aS'omnipaque 350'
p4008
aS'omnipaque 70'
p4009
aS'omnipen (ampicillin)'
p4010
aS'omnipen-n'
p4011
aS'omnipred'
p4012
aS'omniscan'
p4013
aS'omnitrope'
p4014
aS'omontys'
p4015
aS'omontys preservative free'
p4016
aS'omtryg'
p4017
aS'ona-mast'
p4018
aS'oncovin'
p4019
aS'ondansetron'
p4020
aS'ondansetron hydrochloride'
p4021
aS'ondansetron hydrochloride and dextrose in plastic container'
p4022
aS'ondansetron hydrochloride and sodium chloride in plastic container'
p4023
aS'ondansetron hydrochloride preservative free'
p4024
aS'onexton'
p4025
aS'onfi'
p4026
aS'onglyza'
p4027
aS'onmel'
p4028
aS'onsolis'
p4029
aS'opana'
p4030
aS'opana er'
p4031
aS'opcicon one-step'
p4032
aS'opcon'
p4033
aS'opcon-a'
p4034
aS'ophthaine'
p4035
aS'ophthetic'
p4036
aS'ophthochlor'
p4037
aS'ophthocort'
p4038
aS'opsumit'
p4039
aS'opticrom'
p4040
aS'optimark'
p4041
aS'optimark in plastic container'
p4042
aS'optimine'
p4043
aS'optipranolol'
p4044
aS'optiray 160'
p4045
aS'optiray 240'
p4046
aS'optiray 300'
p4047
aS'optiray 320'
p4048
aS'optiray 350'
p4049
aS'optison'
p4050
aS'optivar'
p4051
aS'optomycin'
p4052
aS'ora-testryl'
p4053
aS'orabase hca'
p4054
aS'orabloc'
p4055
aS'oracea'
p4056
aS'oragrafin calcium'
p4057
aS'oragrafin sodium'
p4058
aS'oralone'
p4059
aS'oraltag'
p4060
aS'oramorph sr'
p4061
aS'orap'
p4062
aS'orapred'
p4063
aS'orapred odt'
p4064
aS'oraqix'
p4065
aS'orasone'
p4066
aS'oraverse'
p4067
aS'oravig'
p4068
aS'orbactiv'
p4069
aS'orenitram'
p4070
aS'oretic'
p4071
aS'oreticyl 25'
p4072
aS'oreticyl 50'
p4073
aS'oreticyl forte'
p4074
aS'oreton'
p4075
aS'oreton methyl'
p4076
aS'orfadin'
p4077
aS'orgaran'
p4078
aS'orgatrax'
p4079
aS'orinase'
p4080
aS'orinase diagnostic'
p4081
aS'orlaam'
p4082
aS'orlex'
p4083
aS'orlex hc'
p4084
aS'ornidyl'
p4085
aS'orphenadrine citrate'
p4086
aS'orphenadrine citrate, aspirin, and caffeine'
p4087
aS'orphengesic'
p4088
aS'orphengesic forte'
p4089
aS'orsythia'
p4090
aS'ortho cyclen-21'
p4091
aS'ortho cyclen-28'
p4092
aS'ortho evra'
p4093
aS'ortho tri-cyclen'
p4094
aS'ortho tri-cyclen lo'
p4095
aS'ortho-cept'
p4096
aS'ortho-est'
p4097
aS'ortho-novum 1/35-21'
p4098
aS'ortho-novum 1/35-28'
p4099
aS'ortho-novum 1/50 21'
p4100
aS'ortho-novum 1/50 28'
p4101
aS'ortho-novum 1/80 21'
p4102
aS'ortho-novum 1/80 28'
p4103
aS'ortho-novum 10-21'
p4104
aS'ortho-novum 10/11-21'
p4105
aS'ortho-novum 10/11-28'
p4106
aS'ortho-novum 2-21'
p4107
aS'ortho-novum 7/14-21'
p4108
aS'ortho-novum 7/14-28'
p4109
aS'ortho-novum 7/7/7-21'
p4110
aS'ortho-novum 7/7/7-28'
p4111
aS'orudis'
p4112
aS'orudis kt'
p4113
aS'oruvail'
p4114
aS'orvaten'
p4115
aS'oseni'
p4116
aS'osmitrol 10% in water'
p4117
aS'osmitrol 10% in water in plastic container'
p4118
aS'osmitrol 15% in water'
p4119
aS'osmitrol 15% in water in plastic container'
p4120
aS'osmitrol 20% in water'
p4121
aS'osmitrol 20% in water in plastic container'
p4122
aS'osmitrol 5% in water'
p4123
aS'osmitrol 5% in water in plastic container'
p4124
aS'osmoprep'
p4125
aS'osmovist 190'
p4126
aS'osmovist 240'
p4127
aS'osphena'
p4128
aS'osteolite'
p4129
aS'osteoscan'
p4130
aS'otezla'
p4131
aS'oticair'
p4132
aS'otobione'
p4133
aS'otobiotic'
p4134
aS'otocort'
p4135
aS'otrexup'
p4136
aS'ovcon-35'
p4137
aS'ovcon-50'
p4138
aS'ovide'
p4139
aS'ovidrel'
p4140
aS'ovral'
p4141
aS'ovral-28'
p4142
aS'ovrette'
p4143
aS'ovulen'
p4144
aS'ovulen-21'
p4145
aS'ovulen-28'
p4146
aS'oxacillin sodium'
p4147
aS'oxaliplatin'
p4148
aS'oxandrin'
p4149
aS'oxandrolone'
p4150
aS'oxaprozin'
p4151
aS'oxaydo'
p4152
aS'oxazepam'
p4153
aS'oxcarbazepine'
p4154
aS'oxilan-300'
p4155
aS'oxilan-350'
p4156
aS'oxistat'
p4157
aS'oxsoralen'
p4158
aS'oxsoralen-ultra'
p4159
aS'oxtellar xr'
p4160
aS'oxtriphylline'
p4161
aS'oxtriphylline pediatric'
p4162
aS'oxy-kesso-tetra'
p4163
aS'oxybutynin'
p4164
aS'oxybutynin chloride'
p4165
aS'oxycet'
p4166
aS'oxycodone 2.5/apap 500'
p4167
aS'oxycodone 5/apap 500'
p4168
aS'oxycodone and acetaminophen'
p4169
aS'oxycodone and aspirin'
p4170
aS'oxycodone and aspirin (half-strength)'
p4171
aS'oxycodone hydrochloride'
p4172
aS'oxycodone hydrochloride and acetaminophen'
p4173
aS'oxycodone hydrochloride and ibuprofen'
p4174
aS'oxycontin'
p4175
aS'oxylone'
p4176
aS'oxymorphone hydrochloride'
p4177
aS'oxyphenbutazone'
p4178
aS'oxytetracycline hydrochloride'
p4179
aS'oxytocin'
p4180
aS'oxytocin 10 usp units in dextrose 5%'
p4181
aS'oxytocin 20 usp units in dextrose 5%'
p4182
aS'oxytocin 5 usp units in dextrose 5%'
p4183
aS'oxytrol'
p4184
aS'oxytrol for women'
p4185
aS'ozurdex'
p4186
aS'p.a.s. sodium'
p4187
aS'pacerone'
p4188
aS'paclitaxel'
p4189
aS'pagitane'
p4190
aS'palladone'
p4191
aS'pamelor'
p4192
aS'pamidronate disodium'
p4193
aS'pamine'
p4194
aS'pamine forte'
p4195
aS'pancreaze'
p4196
aS'pancuronium bromide'
p4197
aS'pandel'
p4198
aS'panheprin'
p4199
aS'panixine disperdose'
p4200
aS'panmycin'
p4201
aS'panretin'
p4202
aS'pantopaque'
p4203
aS'pantoprazole sodium'
p4204
aS'panwarfin'
p4205
aS'papa-deine #3'
p4206
aS'papa-deine #4'
p4207
aS'paracaine'
p4208
aS'paracort'
p4209
aS'paradione'
p4210
aS'paraflex'
p4211
aS'parafon forte dsc'
p4212
aS'paragard t 380a'
p4213
aS'paraplatin'
p4214
aS'parasal'
p4215
aS'parasal sodium'
p4216
aS'parathar'
p4217
aS'parcopa'
p4218
aS'paredrine'
p4219
aS'paremyd'
p4220
aS'paricalcitol'
p4221
aS'parlodel'
p4222
aS'parnate'
p4223
aS'paroex'
p4224
aS'paromomycin sulfate'
p4225
aS'paroxetine'
p4226
aS'paroxetine hydrochloride'
p4227
aS'parsidol'
p4228
aS'paser'
p4229
aS'paskalium'
p4230
aS'pataday'
p4231
aS'patanase'
p4232
aS'patanol'
p4233
aS'pathilon'
p4234
aS'pathocil'
p4235
aS'pavulon'
p4236
aS'paxil'
p4237
aS'paxil cr'
p4238
aS'paxipam'
p4239
aS'pazeo'
p4240
aS'pbz'
p4241
aS'pbz-sr'
p4242
aS'pce'
p4243
aS'pediamycin'
p4244
aS'pediamycin 400'
p4245
aS'pediapred'
p4246
aS'pediatric advil'
p4247
aS'pediatric lta kit'
p4248
aS'pediazole'
p4249
aS'pediotic'
p4250
aS'peg 3350 and electrolytes'
p4251
aS'peg-3350, sodium chloride, sodium bicarbonate, potassium chloride and bisacodyl'
p4252
aS'peg-3350;potassium chloride;sodium bicarbonate;sodium chloride'
p4253
aS'peg-lyte'
p4254
aS'peganone'
p4255
aS'pemoline'
p4256
aS'pen-vee k'
p4257
aS'penapar-vk'
p4258
aS'penbritin'
p4259
aS'penbritin-s'
p4260
aS'penecort'
p4261
aS'penetrex'
p4262
aS'penicillin'
p4263
aS'penicillin g potassium'
p4264
aS'penicillin g potassium in plastic container'
p4265
aS'penicillin g procaine'
p4266
aS'penicillin g sodium'
p4267
aS'penicillin v potassium'
p4268
aS'penicillin-2'
p4269
aS'penicillin-vk'
p4270
aS'penlac'
p4271
aS'pennsaid'
p4272
aS'penntuss'
p4273
aS'pentacarinat'
p4274
aS'pentacef'
p4275
aS'pentam'
p4276
aS'pentamidine isethionate'
p4277
aS'pentasa'
p4278
aS'pentetate calcium trisodium'
p4279
aS'pentetate zinc trisodium'
p4280
aS"pentids '200'"
p4281
aS"pentids '250'"
p4282
aS"pentids '400'"
p4283
aS"pentids '800'"
p4284
aS'pentobarbital sodium'
p4285
aS'pentolair'
p4286
aS'pentostatin'
p4287
aS'pentothal'
p4288
aS'pentoxifylline'
p4289
aS'pentoxil'
p4290
aS'pepcid'
p4291
aS'pepcid ac'
p4292
aS'pepcid ac '
p4293
aS'pepcid complete'
p4294
aS'pepcid preservative free'
p4295
aS'pepcid preservative free in plastic container'
p4296
aS'pepcid rpd'
p4297
aS'peptavlon'
p4298
aS'perchloracap'
p4299
aS'percocet'
p4300
aS'percodan'
p4301
aS'percodan-demi'
p4302
aS'percorten'
p4303
aS'perforomist'
p4304
aS'pergolide mesylate'
p4305
aS'pergonal'
p4306
aS'periactin'
p4307
aS'peridex'
p4308
aS'perikabiven in plastic container'
p4309
aS'perindopril erbumine'
p4310
aS'periochip'
p4311
aS'periogard'
p4312
aS'periostat'
p4313
aS'permapen'
p4314
aS'permax'
p4315
aS'permethrin'
p4316
aS'permitil'
p4317
aS'perphenazine'
p4318
aS'perphenazine and amitriptyline hydrochloride'
p4319
aS'persantine'
p4320
aS'pertofrane'
p4321
aS'pertzye'
p4322
aS'pexeva'
p4323
aS'pfizer-e'
p4324
aS'pfizerpen'
p4325
aS'pfizerpen g'
p4326
aS'pfizerpen vk'
p4327
aS'pfizerpen-a'
p4328
aS'pfizerpen-as'
p4329
aS'pharmaseal scrub care'
p4330
aS'phenaphen w/ codeine no. 2'
p4331
aS'phenaphen w/ codeine no. 3'
p4332
aS'phenaphen w/ codeine no. 4'
p4333
aS'phenaphen-650 w/ codeine'
p4334
aS'phenazine'
p4335
aS'phenazine-35'
p4336
aS'phendimetrazine tartrate'
p4337
aS'phenelzine sulfate'
p4338
aS'phenergan'
p4339
aS'phenergan vc'
p4340
aS'phenergan vc w/ codeine'
p4341
aS'phenergan w/ codeine'
p4342
aS'phenetron'
p4343
aS'phenoxybenzamine hydrochloride'
p4344
aS'phentermine hydrochloride'
p4345
aS'phentermine resin 30'
p4346
aS'phentermine resin complex'
p4347
aS'phentolamine mesylate'
p4348
aS'phenurone'
p4349
aS'pheny-pas-tebamin'
p4350
aS'phenylbutazone'
p4351
aS'phenylephrine hydrochloride'
p4352
aS'phenylephrine hydrochloride and promethazine hydrochloride'
p4353
aS'phenytek'
p4354
aS'phenytex'
p4355
aS'phenytoin'
p4356
aS'phenytoin sodium'
p4357
aS'pherazine dm'
p4358
aS'pherazine vc'
p4359
aS'pherazine vc w/ codeine'
p4360
aS'pherazine w/ codeine'
p4361
aS'philith'
p4362
aS'phiso-scrub'
p4363
aS'phisohex'
p4364
aS'phoslo'
p4365
aS'phoslo gelcaps'
p4366
aS'phoslyra'
p4367
aS'phosphocol p32'
p4368
aS'phospholine iodide'
p4369
aS'phosphotec'
p4370
aS'phosphotope'
p4371
aS'photofrin'
p4372
aS'phoxillum b22k 4/0 in plastic container'
p4373
aS'phoxillum bk 4/2.5 in plastic container'
p4374
aS'phrenilin'
p4375
aS'phrenilin forte'
p4376
aS'phrenilin with caffeine and codeine'
p4377
aS'phyllocontin'
p4378
aS'physiolyte in plastic container'
p4379
aS'physiosol in plastic container'
p4380
aS'physiosol ph 7.4 in plastic container'
p4381
aS'phytonadione'
p4382
aS'picato'
p4383
aS'pilocarpine hydrochloride'
p4384
aS'pilopine hs'
p4385
aS'pimtrea'
p4386
aS'pindac'
p4387
aS'pindolol'
p4388
aS'pioglitazone hydrochloride'
p4389
aS'pioglitazone hydrochloride and glimepiride'
p4390
aS'pioglitazone hydrochloride and metformin hydrochloride'
p4391
aS'piperacillin'
p4392
aS'piperacillin and tazobactam'
p4393
aS'piperazine citrate'
p4394
aS'pipracil'
p4395
aS'pirmella 1/35'
p4396
aS'pirmella 7/7/7'
p4397
aS'piroxicam'
p4398
aS'pitocin'
p4399
aS'pitressin tannate'
p4400
aS'placidyl'
p4401
aS'plan b'
p4402
aS'plan b one-step'
p4403
aS'plaquenil'
p4404
aS'plasma-lyte 148 and dextrose 5% in plastic container'
p4405
aS'plasma-lyte 148 in water in plastic container'
p4406
aS'plasma-lyte 56 and dextrose 5% in plastic container'
p4407
aS'plasma-lyte 56 in plastic container'
p4408
aS'plasma-lyte a in plastic container'
p4409
aS'plasma-lyte m and dextrose 5% in plastic container'
p4410
aS'plasma-lyte r in plastic container'
p4411
aS'platinol'
p4412
aS'platinol-aq'
p4413
aS'plavix'
p4414
aS'plegine'
p4415
aS'plegisol in plastic container'
p4416
aS'plenaxis'
p4417
aS'plendil'
p4418
aS'pletal'
p4419
aS'pliaglis'
p4420
aS'pmb 200'
p4421
aS'pmb 400'
p4422
aS'podofilox'
p4423
aS'polaramine'
p4424
aS'polocaine'
p4425
aS'polocaine w/ levonordefrin'
p4426
aS'polocaine-mpf'
p4427
aS'poly-pred'
p4428
aS'poly-rx'
p4429
aS'polycillin'
p4430
aS'polycillin-n'
p4431
aS'polycillin-prb'
p4432
aS'polyethylene glycol 3350'
p4433
aS'polyethylene glycol 3350 and electrolytes'
p4434
aS'polymox'
p4435
aS'polymycin b sulfate'
p4436
aS'polymyxin b sulfate'
p4437
aS'polysporin'
p4438
aS'polytrim'
p4439
aS'pomalyst'
p4440
aS'ponstel'
p4441
aS'portalac'
p4442
aS'portia-21'
p4443
aS'portia-28'
p4444
aS'potassium acetate in plastic container'
p4445
aS'potassium aminosalicylate'
p4446
aS'potassium chloride'
p4447
aS'potassium chloride 0.037% in dextrose 10% and sodium chloride 0.2% in plastic container'
p4448
aS'potassium chloride 0.037% in dextrose 10% and sodium chloride 0.45% in plastic container'
p4449
aS'potassium chloride 0.037% in dextrose 10% and sodium chloride 0.9% in plastic container'
p4450
aS'potassium chloride 0.037% in dextrose 5% and sodium chloride 0.11% in plastic container'
p4451
aS'potassium chloride 0.037% in dextrose 5% and sodium chloride 0.2% in plastic container'
p4452
aS'potassium chloride 0.037% in dextrose 5% and sodium chloride 0.33% in plastic container'
p4453
aS'potassium chloride 0.037% in dextrose 5% and sodium chloride 0.45% in plastic container'
p4454
aS'potassium chloride 0.037% in dextrose 5% and sodium chloride 0.9% in plastic container'
p4455
aS'potassium chloride 0.037% in dextrose 5% in plastic container'
p4456
aS'potassium chloride 0.037% in sodium chloride 0.9% in plastic container'
p4457
aS'potassium chloride 0.075% in dextrose 10% and sodium chloride 0.2% in plastic container'
p4458
aS'potassium chloride 0.075% in dextrose 10% and sodium chloride 0.45% in plastic container'
p4459
aS'potassium chloride 0.075% in dextrose 10% and sodium chloride 0.9% in plastic container'
p4460
aS'potassium chloride 0.075% in dextrose 3.3% and sodium chloride 0.3% in plastic container'
p4461
aS'potassium chloride 0.075% in dextrose 5% and sodium chloride 0.11% in plastic container'
p4462
aS'potassium chloride 0.075% in dextrose 5% and sodium chloride 0.2% in plastic container'
p4463
aS'potassium chloride 0.075% in dextrose 5% and sodium chloride 0.33% in plastic container'
p4464
aS'potassium chloride 0.075% in dextrose 5% and sodium chloride 0.45% in plastic container'
p4465
aS'potassium chloride 0.075% in dextrose 5% and sodium chloride 0.9% in plastic container'
p4466
aS'potassium chloride 0.075% in dextrose 5% in plastic container'
p4467
aS'potassium chloride 0.075% in sodium chloride 0.9% in plastic container'
p4468
aS'potassium chloride 0.11% in dextrose 10% and sodium chloride 0.2% in plastic container'
p4469
aS'potassium chloride 0.11% in dextrose 10% and sodium chloride 0.45% in plastic container'
p4470
aS'potassium chloride 0.11% in dextrose 10% and sodium chloride 0.9% in plastic container'
p4471
aS'potassium chloride 0.11% in dextrose 3.3% and sodium chloride 0.3% in plastic container'
p4472
aS'potassium chloride 0.11% in dextrose 5% and sodium chloride 0.11% in plastic container'
p4473
aS'potassium chloride 0.11% in dextrose 5% and sodium chloride 0.2% in plastic container'
p4474
aS'potassium chloride 0.11% in dextrose 5% and sodium chloride 0.33% in plastic container'
p4475
aS'potassium chloride 0.11% in dextrose 5% and sodium chloride 0.45% in plastic container'
p4476
aS'potassium chloride 0.11% in dextrose 5% and sodium chloride 0.9% in plastic container'
p4477
aS'potassium chloride 0.11% in dextrose 5% in plastic container'
p4478
aS'potassium chloride 0.11% in sodium chloride 0.9% in plastic container'
p4479
aS'potassium chloride 0.149% in sodium chloride 0.45% in plastic container'
p4480
aS'potassium chloride 0.15% in dextrose 10% and sodium chloride 0.2% in plastic container'
p4481
aS'potassium chloride 0.15% in dextrose 10% and sodium chloride 0.45% in plastic container'
p4482
aS'potassium chloride 0.15% in dextrose 10% and sodium chloride 0.9% in plastic container'
p4483
aS'potassium chloride 0.15% in dextrose 3.3% and sodium chloride 0.3% in plastic container'
p4484
aS'potassium chloride 0.15% in dextrose 5% and sodium chloride 0.11% in plastic container'
p4485
aS'potassium chloride 0.15% in dextrose 5% and sodium chloride 0.2% in plastic container'
p4486
aS'potassium chloride 0.15% in dextrose 5% and sodium chloride 0.33% in plastic container'
p4487
aS'potassium chloride 0.15% in dextrose 5% and sodium chloride 0.45% in plastic container'
p4488
aS'potassium chloride 0.15% in dextrose 5% and sodium chloride 0.9% in plastic container'
p4489
aS'potassium chloride 0.15% in dextrose 5% in plastic container'
p4490
aS'potassium chloride 0.15% in sodium chloride 0.45% in plastic container'
p4491
aS'potassium chloride 0.15% in sodium chloride 0.9% in plastic container'
p4492
aS'potassium chloride 0.22% in dextrose 10% and sodium chloride 0.2% in plastic container'
p4493
aS'potassium chloride 0.22% in dextrose 10% and sodium chloride 0.45% in plastic container'
p4494
aS'potassium chloride 0.22% in dextrose 10% and sodium chloride 0.9% in plastic container'
p4495
aS'potassium chloride 0.22% in dextrose 3.3% and sodium chloride 0.3% in plastic container'
p4496
aS'potassium chloride 0.22% in dextrose 5% and sodium chloride 0.11% in plastic container'
p4497
aS'potassium chloride 0.22% in dextrose 5% and sodium chloride 0.2% in plastic container'
p4498
aS'potassium chloride 0.22% in dextrose 5% and sodium chloride 0.33% in plastic container'
p4499
aS'potassium chloride 0.22% in dextrose 5% and sodium chloride 0.45% in plastic container'
p4500
aS'potassium chloride 0.22% in dextrose 5% and sodium chloride 0.9% in plastic container'
p4501
aS'potassium chloride 0.22% in dextrose 5% in plastic container'
p4502
aS'potassium chloride 0.22% in sodium chloride 0.9% in plastic container'
p4503
aS'potassium chloride 0.224% in sodium chloride 0.9%'
p4504
aS'potassium chloride 0.3% and sodium chloride 0.9% in plastic container'
p4505
aS'potassium chloride 0.3% in dextrose 10% and sodium chloride 0.2% in plastic container'
p4506
aS'potassium chloride 0.3% in dextrose 10% and sodium chloride 0.45% in plastic container'
p4507
aS'potassium chloride 0.3% in dextrose 10% and sodium chloride 0.9% in plastic container'
p4508
aS'potassium chloride 0.3% in dextrose 3.3% and sodium chloride 0.3% in plastic container'
p4509
aS'potassium chloride 0.3% in dextrose 5% and sodium chloride 0.11% in plastic container'
p4510
aS'potassium chloride 0.3% in dextrose 5% and sodium chloride 0.2% in plastic container'
p4511
aS'potassium chloride 0.3% in dextrose 5% and sodium chloride 0.33% in plastic container'
p4512
aS'potassium chloride 0.3% in dextrose 5% and sodium chloride 0.45% in plastic container'
p4513
aS'potassium chloride 0.3% in dextrose 5% and sodium chloride 0.9% in plastic container'
p4514
aS'potassium chloride 0.3% in dextrose 5% in plastic container'
p4515
aS'potassium chloride 0.3% in sodium chloride 0.9% in plastic container'
p4516
aS"potassium chloride 10meq in dextrose 5% and lactated ringer's in plastic container"
p4517
aS'potassium chloride 10meq in dextrose 5% and sodium chloride 0.225% in plastic container'
p4518
aS'potassium chloride 10meq in dextrose 5% and sodium chloride 0.3% in plastic container'
p4519
aS'potassium chloride 10meq in dextrose 5% and sodium chloride 0.45% in plastic container'
p4520
aS'potassium chloride 10meq in dextrose 5% and sodium chloride 0.9% in plastic container'
p4521
aS'potassium chloride 10meq in plastic container'
p4522
aS"potassium chloride 15meq in dextrose 5% and lactated ringer's in plastic container"
p4523
aS'potassium chloride 15meq in dextrose 5% and sodium chloride 0.225% in plastic container'
p4524
aS'potassium chloride 15meq in dextrose 5% and sodium chloride 0.3% in plastic container'
p4525
aS'potassium chloride 15meq in dextrose 5% and sodium chloride 0.45% in plastic container'
p4526
aS'potassium chloride 15meq in dextrose 5% and sodium chloride 0.9% in plastic container'
p4527
aS"potassium chloride 20meq in dextrose 5% and lactated ringer's in plastic container"
p4528
aS'potassium chloride 20meq in dextrose 5% and sodium chloride 0.225% in plastic container'
p4529
aS'potassium chloride 20meq in dextrose 5% and sodium chloride 0.3% in plastic container'
p4530
aS'potassium chloride 20meq in dextrose 5% and sodium chloride 0.45% in plastic container'
p4531
aS'potassium chloride 20meq in dextrose 5% and sodium chloride 0.9% in plastic container'
p4532
aS'potassium chloride 20meq in dextrose 5% in plastic container'
p4533
aS'potassium chloride 20meq in dextrose 5% in sodium chloride 0.3% in plastic container'
p4534
aS'potassium chloride 20meq in plastic container'
p4535
aS'potassium chloride 20meq in sodium chloride 0.9% in plastic container'
p4536
aS"potassium chloride 30meq in dextrose 5% and lactated ringer's in plastic container"
p4537
aS'potassium chloride 30meq in dextrose 5% and sodium chloride 0.225% in plastic container'
p4538
aS'potassium chloride 30meq in dextrose 5% and sodium chloride 0.3% in plastic container'
p4539
aS'potassium chloride 30meq in dextrose 5% and sodium chloride 0.45% in plastic container'
p4540
aS'potassium chloride 30meq in dextrose 5% and sodium chloride 0.9% in plastic container'
p4541
aS'potassium chloride 30meq in dextrose 5% in plastic container'
p4542
aS'potassium chloride 30meq in plastic container'
p4543
aS"potassium chloride 40meq in dextrose 5% and lactated ringer's in plastic container"
p4544
aS'potassium chloride 40meq in dextrose 5% and sodium chloride 0.225% in plastic container'
p4545
aS'potassium chloride 40meq in dextrose 5% and sodium chloride 0.3% in plastic container'
p4546
aS'potassium chloride 40meq in dextrose 5% and sodium chloride 0.45% in plastic container'
p4547
aS'potassium chloride 40meq in dextrose 5% and sodium chloride 0.9% in plastic container'
p4548
aS'potassium chloride 40meq in dextrose 5% in plastic container'
p4549
aS'potassium chloride 40meq in plastic container'
p4550
aS'potassium chloride 40meq in sodium chloride 0.9% in plastic container'
p4551
aS"potassium chloride 5meq in dextrose 5% and lactated ringer's in plastic container"
p4552
aS'potassium chloride 5meq in dextrose 5% and sodium chloride 0.225% in plastic container'
p4553
aS'potassium chloride 5meq in dextrose 5% and sodium chloride 0.3% in plastic container'
p4554
aS'potassium chloride 5meq in dextrose 5% and sodium chloride 0.45% in plastic container'
p4555
aS'potassium chloride 5meq in dextrose 5% and sodium chloride 0.9% in plastic container'
p4556
aS'potassium chloride in plastic container'
p4557
aS'potassium citrate'
p4558
aS'potassium iodide'
p4559
aS'potiga'
p4560
aS'povan'
p4561
aS'povidone iodine'
p4562
aS'pradaxa'
p4563
aS'pralidoxime chloride'
p4564
aS'pramine'
p4565
aS'pramipexole dihydrochloride'
p4566
aS'pramosone'
p4567
aS'prandimet'
p4568
aS'prandin'
p4569
aS'prantal'
p4570
aS'pravachol'
p4571
aS'pravastatin sodium'
p4572
aS'pravigard pac (copackaged)'
p4573
aS'prazepam'
p4574
aS'prazosin hydrochloride'
p4575
aS'pre-op'
p4576
aS'pre-op ii'
p4577
aS'pre-pen'
p4578
aS'pre-sate'
p4579
aS'precedex'
p4580
aS'precef'
p4581
aS'precose'
p4582
aS'pred forte'
p4583
aS'pred mild'
p4584
aS'pred-g'
p4585
aS'predair'
p4586
aS'predair forte'
p4587
aS'predamide'
p4588
aS'prednicarbate'
p4589
aS'prednicen-m'
p4590
aS'prednisolone'
p4591
aS'prednisolone acetate'
p4592
aS'prednisolone sodium phosphate'
p4593
aS'prednisolone tebutate'
p4594
aS'prednisone'
p4595
aS'prednisone intensol'
p4596
aS'predsulfair'
p4597
aS'predsulfair ii'
p4598
aS'prefest'
p4599
aS'prefrin-a'
p4600
aS'pregnyl'
p4601
aS'prelay'
p4602
aS'prelone'
p4603
aS'preludin'
p4604
aS'premarin'
p4605
aS'premasol 10% in plastic container'
p4606
aS'premasol 6% in plastic container'
p4607
aS'premphase (premarin;cycrin 14/14)'
p4608
aS'premphase 14/14'
p4609
aS'prempro'
p4610
aS'prempro (premarin;cycrin)'
p4611
aS'prepidil'
p4612
aS'prepopik'
p4613
aS'presamine'
p4614
aS'prestalia'
p4615
aS'prevacare r'
p4616
aS'prevacid'
p4617
aS'prevacid 24 hr'
p4618
aS'prevacid iv'
p4619
aS'prevacid naprapac 250 (copackaged)'
p4620
aS'prevacid naprapac 375 (copackaged)'
p4621
aS'prevacid naprapac 500 (copackaged)'
p4622
aS'prevalite'
p4623
aS'prevantics maxi swabstick'
p4624
aS'prevantics swab'
p4625
aS'prevantics swabstick'
p4626
aS'preven emergency contraceptive kit'
p4627
aS'previfem'
p4628
aS'prevpac'
p4629
aS'prezcobix'
p4630
aS'prezista'
p4631
aS'prialt'
p4632
aS'priftin'
p4633
aS'prilocaine hydrochloride'
p4634
aS'prilocaine hydrochloride and epinephrine bitartrate'
p4635
aS'prilosec'
p4636
aS'prilosec otc'
p4637
aS'primacor'
p4638
aS'primacor in dextrose 5% in plastic container'
p4639
aS'primaquine'
p4640
aS'primaquine phosphate'
p4641
aS'primatene mist'
p4642
aS'primaxin'
p4643
aS'primidone'
p4644
aS'primsol'
p4645
aS'principen'
p4646
aS"principen '125'"
p4647
aS"principen '250'"
p4648
aS"principen '500'"
p4649
aS'principen w/ probenecid'
p4650
aS'prinivil'
p4651
aS'prinzide'
p4652
aS'priscoline'
p4653
aS'prismasol b22gk 2/0 in plastic container'
p4654
aS'prismasol b22gk 2/2.5 in plastic container'
p4655
aS'prismasol b22gk 4/0 in plastic container'
p4656
aS'prismasol b22gk 4/2.5 in plastic container'
p4657
aS'prismasol bgk 0/2.5 in plastic container'
p4658
aS'prismasol bgk 2/0 in plastic container'
p4659
aS'prismasol bgk 2/3.5 in plastic container'
p4660
aS'prismasol bgk 4/0 in plastic container'
p4661
aS'prismasol bgk 4/0/1.2 in plastic container'
p4662
aS'prismasol bgk 4/2.5 in plastic container'
p4663
aS'prismasol bgk 4/3.5 in plastic container'
p4664
aS'prismasol bk 0/0 in plastic container'
p4665
aS'prismasol bk 0/0/1.2 in plastic container'
p4666
aS'prismasol bk 0/3.5 in plastic container'
p4667
aS'prismasol bk 4/2.5 in plastic container'
p4668
aS'pristiq'
p4669
aS'pro-banthine'
p4670
aS'proair hfa'
p4671
aS'proair respiclick'
p4672
aS'proamatine'
p4673
aS'probalan'
p4674
aS'probampacin'
p4675
aS'proben-c'
p4676
aS'probenecid'
p4677
aS'probenecid and colchicine'
p4678
aS'probenecid w/ colchicine'
p4679
aS'procainamide hydrochloride'
p4680
aS'procaine hydrochloride'
p4681
aS'procaine hydrochloride w/ epinephrine'
p4682
aS'procalamine'
p4683
aS'procan'
p4684
aS'procan sr'
p4685
aS'procanbid'
p4686
aS'procapan'
p4687
aS'procardia'
p4688
aS'procardia xl'
p4689
aS'prochlorperazine'
p4690
aS'prochlorperazine edisylate'
p4691
aS'prochlorperazine maleate'
p4692
aS'procomp'
p4693
aS'proctocort'
p4694
aS'proctofoam hc'
p4695
aS'procysbi'
p4696
aS'profen'
p4697
aS'profenal'
p4698
aS'proferdex'
p4699
aS'progestasert'
p4700
aS'progesterone'
p4701
aS'proglycem'
p4702
aS'prograf'
p4703
aS'prohance'
p4704
aS'prohance multipack'
p4705
aS'proketazine'
p4706
aS'proklar'
p4707
aS'prolensa'
p4708
aS'prolixin'
p4709
aS'prolixin decanoate'
p4710
aS'prolixin enanthate'
p4711
aS'proloid'
p4712
aS'proloprim'
p4713
aS'promacta'
p4714
aS'promapar'
p4715
aS'promazine hydrochloride'
p4716
aS'prometa'
p4717
aS'prometh fortis'
p4718
aS'prometh hydrochloride,phenylephrine hydrochloride w/codeine phosphate'
p4719
aS'prometh plain'
p4720
aS'prometh vc plain'
p4721
aS'prometh vc w/ codeine'
p4722
aS'prometh w/ dextromethorphan'
p4723
aS'promethacon'
p4724
aS'promethazine'
p4725
aS'promethazine dm'
p4726
aS'promethazine hydrochloride'
p4727
aS'promethazine hydrochloride and codeine phosphate'
p4728
aS'promethazine hydrochloride and destromethorphan hydrobromide'
p4729
aS'promethazine hydrochloride and dextromethorphan hydrobromide'
p4730
aS'promethazine hydrochloride and phenylephrine hydrochloride'
p4731
aS'promethazine hydrochloride plain'
p4732
aS'promethazine hydrochloride, phenylephrine hydrochloride w/codeine phosphate'
p4733
aS'promethazine plain'
p4734
aS'promethazine vc plain'
p4735
aS'promethazine vc w/ codeine'
p4736
aS'promethazine w/ codeine'
p4737
aS'promethazine w/ dextromethorphan'
p4738
aS'promethazine with codeine'
p4739
aS'promethegan'
p4740
aS'prometrium'
p4741
aS'prompt phenytoin sodium'
p4742
aS'pronestyl'
p4743
aS'pronestyl-sr'
p4744
aS'propacet 100'
p4745
aS'propafenone hydrochloride'
p4746
aS'propantheline bromide'
p4747
aS'proparacaine hydrochloride'
p4748
aS'propecia'
p4749
aS'prophene 65'
p4750
aS'propine'
p4751
aS'propofol'
p4752
aS'propoxyphene compound 65'
p4753
aS'propoxyphene compound-65'
p4754
aS'propoxyphene hydrochloride'
p4755
aS'propoxyphene hydrochloride 65'
p4756
aS'propoxyphene hydrochloride and acetaminophen'
p4757
aS'propoxyphene hydrochloride w/ aspirin and caffeine'
p4758
aS'propoxyphene napsylate and acetaminophen'
p4759
aS'propranolol hydrochloride'
p4760
aS'propranolol hydrochloride & hydrochlorothiazide'
p4761
aS'propranolol hydrochloride and hydrochlorothiazide'
p4762
aS'propranolol hydrochloride intensol'
p4763
aS'propulsid'
p4764
aS'propulsid quicksolv'
p4765
aS'propylthiouracil'
p4766
aS'proquin xr'
p4767
aS'proscar'
p4768
aS'prosol 20% sulfite free in plastic container'
p4769
aS'prosom'
p4770
aS'prostaphlin'
p4771
aS'prostep'
p4772
aS'prostin e2'
p4773
aS'prostin f2 alpha'
p4774
aS'prostin vr pediatric'
p4775
aS'protamine sulfate'
p4776
aS'protamine zinc & iletin i (beef-pork)'
p4777
aS'protamine zinc and iletin ii'
p4778
aS'protamine zinc and iletin ii (pork)'
p4779
aS'protamine zinc insulin'
p4780
aS'protonix'
p4781
aS'protonix iv'
p4782
aS'protopam chloride'
p4783
aS'protopic'
p4784
aS'protostat'
p4785
aS'protriptyline hydrochloride'
p4786
aS'protropin'
p4787
aS'proval #3'
p4788
aS'proventil'
p4789
aS'proventil-hfa'
p4790
aS'provera'
p4791
aS'provigil'
p4792
aS'provocholine'
p4793
aS'prozac'
p4794
aS'prozac weekly'
p4795
aS'pseudo-12'
p4796
aS'pseudoephedrine hydrochloride'
p4797
aS'pseudoephedrine hydrochloride and chlorpheniramine maleate'
p4798
aS'pseudoephedrine hydrochloride and triprolidine hydrochloride'
p4799
aS'psorcon'
p4800
aS'psorcon e'
p4801
aS'pulmicort'
p4802
aS'pulmicort flexhaler'
p4803
aS'pulmicort respules'
p4804
aS'pulmolite'
p4805
aS'pur-wash'
p4806
aS'purified cortrophin gel'
p4807
aS'purinethol'
p4808
aS'purixan'
p4809
aS'pylera'
p4810
aS'pylori-chek breath test'
p4811
aS'pyocidin'
p4812
aS'pyopen'
p4813
aS'pyrazinamide'
p4814
aS'pyridamal 100'
p4815
aS'pyridostigmine bromide'
p4816
aS'pyridoxine hydrochloride'
p4817
aS'pyrilamine maleate'
p4818
aS'pyrolite'
p4819
aS'pytest'
p4820
aS'pytest kit'
p4821
aS'q-gesic'
p4822
aS'q-pam'
p4823
aS'qnasl'
p4824
aS'qoliana'
p4825
aS'qsymia'
p4826
aS'quadramet'
p4827
aS'qualaquin'
p4828
aS'quartette'
p4829
aS'quarzan'
p4830
aS'quasense'
p4831
aS'qudexy xr'
p4832
aS'quelicin'
p4833
aS'quelicin preservative free'
p4834
aS'questran'
p4835
aS'questran light'
p4836
aS'quetiapine fumarate'
p4837
aS'quibron-t'
p4838
aS'quibron-t/sr'
p4839
aS'quide'
p4840
aS'quillivant xr'
p4841
aS'quinact'
p4842
aS'quinaglute'
p4843
aS'quinalan'
p4844
aS'quinapril hydrochloride'
p4845
aS'quinapril hydrochloride and hydrochlorothiazide'
p4846
aS'quinaretic'
p4847
aS'quinatime'
p4848
aS'quinidex'
p4849
aS'quinidine gluconate'
p4850
aS'quinidine sulfate'
p4851
aS'quinine sulfate'
p4852
aS'quinora'
p4853
aS'quixin'
p4854
aS'qutenza'
p4855
aS'qvar 40'
p4856
aS'qvar 80'
p4857
aS'r-gene 10'
p4858
aS'r-p mycin'
p4859
aS'rabeprazole sodium'
p4860
aS'radio-iodinated (i 125) serum albumin (human)'
p4861
aS'radiogardase (prussian blue)'
p4862
aS'radioiodinated serum albumin (human) ihsa i 125'
p4863
aS'radionuclide-labeled (125 i) fibrinogen (human) sensor'
p4864
aS'raloxifene hydrochloride'
p4865
aS'ramelteon'
p4866
aS'ramipril'
p4867
aS'ranexa'
p4868
aS'raniclor'
p4869
aS'ranitidine hydrochloride'
p4870
aS'ranolazine'
p4871
aS'rapaflo'
p4872
aS'rapamune'
p4873
aS'rapivab'
p4874
aS'raplon'
p4875
aS'rasagiline mesylate'
p4876
aS'rasuvo'
p4877
aS'rau-sed'
p4878
aS'raudixin'
p4879
aS'rauserpin'
p4880
aS'rautensin'
p4881
aS'rauval'
p4882
aS'rauwiloid'
p4883
aS'rauwolfia serpentina'
p4884
aS'ravicti'
p4885
aS'ravocaine and novocain w/ levophed'
p4886
aS'ravocaine and novocain w/ neo-cobefrin'
p4887
aS'raxar'
p4888
aS'rayos'
p4889
aS'razadyne'
p4890
aS'razadyne er'
p4891
aS'rbc-scan'
p4892
aS'rebetol'
p4893
aS'reclast'
p4894
aS'rectiv'
p4895
aS'redisol'
p4896
aS'refludan'
p4897
aS'regitine'
p4898
aS'reglan'
p4899
aS'reglan odt'
p4900
aS'regonol'
p4901
aS'regroton'
p4902
aS'regular iletin ii'
p4903
aS'regular iletin ii (pork)'
p4904
aS'regular insulin'
p4905
aS'regular purified pork insulin'
p4906
aS'rela'
p4907
aS'relafen'
p4908
aS'relenza'
p4909
aS'relistor'
p4910
aS'relpax'
p4911
aS'remeron'
p4912
aS'remeron soltab'
p4913
aS'remodulin'
p4914
aS'remsed'
p4915
aS'renacidin'
p4916
aS'renagel'
p4917
aS'renamin w/o electrolytes'
p4918
aS'renese'
p4919
aS'renese-r'
p4920
aS'reno-30'
p4921
aS'reno-60'
p4922
aS'reno-dip'
p4923
aS'renocal-76'
p4924
aS'renografin-60'
p4925
aS'renografin-76'
p4926
aS'renoquid'
p4927
aS'renormax'
p4928
aS'renotec'
p4929
aS'renova'
p4930
aS'renovist'
p4931
aS'renovist ii'
p4932
aS'renovue-65'
p4933
aS'renovue-dip'
p4934
aS'renvela'
p4935
aS'repaglinide'
p4936
aS'reprexain'
p4937
aS'repronex'
p4938
aS'requip'
p4939
aS'requip xl'
p4940
aS'rescriptor'
p4941
aS'rescula'
p4942
aS'resectisol'
p4943
aS'resectisol in plastic container'
p4944
aS'reserpine'
p4945
aS'reserpine and hydrochlorothiazide'
p4946
aS'reserpine and hydrochlorothiazide-50'
p4947
aS'reserpine and hydroflumethiazide'
p4948
aS'reserpine, hydralazine hydrochloride and hydrochlorothiazide'
p4949
aS'reserpine, hydrochlorothiazide, and hydralazine hydrochloride'
p4950
aS'resporal'
p4951
aS'restasis'
p4952
aS'restoril'
p4953
aS'retet'
p4954
aS'retin-a'
p4955
aS'retin-a micro'
p4956
aS'retin-a-micro'
p4957
aS'retisert'
p4958
aS'retrovir'
p4959
aS'revatio'
p4960
aS'reversol'
p4961
aS'revex'
p4962
aS'revia'
p4963
aS'revlimid'
p4964
aS'revonto'
p4965
aS'reyataz'
p4966
aS'rezipas'
p4967
aS'rezira'
p4968
aS'rezulin'
p4969
aS'rhinocort'
p4970
aS'rhinocort allergy'
p4971
aS'ribasphere'
p4972
aS'ribavarin'
p4973
aS'ribavirin'
p4974
aS'rid mousse'
p4975
aS'ridaura'
p4976
aS'rifabutin'
p4977
aS'rifadin'
p4978
aS'rifamate'
p4979
aS'rifampin'
p4980
aS'rifampin and isoniazid'
p4981
aS'rifater'
p4982
aS'rilutek'
p4983
aS'riluzole'
p4984
aS'rimactane'
p4985
aS'rimadyl'
p4986
aS'rimantadine hydrochloride'
p4987
aS'rimifon'
p4988
aS'rimso-50'
p4989
aS"ringer's in plastic container"
p4990
aS'riomet'
p4991
aS'risedronate sodium'
p4992
aS'risperdal'
p4993
aS'risperdal consta'
p4994
aS'risperidone'
p4995
aS'ritalin'
p4996
aS'ritalin la'
p4997
aS'ritalin-sr'
p4998
aS'ritodrine hydrochloride'
p4999
aS'ritodrine hydrochloride in dextrose 5% in plastic container'
p5000
aS'ritonavir'
p5001
aS'rivastigmine tartrate'
p5002
aS'rizatriptan benzoate'
p5003
aS'robaxin'
p5004
aS'robaxin-750'
p5005
aS'robaxisal'
p5006
aS'robengatope'
p5007
aS'robimycin'
p5008
aS'robinul'
p5009
aS'robinul forte'
p5010
aS'robitet'
p5011
aS'rocaltrol'
p5012
aS'rocephin'
p5013
aS'rocephin kit'
p5014
aS'rocephin w/ dextrose in plastic container'
p5015
aS'rocuronium bromide'
p5016
aS'rogaine (for men)'
p5017
aS'rogaine (for women)'
p5018
aS'rogaine extra strength (for men)'
p5019
aS'romazicon'
p5020
aS'rondomycin'
p5021
aS'ropinirole hydrochloride'
p5022
aS'ropivacaine hydrochloride'
p5023
aS'rosiglitazone maleate'
p5024
aS'rosiglitazone maleate and metformin hydrochloride'
p5025
aS'rowasa'
p5026
aS'roxicet'
p5027
aS'roxicet 5/500'
p5028
aS'roxicodone'
p5029
aS'roxilox'
p5030
aS'roxiprin'
p5031
aS'rozerem'
p5032
aS'rubex'
p5033
aS'rubivite'
p5034
aS'rubramin pc'
p5035
aS'rubratope-57'
p5036
aS'rubratope-57 kit'
p5037
aS'rubratope-60'
p5038
aS'rubratope-60 kit'
p5039
aS'rufen'
p5040
aS'ruvite'
p5041
aS'ryanodex'
p5042
aS'rybix odt'
p5043
aS'rytary'
p5044
aS'rythmol'
p5045
aS'rythmol sr'
p5046
aS'ryzolt'
p5047
aS's.a.s.-500'
p5048
aS'sabril'
p5049
aS'safyral'
p5050
aS'saizen'
p5051
aS'salagen'
p5052
aS'salonpas'
p5053
aS'salpix'
p5054
aS'saluron'
p5055
aS'salutensin'
p5056
aS'salutensin-demi'
p5057
aS'samsca'
p5058
aS'sanctura'
p5059
aS'sanctura xr'
p5060
aS'sancuso'
p5061
aS'sandimmune'
p5062
aS'sandostatin'
p5063
aS'sandostatin lar'
p5064
aS'sandril'
p5065
aS'sanorex'
p5066
aS'sansac'
p5067
aS'sansert'
p5068
aS'saphris'
p5069
aS'sarafem'
p5070
aS'sarenin'
p5071
aS'sarisol'
p5072
aS'sarisol no. 1'
p5073
aS'sarisol no. 2'
p5074
aS'satric'
p5075
aS'savaysa'
p5076
aS'savella'
p5077
aS'saxenda'
p5078
aS'scabene'
p5079
aS'scandonest l'
p5080
aS'scandonest plain'
p5081
aS'scanlux-300'
p5082
aS'scanlux-370'
p5083
aS'sclerosol'
p5084
aS'scopolamine'
p5085
aS'scrubteam surgical spongebrush'
p5086
aS'seasonale'
p5087
aS'seasonique'
p5088
aS'secobarbital sodium'
p5089
aS'seconal sodium'
p5090
aS'secreflo'
p5091
aS'secretin-ferring'
p5092
aS'sectral'
p5093
aS'sedapap'
p5094
aS'seffin'
p5095
aS'selegiline hydrochloride'
p5096
aS'selenium sulfide'
p5097
aS'selenomethionine se 75'
p5098
aS'selfemra'
p5099
aS'selsun'
p5100
aS'selzentry'
p5101
aS'semilente'
p5102
aS'semilente insulin'
p5103
aS'semprex-d'
p5104
aS'sensipar'
p5105
aS'sensorcaine'
p5106
aS'septi-soft'
p5107
aS'septisol'
p5108
aS'septocaine'
p5109
aS'septra'
p5110
aS'septra ds'
p5111
aS'septra grape'
p5112
aS'ser-a-gen'
p5113
aS'ser-ap-es'
p5114
aS'serax'
p5115
aS'serentil'
p5116
aS'serevent'
p5117
aS'seromycin'
p5118
aS'serophene'
p5119
aS'seroquel'
p5120
aS'seroquel xr'
p5121
aS'serostim'
p5122
aS'serostim lq'
p5123
aS'serpalan'
p5124
aS'serpanray'
p5125
aS'serpasil'
p5126
aS'serpasil-apresoline'
p5127
aS'serpasil-esidrix #1'
p5128
aS'serpasil-esidrix #2'
p5129
aS'serpate'
p5130
aS'serpivite'
p5131
aS'sertraline hydrochloride'
p5132
aS'servisone'
p5133
aS'serzone'
p5134
aS'sethotope'
p5135
aS'setlakin'
p5136
aS'sevoflurane'
p5137
aS'sfrowasa'
p5138
aS'shade uvaguard'
p5139
aS'signifor'
p5140
aS'signifor lar'
p5141
aS'sildaflo'
p5142
aS'sildenafil citrate'
p5143
aS'silenor'
p5144
aS'silphen'
p5145
aS'silvadene'
p5146
aS'simbrinza'
p5147
aS'simcor'
p5148
aS'simvastatin'
p5149
aS'sine-aid ib'
p5150
aS'sinemet'
p5151
aS'sinemet cr'
p5152
aS'sinequan'
p5153
aS'singulair'
p5154
aS'sinografin'
p5155
aS'sirolimus'
p5156
aS'sirturo'
p5157
aS'sitavig'
p5158
aS'sivextro'
p5159
aS'skelaxin'
p5160
aS'skelid'
p5161
aS'skin exposure reduction paste against chemical warfare agents'
p5162
aS'sklice'
p5163
aS'skyla'
p5164
aS'slo-bid'
p5165
aS'slo-phyllin'
p5166
aS'slow-k'
p5167
aS'sodium acetate in plastic container'
p5168
aS'sodium aminosalicylate'
p5169
aS'sodium bicarbonate'
p5170
aS'sodium bicarbonate in plastic container'
p5171
aS'sodium butabarbital'
p5172
aS'sodium chloride'
p5173
aS'sodium chloride 0.45% in plastic container'
p5174
aS'sodium chloride 0.9%'
p5175
aS'sodium chloride 0.9% '
p5176
aS'sodium chloride 0.9% and potassium chloride 0.075% in plastic container'
p5177
aS'sodium chloride 0.9% and potassium chloride 0.15% in plastic container'
p5178
aS'sodium chloride 0.9% and potassium chloride 0.22% in plastic container'
p5179
aS'sodium chloride 0.9% and potassium chloride 0.3% in plastic container'
p5180
aS'sodium chloride 0.9% in plastic container'
p5181
aS'sodium chloride 0.9% in sterile plastic container'
p5182
aS'sodium chloride 23.4% in plastic container'
p5183
aS'sodium chloride 3% in plastic container'
p5184
aS'sodium chloride 5% in plastic container'
p5185
aS'sodium chloride in plastic container'
p5186
aS'sodium chromate cr 51'
p5187
aS'sodium ferric gluconate complex in sucrose'
p5188
aS'sodium fluoride f 18'
p5189
aS'sodium fluoride f-18'
p5190
aS'sodium heparin'
p5191
aS'sodium iodide i 123'
p5192
aS'sodium iodide i 131'
p5193
aS'sodium iodide i-131'
p5194
aS'sodium lactate 0.167 molar in plastic container'
p5195
aS'sodium lactate 1/6 molar in plastic container'
p5196
aS'sodium lactate in plastic container'
p5197
aS'sodium nitrite'
p5198
aS'sodium nitroprusside'
p5199
aS'sodium p.a.s.'
p5200
aS'sodium pentobarbital'
p5201
aS'sodium pertechnetate tc 99m'
p5202
aS'sodium phenylbutyrate'
p5203
aS'sodium phosphate p 32'
p5204
aS'sodium phosphates in plastic container'
p5205
aS'sodium polyphosphate-tin kit'
p5206
aS'sodium polystyrene sulfonate'
p5207
aS'sodium rose bengal i 131'
p5208
aS'sodium succinate'
p5209
aS'sodium sulamyd'
p5210
aS'sodium sulfacetamide'
p5211
aS'sodium thiosulfate'
p5212
aS'sojourn'
p5213
aS'solage'
p5214
aS'solaraze'
p5215
aS'solatene'
p5216
aS'solifenacin succinate'
p5217
aS'solodyn'
p5218
aS'soltamox'
p5219
aS'solu-cortef'
p5220
aS'solu-medrol'
p5221
aS'soma'
p5222
aS'soma compound'
p5223
aS'soma compound w/ codeine'
p5224
aS'somatuline depot'
p5225
aS'somavert'
p5226
aS'somophyllin'
p5227
aS'somophyllin-crt'
p5228
aS'somophyllin-df'
p5229
aS'somophyllin-t'
p5230
aS'sonata'
p5231
aS'sonazine'
p5232
aS'sonorx'
p5233
aS'soolantra'
p5234
aS'sorbitol 3% in plastic container'
p5235
aS'sorbitol 3.3% in plastic container'
p5236
aS'sorbitol-mannitol'
p5237
aS'sorbitol-mannitol in plastic container'
p5238
aS'sorbitrate'
p5239
aS'soriatane'
p5240
aS'sorilux'
p5241
aS'sorine'
p5242
aS'sosol'
p5243
aS'sotalol hydrochloride'
p5244
aS'sotradecol'
p5245
aS'sotret'
p5246
aS'sotylize'
p5247
aS'sovaldi'
p5248
aS'soxazole'
p5249
aS'soy-dome'
p5250
aS'soyacal 10%'
p5251
aS'soyacal 20%'
p5252
aS'sparine'
p5253
aS'spectamine'
p5254
aS'spectazole'
p5255
aS'spectracef'
p5256
aS'spectrobid'
p5257
aS'spiriva'
p5258
aS'spiriva respimat'
p5259
aS'spironolactone'
p5260
aS'spironolactone and hydrochlorothiazide'
p5261
aS'spironolactone w/ hydrochlorothiazide'
p5262
aS'sporanox'
p5263
aS'sprintec'
p5264
aS'sprix'
p5265
aS'sprx-105'
p5266
aS'sprx-3'
p5267
aS'sprycel'
p5268
aS'sps'
p5269
aS'ssd'
p5270
aS'ssd af'
p5271
aS'stadol'
p5272
aS'stadol preservative free'
p5273
aS'stalevo 100'
p5274
aS'stalevo 125'
p5275
aS'stalevo 150'
p5276
aS'stalevo 200'
p5277
aS'stalevo 50'
p5278
aS'stalevo 75'
p5279
aS'stanozide'
p5280
aS'staphcillin'
p5281
aS'starlix'
p5282
aS'staticin'
p5283
aS'statobex'
p5284
aS'statobex-g'
p5285
aS'statrol'
p5286
aS'stavudine'
p5287
aS'stavzor'
p5288
aS'staxyn'
p5289
aS'stelazine'
p5290
aS'stendra'
p5291
aS'sterane'
p5292
aS'steri-stat'
p5293
aS'sterile urea'
p5294
aS'sterile water'
p5295
aS'sterile water for injection in plastic container'
p5296
aS'sterile water in plastic container'
p5297
aS'stie-cort'
p5298
aS'stilbestrol'
p5299
aS'stilbetin'
p5300
aS'stilphostrol'
p5301
aS'stimate'
p5302
aS'stimate (needs no refrigeration)'
p5303
aS'stivarga'
p5304
aS'stoxil'
p5305
aS'strattera'
p5306
aS'streptomycin sulfate'
p5307
aS'striant'
p5308
aS'stribild'
p5309
aS'strifon forte dsc'
p5310
aS'striverdi respimat'
p5311
aS'stromectol'
p5312
aS'strontium chloride sr-89'
p5313
aS'sublimaze preservative free'
p5314
aS'suboxone'
p5315
aS'subsys'
p5316
aS'subutex'
p5317
aS'succinylcholine chloride'
p5318
aS'suclear'
p5319
aS'sucostrin'
p5320
aS'sucraid'
p5321
aS'sucralfate'
p5322
aS'sudafed 12 hour'
p5323
aS'sudafed 24 hour'
p5324
aS'sufenta preservative free'
p5325
aS'sufentanil citrate'
p5326
aS'sular'
p5327
aS'sulf-10'
p5328
aS'sulf-15'
p5329
aS'sulfa-triple #2'
p5330
aS'sulfabid'
p5331
aS'sulfacel-15'
p5332
aS'sulfacetamide sodium'
p5333
aS'sulfacetamide sodium and prednisolone sodium phosphate'
p5334
aS'sulfadiazine'
p5335
aS'sulfadiazine sodium'
p5336
aS'sulfair 10'
p5337
aS'sulfair forte'
p5338
aS'sulfair-15'
p5339
aS'sulfalar'
p5340
aS'sulfaloid'
p5341
aS'sulfamethoprim'
p5342
aS'sulfamethoprim-ds'
p5343
aS'sulfamethoxazole'
p5344
aS'sulfamethoxazole and trimethoprim'
p5345
aS'sulfamethoxazole and trimethoprim and penazopyridine hydrochloride'
p5346
aS'sulfamethoxazole and trimethoprim double strength'
p5347
aS'sulfamethoxazole and trimethoprim single strength'
p5348
aS'sulfamylon'
p5349
aS'sulfanilamide'
p5350
aS'sulfapyridine'
p5351
aS'sulfasalazine'
p5352
aS'sulfatrim'
p5353
aS'sulfatrim pediatric'
p5354
aS'sulfatrim-ds'
p5355
aS'sulfatrim-ss'
p5356
aS'sulfinpyrazone'
p5357
aS'sulfisoxazole'
p5358
aS'sulfisoxazole diolamine'
p5359
aS'sulfonamides duplex'
p5360
aS'sulfose'
p5361
aS'sulindac'
p5362
aS'sulla'
p5363
aS'sulmeprim'
p5364
aS'sulmeprim pediatric'
p5365
aS'sulphrin'
p5366
aS'sulsoxin'
p5367
aS'sulster'
p5368
aS'sulten-10'
p5369
aS'sultrin'
p5370
aS'sumatriptan succinate'
p5371
aS'sumavel dosepro'
p5372
aS'sumycin'
p5373
aS'sunitinib malate'
p5374
aS'supprelin'
p5375
aS'supprelin la'
p5376
aS'suprane'
p5377
aS'suprax'
p5378
aS'suprenza'
p5379
aS'suprep bowel prep kit'
p5380
aS'surfaxin'
p5381
aS'surital'
p5382
aS'surmontil'
p5383
aS'survanta'
p5384
aS'sus-phrine sulfite-free'
p5385
aS'sustaire'
p5386
aS'sustiva'
p5387
aS'sutent'
p5388
aS'syeda'
p5389
aS'symadine'
p5390
aS'symbicort'
p5391
aS'symbyax'
p5392
aS'symlin'
p5393
aS'symmetrel'
p5394
aS'synacort'
p5395
aS'synalar'
p5396
aS'synalar-hp'
p5397
aS'synalgos-dc'
p5398
aS'synalgos-dc-a'
p5399
aS'synarel'
p5400
aS'syncurine'
p5401
aS'synera'
p5402
aS'synercid'
p5403
aS'synkayvite'
p5404
aS'synophylate'
p5405
aS'synovalyte in plastic container'
p5406
aS'synribo'
p5407
aS'synthetic conjugated estrogens a'
p5408
aS'synthroid'
p5409
aS'syntocinon'
p5410
aS'syprine'
p5411
aS't-phyl'
p5412
aS't-stat'
p5413
aS'tab-profen'
p5414
aS'tacaryl'
p5415
aS'tace'
p5416
aS'taclonex'
p5417
aS'tacrolimus'
p5418
aS'tafinlar'
p5419
aS'tagamet'
p5420
aS'tagamet hb'
p5421
aS'tagamet hb 200'
p5422
aS'tagamet hydrochloride in sodium chloride 0.9% in plastic container'
p5423
aS'talacen'
p5424
aS'talc'
p5425
aS'talwin'
p5426
aS'talwin 50'
p5427
aS'talwin compound'
p5428
aS'talwin nx'
p5429
aS'tambocor'
p5430
aS'tamiflu'
p5431
aS'tamoxifen citrate'
p5432
aS'tamsulosin hydrochloride'
p5433
aS'tandearil'
p5434
aS'tao'
p5435
aS'tapazole'
p5436
aS'taractan'
p5437
aS'tarceva'
p5438
aS'targiniq'
p5439
aS'targretin'
p5440
aS'tarka'
p5441
aS'tasigna'
p5442
aS'tasmar'
p5443
aS'tatum-t'
p5444
aS'tavist'
p5445
aS'tavist allergy/sinus/headache'
p5446
aS'tavist-1'
p5447
aS'taxol'
p5448
aS'taxotere'
p5449
aS'tazicef'
p5450
aS'tazidime'
p5451
aS'tazidime in plastic container'
p5452
aS'tazorac'
p5453
aS'taztia xt'
p5454
aS'tc 99m-lungaggregate'
p5455
aS'tecfidera'
p5456
aS'technecoll'
p5457
aS'technelite'
p5458
aS'technescan'
p5459
aS'technescan gluceptate'
p5460
aS'technescan hida'
p5461
aS'technescan maa'
p5462
aS'technescan mag3'
p5463
aS'technescan pyp kit'
p5464
aS'technetium tc 99m albumin aggregated kit'
p5465
aS'technetium tc 99m diphosphonate-tin kit'
p5466
aS'technetium tc 99m generator'
p5467
aS'technetium tc 99m hsa'
p5468
aS'technetium tc 99m maa'
p5469
aS'technetium tc 99m mpi mdp'
p5470
aS'technetium tc 99m sestamibi'
p5471
aS'technetium tc 99m sulfur colloid'
p5472
aS'technetium tc 99m tsc'
p5473
aS'technetium tc-99m mebrofenin'
p5474
aS'technetium tc-99m pentetate kit'
p5475
aS'technetium tc-99m sestamibi'
p5476
aS'teczem'
p5477
aS'teebacin'
p5478
aS'teflaro'
p5479
aS'tegison'
p5480
aS'tegopen'
p5481
aS'tegretol'
p5482
aS'tegretol-xr'
p5483
aS'tekamlo'
p5484
aS'tekturna'
p5485
aS'tekturna hct'
p5486
aS'teldrin'
p5487
aS'telepaque'
p5488
aS'telmisartan'
p5489
aS'telmisartan and amlodipine'
p5490
aS'telmisartan and hydrochlorothiazide'
p5491
aS'temaril'
p5492
aS'temaz'
p5493
aS'temazepam'
p5494
aS'temodar'
p5495
aS'temovate'
p5496
aS'temovate e'
p5497
aS'temozolomide'
p5498
aS'ten-k'
p5499
aS'tenathan'
p5500
aS'tencon'
p5501
aS'tenex'
p5502
aS'tenofovir disoproxil fumarate'
p5503
aS'tenoretic 100'
p5504
aS'tenoretic 50'
p5505
aS'tenormin'
p5506
aS'tensilon'
p5507
aS'tensilon preservative free'
p5508
aS'tenuate'
p5509
aS'tenuate dospan'
p5510
aS'tepanil'
p5511
aS'tepanil ten-tab'
p5512
aS'terazol 3'
p5513
aS'terazol 7'
p5514
aS'terazosin hydrochloride'
p5515
aS'terbinafine hydrochloride'
p5516
aS'terbutaline sulfate'
p5517
aS'terconazole'
p5518
aS'terfonyl'
p5519
aS'teril'
p5520
aS'terra-cortril'
p5521
aS'terramycin'
p5522
aS'terramycin w/ polymyxin'
p5523
aS'terramycin w/ polymyxin b sulfate'
p5524
aS'terramycin-polymyxin'
p5525
aS'teslac'
p5526
aS'teslascan'
p5527
aS'tessalon'
p5528
aS'testim'
p5529
aS'testoderm'
p5530
aS'testoderm tts'
p5531
aS'testopel'
p5532
aS'testosterone'
p5533
aS'testosterone cypionate'
p5534
aS'testosterone cypionate-estradiol cypionate'
p5535
aS'testosterone enanthate'
p5536
aS'testosterone enanthate and estradiol valerate'
p5537
aS'testosterone propionate'
p5538
aS'testred'
p5539
aS'tesuloid'
p5540
aS'tetrachel'
p5541
aS'tetracycline hydrochloride'
p5542
aS'tetracyn'
p5543
aS'tetramed'
p5544
aS'tetrex'
p5545
aS'teveten'
p5546
aS'teveten hct'
p5547
aS'texacort'
p5548
aS'thalitone'
p5549
aS'thallous chloride tl 201'
p5550
aS'thalomid'
p5551
aS'tham'
p5552
aS'tham-e'
p5553
aS'theelin'
p5554
aS'theo-24'
p5555
aS'theo-dur'
p5556
aS'theobid'
p5557
aS'theobid jr.'
p5558
aS'theochron'
p5559
aS'theoclear l.a.-130'
p5560
aS'theoclear l.a.-260'
p5561
aS'theoclear-100'
p5562
aS'theoclear-200'
p5563
aS'theoclear-80'
p5564
aS'theolair'
p5565
aS'theolair-sr'
p5566
aS'theolixir'
p5567
aS'theophyl'
p5568
aS'theophyl-225'
p5569
aS'theophyl-sr'
p5570
aS'theophylline'
p5571
aS'theophylline 0.04% and dextrose 5% in plastic container'
p5572
aS'theophylline 0.08% and dextrose 5% in plastic container'
p5573
aS'theophylline 0.16% and dextrose 5% in plastic container'
p5574
aS'theophylline 0.2% and dextrose 5% in plastic container'
p5575
aS'theophylline 0.32% and dextrose 5% in plastic container'
p5576
aS'theophylline 0.4% and dextrose 5% in plastic container'
p5577
aS'theophylline and dextrose 5% in plastic container'
p5578
aS'theophylline in dextrose 5% in plastic container'
p5579
aS'theophylline-sr'
p5580
aS'theovent'
p5581
aS'thermazene'
p5582
aS'theroxidil'
p5583
aS'thiamine hydrochloride'
p5584
aS'thioguanine'
p5585
aS'thiola'
p5586
aS'thioplex'
p5587
aS'thioridazine hydrochloride'
p5588
aS'thioridazine hydrochloride intensol'
p5589
aS'thiosulfil'
p5590
aS'thiotepa'
p5591
aS'thiothixene'
p5592
aS'thiothixene hydrochloride'
p5593
aS'thiothixene hydrochloride intensol'
p5594
aS'thorazine'
p5595
aS'thrive'
p5596
aS'thypinone'
p5597
aS'thyrel trh'
p5598
aS'thyro-block'
p5599
aS'thyrogen'
p5600
aS'thyroglobulin'
p5601
aS'thyrolar-0.25'
p5602
aS'thyrolar-0.5'
p5603
aS'thyrolar-1'
p5604
aS'thyrolar-2'
p5605
aS'thyrolar-3'
p5606
aS'thyrolar-5'
p5607
aS'thyrosafe'
p5608
aS'thyroshield'
p5609
aS'thytropar'
p5610
aS'tiagabine hydrochloride'
p5611
aS'tiamate'
p5612
aS'tiazac'
p5613
aS'ticar'
p5614
aS'ticlid'
p5615
aS'ticlopidine hydrochloride'
p5616
aS'tigan'
p5617
aS'tikosyn'
p5618
aS'tilade'
p5619
aS'timentin'
p5620
aS'timentin in plastic container'
p5621
aS'timolide 10-25'
p5622
aS'timolol maleate'
p5623
aS'timoptic'
p5624
aS'timoptic in ocudose'
p5625
aS'timoptic-xe'
p5626
aS'tindal'
p5627
aS'tindamax'
p5628
aS'tinidazole'
p5629
aS'tioconazole'
p5630
aS'tirosint'
p5631
aS'tis-u-sol'
p5632
aS'tis-u-sol in plastic container'
p5633
aS'tivicay'
p5634
aS'tivorbex'
p5635
aS'tizanidine hydrochloride'
p5636
aS'tobi'
p5637
aS'tobi podhaler'
p5638
aS'tobradex'
p5639
aS'tobradex st'
p5640
aS'tobramycin'
p5641
aS'tobramycin and dexamethasone'
p5642
aS'tobramycin sulfate'
p5643
aS'tobramycin sulfate (pharmacy bulk)'
p5644
aS'tobramycin sulfate in sodium chloride 0.9% in plastic container'
p5645
aS'tobrasone'
p5646
aS'tobrex'
p5647
aS'today'
p5648
aS'tofranil'
p5649
aS'tofranil-pm'
p5650
aS'tolazamide'
p5651
aS'tolbutamide'
p5652
aS'tolcapone'
p5653
aS'tolectin'
p5654
aS'tolectin 600'
p5655
aS'tolectin ds'
p5656
aS'tolinase'
p5657
aS'tolmetin sodium'
p5658
aS'tolterodine tartrate'
p5659
aS'tonocard'
p5660
aS'topamax'
p5661
aS'topamax sprinkle'
p5662
aS'topicort'
p5663
aS'topicort lp'
p5664
aS'topicycline'
p5665
aS'topiramate'
p5666
aS'topiramate '
p5667
aS'toposar'
p5668
aS'topotecan'
p5669
aS'topotecan hydrochloride'
p5670
aS'toprol-xl'
p5671
aS'tora'
p5672
aS'toradol'
p5673
aS'torecan'
p5674
aS'torisel'
p5675
aS'tornalate'
p5676
aS'torsemide'
p5677
aS'totacillin'
p5678
aS'totacillin-n'
p5679
aS'totect'
p5680
aS'toujeo solostar'
p5681
aS'tovalt odt'
p5682
aS'toviaz'
p5683
aS'tpn'
p5684
aS'tpn electrolytes in plastic container'
p5685
aS'tracleer'
p5686
aS'tracrium'
p5687
aS'tracrium preservative free'
p5688
aS'tradjenta'
p5689
aS'tral'
p5690
aS'tramadol hydrochloride'
p5691
aS'tramadol hydrochloride and acetaminophen'
p5692
aS'trancopal'
p5693
aS'trandate'
p5694
aS'trandate hct'
p5695
aS'trandolapril'
p5696
aS'trandolapril and verapamil hydrochloride'
p5697
aS'tranexamic acid'
p5698
aS'tranmep'
p5699
aS'transderm scop'
p5700
aS'transderm-nitro'
p5701
aS'tranxene'
p5702
aS'tranxene sd'
p5703
aS'tranylcypromine sulfate'
p5704
aS'trasicor'
p5705
aS'trasylol'
p5706
aS'travamulsion 10%'
p5707
aS'travamulsion 20%'
p5708
aS'travase'
p5709
aS'travasol 10% in plastic container'
p5710
aS'travasol 10% w/o electrolytes'
p5711
aS'travasol 2.75% in dextrose 10% in plastic container'
p5712
aS'travasol 2.75% in dextrose 15% in plastic container'
p5713
aS'travasol 2.75% in dextrose 20% in plastic container'
p5714
aS'travasol 2.75% in dextrose 25% in plastic container'
p5715
aS'travasol 2.75% in dextrose 5% in plastic container'
p5716
aS'travasol 2.75% sulfite free w/ electrolytes in dextrose 10% in plastic container'
p5717
aS'travasol 2.75% sulfite free w/ electrolytes in dextrose 15% in plastic container'
p5718
aS'travasol 2.75% sulfite free w/ electrolytes in dextrose 20% in plastic container'
p5719
aS'travasol 2.75% sulfite free w/ electrolytes in dextrose 25% in plastic container'
p5720
aS'travasol 2.75% sulfite free w/ electrolytes in dextrose 5% in plastic container'
p5721
aS'travasol 3.5% sulfite free w/ electrolytes in plastic container'
p5722
aS'travasol 3.5% w/ electrolytes'
p5723
aS'travasol 4.25% in dextrose 10% in plastic container'
p5724
aS'travasol 4.25% in dextrose 15% in plastic container'
p5725
aS'travasol 4.25% in dextrose 20% in plastic container'
p5726
aS'travasol 4.25% in dextrose 25% in plastic container'
p5727
aS'travasol 4.25% in dextrose 5% in plastic container'
p5728
aS'travasol 4.25% sulfite free w/ electrolytes in dextrose 10% in plastic container'
p5729
aS'travasol 4.25% sulfite free w/ electrolytes in dextrose 15% in plastic container'
p5730
aS'travasol 4.25% sulfite free w/ electrolytes in dextrose 20% in plastic container'
p5731
aS'travasol 4.25% sulfite free w/ electrolytes in dextrose 25% in plastic container'
p5732
aS'travasol 4.25% sulfite free w/ electrolytes in dextrose 5% in plastic container'
p5733
aS'travasol 5.5% in plastic container'
p5734
aS'travasol 5.5% sulfite free w/ electrolytes in plastic container'
p5735
aS'travasol 5.5% w/ electrolytes'
p5736
aS'travasol 5.5% w/o electrolytes'
p5737
aS'travasol 8.5% in plastic container'
p5738
aS'travasol 8.5% sulfite free w/ electrolytes in plastic container'
p5739
aS'travasol 8.5% w/ electrolytes'
p5740
aS'travasol 8.5% w/o electrolytes'
p5741
aS'travatan'
p5742
aS'travatan z'
p5743
aS'travert 10% in plastic container'
p5744
aS'travoprost'
p5745
aS'trazodone hydrochloride'
p5746
aS'treanda'
p5747
aS'trecator'
p5748
aS'trelstar'
p5749
aS'tremin'
p5750
aS'trental'
p5751
aS'trest'
p5752
aS'tretinoin'
p5753
aS'trexall'
p5754
aS'treximet'
p5755
aS'trezix'
p5756
aS'tri lo sprintec'
p5757
aS'tri-estarylla'
p5758
aS'tri-legest 21'
p5759
aS'tri-legest fe'
p5760
aS'tri-linyah'
p5761
aS'tri-luma'
p5762
aS'tri-norinyl 21-day'
p5763
aS'tri-norinyl 28-day'
p5764
aS'tri-previfem'
p5765
aS'tri-sprintec'
p5766
aS'triacet'
p5767
aS'triacin-c'
p5768
aS'triacort'
p5769
aS'triad'
p5770
aS'trialodine'
p5771
aS'triamcinolone'
p5772
aS'triamcinolone acetonide'
p5773
aS'triamcinolone acetonide in absorbase'
p5774
aS'triamcinolone diacetate'
p5775
aS'triaminic-12'
p5776
aS'triamterene and hydrochlorothiazide'
p5777
aS'triaprin'
p5778
aS'triatex'
p5779
aS'triavil 2-10'
p5780
aS'triavil 2-25'
p5781
aS'triavil 4-10'
p5782
aS'triavil 4-25'
p5783
aS'triavil 4-50'
p5784
aS'triazolam'
p5785
aS'tribenzor'
p5786
aS'trichlorex'
p5787
aS'trichlormas'
p5788
aS'trichlormethiazide'
p5789
aS'trichlormethiazide w/ reserpine'
p5790
aS'triclos'
p5791
aS'tricor'
p5792
aS'tricor (micronized)'
p5793
aS'triderm'
p5794
aS'tridesilon'
p5795
aS'tridil'
p5796
aS'tridione'
p5797
aS'triesence'
p5798
aS'triferic'
p5799
aS'trifluoperazine hydrochloride'
p5800
aS'trifluridine'
p5801
aS'triglide'
p5802
aS'trihexyphenidyl hydrochloride'
p5803
aS'trilafon'
p5804
aS'trileptal'
p5805
aS'trilipix'
p5806
aS'trilitron'
p5807
aS'trilyte'
p5808
aS'trimeprazine tartrate'
p5809
aS'trimeth/sulfa'
p5810
aS'trimethobenzamide hydrochloride'
p5811
aS'trimethobenzamide hydrochloride preservative free'
p5812
aS'trimethoprim'
p5813
aS'trimethoprim sulfate and polymyxin b sulfate'
p5814
aS'trimipramine maleate'
p5815
aS'trimox'
p5816
aS'trimpex'
p5817
aS'trimpex 200'
p5818
aS'trinalin'
p5819
aS'triostat'
p5820
aS'tripelennamine hydrochloride'
p5821
aS'triphasil-21'
p5822
aS'triphasil-28'
p5823
aS'triphed'
p5824
aS'triple sulfa'
p5825
aS'triple sulfas'
p5826
aS'triple sulfoid'
p5827
aS'triprolidine and pseudoephedrine'
p5828
aS'triprolidine and pseudoephedrine hydrochlorides'
p5829
aS'triprolidine and pseudoephedrine hydrochlorides w/ codeine'
p5830
aS'triprolidine hcl, pseudoephedrine hcl and codeine phosphate'
p5831
aS'triprolidine hydrochloride'
p5832
aS'triprolidine hydrochloride and pseudoephedrine hydrochloride'
p5833
aS'trisenox'
p5834
aS'trisoralen'
p5835
aS'tritec'
p5836
aS'triumeq'
p5837
aS'trivagizole 3'
p5838
aS'trivaris'
p5839
aS'trivora-21'
p5840
aS'trivora-28'
p5841
aS'trizivir'
p5842
aS'trobicin'
p5843
aS'trokendi xr'
p5844
aS'trophamine'
p5845
aS'trophamine 10%'
p5846
aS'tropicacyl'
p5847
aS'tropicamide'
p5848
aS'trospium chloride'
p5849
aS'trovan'
p5850
aS'trovan preservative free'
p5851
aS'trovan/zithromax compliance pak'
p5852
aS'truphylline'
p5853
aS'trusopt'
p5854
aS'truvada'
p5855
aS'trymex'
p5856
aS'trysul'
p5857
aS'tubocurarine chloride'
p5858
aS'tudorza pressair'
p5859
aS'turgex'
p5860
aS'tussicaps'
p5861
aS'tussigon'
p5862
aS'tussionex pennkinetic'
p5863
aS'tuzistra xr'
p5864
aS'twinject 0.15'
p5865
aS'twinject 0.3'
p5866
aS'twynsta'
p5867
aS'tybost'
p5868
aS'tycolet'
p5869
aS'tygacil'
p5870
aS'tykerb'
p5871
aS'tylenol'
p5872
aS'tylenol '
p5873
aS'tylenol w/ codeine'
p5874
aS'tylenol w/ codeine no. 1'
p5875
aS'tylenol w/ codeine no. 2'
p5876
aS'tylenol w/ codeine no. 3'
p5877
aS'tylenol w/ codeine no. 4'
p5878
aS'tylox'
p5879
aS'tylox-325'
p5880
aS'tymtran'
p5881
aS'tyvaso'
p5882
aS'tyzeka'
p5883
aS'tyzine'
p5884
aS'tz-3'
p5885
aS'u-cort'
p5886
aS'u-gencin'
p5887
aS'ucephan'
p5888
aS'uceris'
p5889
aS'ulesfia'
p5890
aS'ulo'
p5891
aS'uloric'
p5892
aS'ultane'
p5893
aS'ultiva'
p5894
aS'ultra-technekow fm'
p5895
aS'ultracef'
p5896
aS'ultracet'
p5897
aS'ultragris-165'
p5898
aS'ultragris-330'
p5899
aS'ultralente'
p5900
aS'ultralente insulin'
p5901
aS'ultram'
p5902
aS'ultram er'
p5903
aS'ultratag'
p5904
aS'ultravate'
p5905
aS'ultravist (pharmacy bulk)'
p5906
aS'ultravist 150'
p5907
aS'ultravist 240'
p5908
aS'ultravist 300'
p5909
aS'ultravist 300 in plastic container'
p5910
aS'ultravist 370'
p5911
aS'ultresa'
p5912
aS'unasyn'
p5913
aS'uni-dur'
p5914
aS'unipen'
p5915
aS'unipen in plastic container'
p5916
aS'uniphyl'
p5917
aS'unipres'
p5918
aS'uniretic'
p5919
aS'unisom'
p5920
aS'unitensen'
p5921
aS'unithroid'
p5922
aS'univasc'
p5923
aS'uracil mustard'
p5924
aS'ureaphil'
p5925
aS'urecholine'
p5926
aS'urese'
p5927
aS'urex'
p5928
aS'urispas'
p5929
aS'urobak'
p5930
aS'urocit-k'
p5931
aS'urologic g in plastic container'
p5932
aS'uroplus ds'
p5933
aS'uroplus ss'
p5934
aS'urovist cysto'
p5935
aS'urovist cysto pediatric'
p5936
aS'urovist meglumine diu/ct'
p5937
aS'urovist sodium 300'
p5938
aS'uroxatral'
p5939
aS'urso 250'
p5940
aS'urso forte'
p5941
aS'ursodiol'
p5942
aS'uticillin vk'
p5943
aS'uticort'
p5944
aS'utimox'
p5945
aS'uvadex'
p5946
aS'v-cillin'
p5947
aS'v-cillin k'
p5948
aS'vagifem'
p5949
aS'vagilia'
p5950
aS'vagistat-1'
p5951
aS'valacyclovir hydrochloride'
p5952
aS'valchlor'
p5953
aS'valcyte'
p5954
aS'valganciclovir hydrochloride'
p5955
aS'valisone'
p5956
aS'valium'
p5957
aS'valmid'
p5958
aS'valnac'
p5959
aS'valpin 50'
p5960
aS'valproate sodium'
p5961
aS'valproic acid'
p5962
aS'valrelease'
p5963
aS'valsartan'
p5964
aS'valsartan and hydrochlorothiazide'
p5965
aS'valstar preservative free'
p5966
aS'valtrex'
p5967
aS'valtropin'
p5968
aS'valturna'
p5969
aS'vancenase'
p5970
aS'vancenase aq'
p5971
aS'vanceril'
p5972
aS'vanceril double strength'
p5973
aS'vancocin hydrochloride'
p5974
aS'vancocin hydrochloride in plastic container'
p5975
aS'vancoled'
p5976
aS'vancomycin hydrochloride'
p5977
aS'vancor'
p5978
aS'vandazole'
p5979
aS'vaniqa'
p5980
aS'vanobid'
p5981
aS'vanos'
p5982
aS'vansil'
p5983
aS'vantas'
p5984
aS'vantin'
p5985
aS'vapo-iso'
p5986
aS'vaprisol'
p5987
aS'vaprisol in 5% dextrose in plastic container'
p5988
aS'vardenafil hydrochloride'
p5989
aS'varithena'
p5990
aS'vascepa'
p5991
aS'vascor'
p5992
aS'vascoray'
p5993
aS'vaseretic'
p5994
aS'vasocidin'
p5995
aS'vasocon'
p5996
aS'vasocon-a'
p5997
aS'vasostrict'
p5998
aS'vasotec'
p5999
aS'vasoxyl'
p6000
aS'vazculep'
p6001
aS'vectical'
p6002
aS'vecuronium bromide'
p6003
aS'veetids'
p6004
aS"veetids '125'"
p6005
aS"veetids '250'"
p6006
aS"veetids '500'"
p6007
aS'veinamine 8%'
p6008
aS'velban'
p6009
aS'velcade'
p6010
aS'veletri'
p6011
aS'velivet'
p6012
aS'velosef'
p6013
aS"velosef '125'"
p6014
aS"velosef '250'"
p6015
aS"velosef '500'"
p6016
aS'velosulin'
p6017
aS'velosulin br'
p6018
aS'velosulin br human'
p6019
aS'velphoro'
p6020
aS'veltin'
p6021
aS'venlafaxine hydrochloride'
p6022
aS'venofer'
p6023
aS'ventaire'
p6024
aS'ventavis'
p6025
aS'ventolin'
p6026
aS'ventolin hfa'
p6027
aS'ventolin rotacaps'
p6028
aS'vepesid'
p6029
aS'veramyst'
p6030
aS'verapamil hydrochloride'
p6031
aS'vercyte'
p6032
aS'verdeso'
p6033
aS'veregen'
p6034
aS'verelan'
p6035
aS'verelan pm'
p6036
aS'veriloid'
p6037
aS'vermidol'
p6038
aS'vermox'
p6039
aS'versacloz'
p6040
aS'versapen'
p6041
aS'versapen-k'
p6042
aS'versed'
p6043
aS'vertavis'
p6044
aS'vesanoid'
p6045
aS'vesicare'
p6046
aS'vesprin'
p6047
aS'vexol'
p6048
aS'vfend'
p6049
aS'vi-dom-a'
p6050
aS'vi-twel'
p6051
aS'viadur'
p6052
aS'viagra'
p6053
aS'vibativ'
p6054
aS'vibisone'
p6055
aS'vibra-tabs'
p6056
aS'vibramycin'
p6057
aS'vicks formula 44'
p6058
aS'vicodin'
p6059
aS'vicodin es'
p6060
aS'vicodin hp'
p6061
aS'vicoprin'
p6062
aS'vicoprofen'
p6063
aS'victoza'
p6064
aS'victrelis'
p6065
aS'vidaza'
p6066
aS'videx'
p6067
aS'videx ec'
p6068
aS'viekira pak (copackaged)'
p6069
aS'vigamox'
p6070
aS'viibryd'
p6071
aS'vimovo'
p6072
aS'vimpat'
p6073
aS'vinblastine sulfate'
p6074
aS'vincasar pfs'
p6075
aS'vincrex'
p6076
aS'vincristine sulfate'
p6077
aS'vincristine sulfate pfs'
p6078
aS'vinorelbine'
p6079
aS'vinorelbine tartrate'
p6080
aS'viocin sulfate'
p6081
aS'viokace'
p6082
aS'viorele'
p6083
aS'vioxx'
p6084
aS'vira-a'
p6085
aS'virac rex'
p6086
aS'viracept'
p6087
aS'viramune'
p6088
aS'viramune xr'
p6089
aS'virazole'
p6090
aS'viread'
p6091
aS'virilon'
p6092
aS'viroptic'
p6093
aS'visicol'
p6094
aS'visine l.r.'
p6095
aS'visine-a'
p6096
aS'visionblue'
p6097
aS'visipaque 270'
p6098
aS'visipaque 320'
p6099
aS'viskazide'
p6100
aS'visken'
p6101
aS'vistaril'
p6102
aS'vistide'
p6103
aS'visudyne'
p6104
aS'vitamin a'
p6105
aS'vitamin a palmitate'
p6106
aS'vitamin a solubilized'
p6107
aS'vitamin d'
p6108
aS'vitamin k1'
p6109
aS'vitaped'
p6110
aS'vitekta'
p6111
aS'vitrase'
p6112
aS'vitrasert'
p6113
aS'vitravene preservative free'
p6114
aS'vituz'
p6115
aS'vivactil'
p6116
aS'vivelle'
p6117
aS'vivelle-dot'
p6118
aS'vivitrol'
p6119
aS'vizamyl'
p6120
aS'vogelxo'
p6121
aS'volmax'
p6122
aS'voltaren'
p6123
aS'voltaren-xr'
p6124
aS'vontrol'
p6125
aS'voriconazole'
p6126
aS'vosol'
p6127
aS'vosol hc'
p6128
aS'vospire er'
p6129
aS'votrient'
p6130
aS'vpriv'
p6131
aS'vumon'
p6132
aS'vusion'
p6133
aS'vyfemla'
p6134
aS'vytorin'
p6135
aS'vyvanse'
p6136
aS'wampocap'
p6137
aS'warfarin sodium'
p6138
aS'welchol'
p6139
aS'wellbutrin'
p6140
aS'wellbutrin sr'
p6141
aS'wellbutrin xl'
p6142
aS'wellcovorin'
p6143
aS'wera'
p6144
aS'westadone'
p6145
aS'westcort'
p6146
aS'wigraine'
p6147
aS'wigrettes'
p6148
aS'wilpo'
p6149
aS'winstrol'
p6150
aS'wolfina'
p6151
aS"women's rogaine"
p6152
aS'wyamine sulfate'
p6153
aS'wyamycin e'
p6154
aS'wyamycin s'
p6155
aS'wydase'
p6156
aS'wygesic'
p6157
aS'wymox'
p6158
aS'wytensin'
p6159
aS'x-trozine'
p6160
aS'x-trozine l.a.'
p6161
aS'xalatan'
p6162
aS'xalkori'
p6163
aS'xanax'
p6164
aS'xanax xr'
p6165
aS'xarelto'
p6166
aS'xartemis xr'
p6167
aS'xeljanz'
p6168
aS'xeloda'
p6169
aS'xenazine'
p6170
aS'xeneisol'
p6171
aS'xenical'
p6172
aS'xenon xe 127'
p6173
aS'xenon xe 133'
p6174
aS'xenon xe 133-v.s.s.'
p6175
aS'xerese'
p6176
aS'xibrom'
p6177
aS'xifaxan'
p6178
aS'xigduo xr'
p6179
aS'ximino'
p6180
aS'xofigo'
p6181
aS'xolegel'
p6182
aS'xopenex'
p6183
aS'xopenex hfa'
p6184
aS'xtandi'
p6185
aS'xtoro'
p6186
aS'xulane'
p6187
aS'xylo-pfan'
p6188
aS'xylocaine'
p6189
aS'xylocaine 1.5% w/ dextrose 7.5%'
p6190
aS'xylocaine 4% preservative free'
p6191
aS'xylocaine 5% w/ glucose 7.5%'
p6192
aS'xylocaine dental'
p6193
aS'xylocaine dental with epinephrine'
p6194
aS'xylocaine preservative free'
p6195
aS'xylocaine viscous'
p6196
aS'xylocaine w/ epinephrine'
p6197
aS'xylose'
p6198
aS'xyrem'
p6199
aS'xyzal'
p6200
aS'yaela'
p6201
aS'yasmin'
p6202
aS'yaz'
p6203
aS'ytterbium yb 169 dtpa'
p6204
aS'yutopar'
p6205
aS'zaditor'
p6206
aS'zafirlukast'
p6207
aS'zagam'
p6208
aS'zaleplon'
p6209
aS'zanaflex'
p6210
aS'zanosar'
p6211
aS'zantac'
p6212
aS'zantac 150'
p6213
aS'zantac 25'
p6214
aS'zantac 300'
p6215
aS'zantac 75'
p6216
aS'zantac in plastic container'
p6217
aS'zarontin'
p6218
aS'zaroxolyn'
p6219
aS'zavesca'
p6220
aS'zaxopam'
p6221
aS'zebeta'
p6222
aS'zecuity'
p6223
aS'zefazone'
p6224
aS'zefazone in plastic container'
p6225
aS'zegerid'
p6226
aS'zegerid otc'
p6227
aS'zelapar'
p6228
aS'zelboraf'
p6229
aS'zelnorm'
p6230
aS'zemplar'
p6231
aS'zemuron'
p6232
aS'zenatane'
p6233
aS'zenpep'
p6234
aS'zerbaxa'
p6235
aS'zerit'
p6236
aS'zerit xr'
p6237
aS'zestoretic'
p6238
aS'zestril'
p6239
aS'zetia'
p6240
aS'zetonna'
p6241
aS'ziac'
p6242
aS'ziagen'
p6243
aS'ziana'
p6244
aS'ziba-rx'
p6245
aS'zide'
p6246
aS'zidovudine'
p6247
aS'zinacef'
p6248
aS'zinacef in plastic container'
p6249
aS'zinc bacitracin,neomycin sulfate,polymyxin b sulfate & hydrocortisone'
p6250
aS'zinc chloride in plastic container'
p6251
aS'zinc sulfate'
p6252
aS'zinecard'
p6253
aS'zingo'
p6254
aS'zioptan'
p6255
aS'zipan-25'
p6256
aS'zipan-50'
p6257
aS'ziprasidone hydrochloride'
p6258
aS'zipsor'
p6259
aS'zirgan'
p6260
aS'zithromax'
p6261
aS'zmax'
p6262
aS'zocor'
p6263
aS'zofran'
p6264
aS'zofran and dextrose in plastic container'
p6265
aS'zofran odt'
p6266
aS'zofran preservative free'
p6267
aS'zohydro er'
p6268
aS'zoladex'
p6269
aS'zoledronic acid'
p6270
aS'zolinza'
p6271
aS'zolmitriptan'
p6272
aS'zoloft'
p6273
aS'zolpidem tartrate'
p6274
aS'zolpimist'
p6275
aS'zolyse'
p6276
aS'zomacton'
p6277
aS'zometa'
p6278
aS'zomig'
p6279
aS'zomig-zmt'
p6280
aS'zonalon'
p6281
aS'zonegran'
p6282
aS'zonisamide'
p6283
aS'zontivity'
p6284
aS'zorbtive'
p6285
aS'zortress'
p6286
aS'zorvolex'
p6287
aS'zosyn'
p6288
aS'zosyn in plastic container'
p6289
aS'zovia 1/35e-21'
p6290
aS'zovia 1/35e-28'
p6291
aS'zovia 1/50e-21'
p6292
aS'zovia 1/50e-28'
p6293
aS'zovirax'
p6294
aS'zubsolv'
p6295
aS'zuplenz'
p6296
aS'zutripro'
p6297
aS'zyban'
p6298
aS'zyclara'
p6299
aS'zydelig'
p6300
aS'zydone'
p6301
aS'zyflo'
p6302
aS'zyflo cr'
p6303
aS'zykadia'
p6304
aS'zylet'
p6305
aS'zyloprim'
p6306
aS'zymar'
p6307
aS'zymaxid'
p6308
aS'zyprexa'
p6309
aS'zyprexa relprevv'
p6310
aS'zyprexa zydis'
p6311
aS'zyrtec'
p6312
aS'zyrtec allergy'
p6313
aS'zyrtec hives relief'
p6314
aS'zyrtec-d 12 hour'
p6315
aS'zytiga'
p6316
aS'zyvox'
p6317
a.