(lp0
S'8-mop'
p1
aS'a-hydrocort'
p2
aS'a-methapred'
p3
aS'abacavir sulfate'
p4
aS'abacavir sulfate, lamivudine and zidovudine'
p5
aS'abelcet'
p6
aS'abilify'
p7
aS'abilify maintena kit'
p8
aS'ablavar'
p9
aS'abraxane'
p10
aS'abreva'
p11
aS'absorica'
p12
aS'abstral'
p13
aS'acamprosate calcium'
p14
aS'acanya'
p15
aS'acarbose'
p16
aS'accolate'
p17
aS'accuneb'
p18
aS'accupril'
p19
aS'accuretic'
p20
aS'acebutolol hydrochloride'
p21
aS'aceon'
p22
aS'acephen'
p23
aS'acetadote'
p24
aS'acetaminophen'
p25
aS'acetaminophen and codeine phosphate'
p26
aS'acetaminophen, aspirin and caffeine'
p27
aS'acetasol hc'
p28
aS'acetazolamide'
p29
aS'acetazolamide sodium'
p30
aS'acetazolamide sodium '
p31
aS'acetic acid'
p32
aS'acetic acid 0.25% in plastic container'
p33
aS'acetic acid 2% in aqueous aluminum acetate'
p34
aS'acetylcysteine'
p35
aS'achromycin v'
p36
aS'aciphex'
p37
aS'aciphex sprinkle'
p38
aS'acitretin'
p39
aS'acova'
p40
aS'acthrel'
p41
aS'acticlate'
p42
aS'actigall'
p43
aS'actiq'
p44
aS'activella'
p45
aS'actonel'
p46
aS'actoplus met'
p47
aS'actoplus met xr'
p48
aS'actos'
p49
aS'acular'
p50
aS'acular ls'
p51
aS'acuvail'
p52
aS'acyclovir'
p53
aS'acyclovir in sodium chloride 0.9% preservative free'
p54
aS'acyclovir sodium'
p55
aS'aczone'
p56
aS'adagen'
p57
aS'adalat cc'
p58
aS'adapalene'
p59
aS'adasuve'
p60
aS'adcirca'
p61
aS'adderall xr 10'
p62
aS'adderall xr 15'
p63
aS'adderall xr 20'
p64
aS'adderall xr 25'
p65
aS'adderall xr 30'
p66
aS'adderall xr 5'
p67
aS'adefovir dipivoxil'
p68
aS'adempas'
p69
aS'adenocard'
p70
aS'adenoscan'
p71
aS'adenosine'
p72
aS'adipex-p'
p73
aS'adrenaclick'
p74
aS'adrenalin'
p75
aS'adreview'
p76
aS'advair diskus 100/50'
p77
aS'advair diskus 250/50'
p78
aS'advair diskus 500/50'
p79
aS'advair hfa'
p80
aS'advicor'
p81
aS'advil'
p82
aS'advil allergy and congestion relief'
p83
aS'advil allergy sinus'
p84
aS'advil cold and sinus'
p85
aS'advil congestion relief'
p86
aS'advil liqui-gels'
p87
aS'advil migraine liqui-gels'
p88
aS'advil pm'
p89
aS'aerospan hfa'
p90
aS'afeditab cr'
p91
aS'afinitor'
p92
aS'afinitor disperz'
p93
aS'afrezza'
p94
aS'afrinol'
p95
aS'aggrastat'
p96
aS'aggrenox'
p97
aS'agrylin'
p98
aS'ak-fluor 10%'
p99
aS'ak-fluor 25%'
p100
aS'akbeta'
p101
aS'akineton'
p102
aS'akne-mycin'
p103
aS'akpentolate'
p104
aS'akten'
p105
aS'aktob'
p106
aS'akynzeo'
p107
aS'ala-cort'
p108
aS'ala-scalp'
p109
aS'alavert'
p110
aS'alaway'
p111
aS'albenza'
p112
aS'albuterol sulfate'
p113
aS'albuterol sulfate and ipratropium bromide'
p114
aS'alcaine'
p115
aS'alclometasone dipropionate'
p116
aS'alcohol 10% and dextrose 5%'
p117
aS'alcohol 5% and dextrose 5%'
p118
aS'aldactazide'
p119
aS'aldactone'
p120
aS'aldara'
p121
aS'alendronate sodium'
p122
aS'aleve'
p123
aS'aleve pm'
p124
aS'aleve-d sinus & cold'
p125
aS'alfenta'
p126
aS'alfentanil'
p127
aS'alfuzosin hydrochloride'
p128
aS'alimta'
p129
aS'alinia'
p130
aS'alkeran'
p131
aS'allegra'
p132
aS'allegra allergy'
p133
aS'allegra hives'
p134
aS'allegra-d 12 hour allergy and congestion'
p135
aS'allegra-d 24 hour allergy and congestion'
p136
aS'alli'
p137
aS'allopurinol'
p138
aS'allopurinol sodium'
p139
aS'alocril'
p140
aS'alomide'
p141
aS'aloprim'
p142
aS'alora'
p143
aS'alosetron hydrochloride'
p144
aS'aloxi'
p145
aS'alphagan p'
p146
aS'alprazolam'
p147
aS'alprostadil'
p148
aS'alrex'
p149
aS'alsuma'
p150
aS'altabax'
p151
aS'altace'
p152
aS'altavera'
p153
aS'altoprev'
p154
aS'alvesco'
p155
aS'alyacen 1/35'
p156
aS'alyacen 7/7/7'
p157
aS'amantadine hydrochloride'
p158
aS'amaryl'
p159
aS'ambien'
p160
aS'ambien cr'
p161
aS'ambisome'
p162
aS'amcinonide'
p163
aS'amerge'
p164
aS'amicar'
p165
aS'amidate'
p166
aS'amifostine'
p167
aS'amikacin sulfate'
p168
aS'amiloride hydrochloride'
p169
aS'amiloride hydrochloride and hydrochlorothiazide'
p170
aS'amino acids'
p171
aS'aminoacetic acid 1.5% in plastic container'
p172
aS'aminocaproic'
p173
aS'aminocaproic acid'
p174
aS'aminocaproic acid in plastic container'
p175
aS'aminophylline'
p176
aS'aminosyn 10%'
p177
aS'aminosyn 10% (ph6)'
p178
aS'aminosyn 3.5%'
p179
aS'aminosyn 3.5% m'
p180
aS'aminosyn 5%'
p181
aS'aminosyn 7%'
p182
aS'aminosyn 7% (ph6)'
p183
aS'aminosyn 7% w/ electrolytes'
p184
aS'aminosyn 8.5%'
p185
aS'aminosyn 8.5% (ph6)'
p186
aS'aminosyn 8.5% w/ electrolytes'
p187
aS'aminosyn ii 10%'
p188
aS'aminosyn ii 10% in plastic container'
p189
aS'aminosyn ii 10% w/ electrolytes'
p190
aS'aminosyn ii 15% in plastic container'
p191
aS'aminosyn ii 7%'
p192
aS'aminosyn ii 8.5%'
p193
aS'aminosyn ii 8.5% w/ electrolytes'
p194
aS'aminosyn-hbc 7%'
p195
aS'aminosyn-hf 8%'
p196
aS'aminosyn-pf 10%'
p197
aS'aminosyn-pf 7%'
p198
aS'aminosyn-rf 5.2%'
p199
aS'amiodarone hydrochloride'
p200
aS'amitiza'
p201
aS'amitriptyline hydrochloride'
p202
aS'amlodipine besylate'
p203
aS'amlodipine besylate and atorvastatin calcium'
p204
aS'amlodipine besylate and benazepril hydrochloride'
p205
aS'amlodipine besylate and valsartan'
p206
aS'amlodipine,valsartan and hydrochlorothiazide'
p207
aS'ammonia n 13'
p208
aS'ammonium chloride in plastic container'
p209
aS'ammonium lactate'
p210
aS'ammonul'
p211
aS'amnesteem'
p212
aS'amoxapine'
p213
aS'amoxicillin'
p214
aS'amoxicillin and clavulanate potassium'
p215
aS'amoxicillin pediatric'
p216
aS'amoxil'
p217
aS'amphadase'
p218
aS'amphetamine asp amphetamine sulf dextroamphet saccharate & dextr sulf'
p219
aS'amphotec'
p220
aS'amphotericin b'
p221
aS'ampicillin and sulbactam'
p222
aS'ampicillin sodium'
p223
aS'ampicillin trihydrate'
p224
aS'ampyra'
p225
aS'amrinone lactate'
p226
aS'amrix'
p227
aS'amturnide'
p228
aS'amyvid'
p229
aS'an-dtpa'
p230
aS'an-sulfur colloid'
p231
aS'anadrol-50'
p232
aS'anafranil'
p233
aS'anagrelide hydrochloride'
p234
aS'anaprox'
p235
aS'anaprox ds'
p236
aS'anastrozole'
p237
aS'ancef in plastic container'
p238
aS'ancobon'
p239
aS'androderm'
p240
aS'androgel'
p241
aS'android 10'
p242
aS'android 25'
p243
aS'anectine'
p244
aS'anexsia 5/325'
p245
aS'anexsia 7.5/325'
p246
aS'angeliq'
p247
aS'angiomax'
p248
aS'anoro ellipta'
p249
aS'ansaid'
p250
aS'antabuse'
p251
aS'antara (micronized)'
p252
aS'anthelios 20'
p253
aS'anthelios 40'
p254
aS'anthelios sx'
p255
aS'antizol'
p256
aS'anusol hc'
p257
aS'anzemet'
p258
aS'apidra'
p259
aS'apidra solostar'
p260
aS'aplenzin'
p261
aS'apokyn'
p262
aS'apraclonidine hydrochloride'
p263
aS'aprepitant'
p264
aS'apriso'
p265
aS'aptensio xr'
p266
aS'aptiom'
p267
aS'aptivus'
p268
aS'aquasol a'
p269
aS'aralen'
p270
aS'aranelle'
p271
aS'arava'
p272
aS'arcapta neohaler'
p273
aS'arestin'
p274
aS'argatroban'
p275
aS'argatroban in 0.9% sodium chloride'
p276
aS'argatroban in sodium chloride'
p277
aS'aricept'
p278
aS'aricept odt'
p279
aS'arimidex'
p280
aS'aripiprazole'
p281
aS'aristospan'
p282
aS'arixtra'
p283
aS'arnuity ellipta'
p284
aS'aromasin'
p285
aS'arranon'
p286
aS'arthrotec'
p287
aS'articaine hydrochloride and epinephrine bitartrate'
p288
aS'asacol'
p289
aS'asacol hd'
p290
aS'asclera'
p291
aS'ashlyna'
p292
aS'asmanex hfa'
p293
aS'asmanex twisthaler'
p294
aS'aspirin'
p295
aS'aspirin and dipyridamole'
p296
aS'astagraf xl'
p297
aS'astelin'
p298
aS'astepro'
p299
aS'astramorph pf'
p300
aS'atacand'
p301
aS'atacand hct'
p302
aS'atazanavir sulfate'
p303
aS'atelvia'
p304
aS'atenolol'
p305
aS'atenolol and chlorthalidone'
p306
aS'ativan'
p307
aS'atorvastatin calcium'
p308
aS'atovaquone'
p309
aS'atovaquone and proguanil hydrochloride'
p310
aS'atracurium besylate'
p311
aS'atracurium besylate preservative free'
p312
aS'atralin'
p313
aS'atridox'
p314
aS'atripla'
p315
aS'atropen'
p316
aS'atropine sulfate'
p317
aS'atropine sulfate ansyr plastic syringe'
p318
aS'atrovent'
p319
aS'atrovent hfa'
p320
aS'aubagio'
p321
aS"augmentin '125'"
p322
aS"augmentin '200'"
p323
aS"augmentin '250'"
p324
aS"augmentin '400'"
p325
aS"augmentin '500'"
p326
aS"augmentin '875'"
p327
aS'augmentin es-600'
p328
aS'augmentin xr'
p329
aS'auryxia'
p330
aS'auvi-q'
p331
aS'avagard'
p332
aS'avage'
p333
aS'avalide'
p334
aS'avandamet'
p335
aS'avandaryl'
p336
aS'avandia'
p337
aS'avapro'
p338
aS'avc'
p339
aS'aveed'
p340
aS'avelox'
p341
aS'avelox in sodium chloride 0.8% in plastic container'
p342
aS'aviane-28'
p343
aS'avinza'
p344
aS'avita'
p345
aS'avodart'
p346
aS'avycaz'
p347
aS'axert'
p348
aS'axid'
p349
aS'axid ar'
p350
aS'axiron'
p351
aS'aygestin'
p352
aS'azacitidine'
p353
aS'azactam'
p354
aS'azactam in plastic container'
p355
aS'azasan'
p356
aS'azasite'
p357
aS'azathioprine'
p358
aS'azathioprine sodium'
p359
aS'azelastine hydrochloride'
p360
aS'azelex'
p361
aS'azilect'
p362
aS'azithromycin'
p363
aS'azopt'
p364
aS'azor'
p365
aS'aztreonam'
p366
aS'azulfidine'
p367
aS'azulfidine en-tabs'
p368
aS'baciim'
p369
aS'bacitracin'
p370
aS'bacitracin zinc and polymyxin b sulfate'
p371
aS'bacitracin-neomycin-polymyxin w/ hydrocortisone acetate'
p372
aS'baclofen'
p373
aS'bacteriostatic sodium chloride 0.9% in plastic container'
p374
aS'bacteriostatic water for injection in plastic container'
p375
aS'bactocill in plastic container'
p376
aS'bactrim'
p377
aS'bactrim ds'
p378
aS'bactroban'
p379
aS'bal'
p380
aS'balanced salt'
p381
aS'balsalazide disodium'
p382
aS'balziva-28'
p383
aS'banzel'
p384
aS'baraclude'
p385
aS'beconase aq'
p386
aS'beleodaq'
p387
aS'belsomra'
p388
aS'belviq'
p389
aS'benazepril hydrochloride'
p390
aS'benazepril hydrochloride and hydrochlorothiazide'
p391
aS'benicar'
p392
aS'benicar hct'
p393
aS'bentyl'
p394
aS'bentyl preservative free'
p395
aS'benzaclin'
p396
aS'benzamycin'
p397
aS'benzamycin pak'
p398
aS'benzonatate'
p399
aS'benzphetamine hydrochloride'
p400
aS'benztropine mesylate'
p401
aS'bepreve'
p402
aS'besivance'
p403
aS'beta-val'
p404
aS'betadine'
p405
aS'betagan'
p406
aS'betamethasone acetate and betamethasone sodium phosphate'
p407
aS'betamethasone dipropionate'
p408
aS'betamethasone valerate'
p409
aS'betapace'
p410
aS'betapace af'
p411
aS'betaxolol hydrochloride'
p412
aS'bethanechol chloride'
p413
aS'bethkis'
p414
aS'betimol'
p415
aS'betoptic'
p416
aS'betoptic s'
p417
aS'beyaz'
p418
aS'biaxin'
p419
aS'bicalutamide'
p420
aS'bicillin c-r'
p421
aS'bicillin c-r 900/300'
p422
aS'bicillin l-a'
p423
aS'bicnu'
p424
aS'bidil'
p425
aS'biltricide'
p426
aS'bimatoprost'
p427
aS'binosto'
p428
aS'bioscrub'
p429
aS'bisoprolol fumarate'
p430
aS'bisoprolol fumarate and hydrochlorothiazide'
p431
aS'bleomycin sulfate'
p432
aS'bleph-10'
p433
aS'blephamide'
p434
aS'blephamide s.o.p.'
p435
aS'bloxiverz'
p436
aS'boniva'
p437
aS'bontril pdm'
p438
aS'bosulif'
p439
aS'bravelle'
p440
aS'breo ellipta'
p441
aS'bretylium tosylate in dextrose 5% in plastic container'
p442
aS'brevibloc'
p443
aS'brevibloc double strength in plastic container'
p444
aS'brevibloc in plastic container'
p445
aS'brevicon 28-day'
p446
aS'brevital sodium'
p447
aS'brian care'
p448
aS'briellyn'
p449
aS'brilinta'
p450
aS'brimonidine tartrate'
p451
aS'brintellix'
p452
aS'brisdelle'
p453
aS'bromday'
p454
aS'bromfed-dm'
p455
aS'bromfenac sodium'
p456
aS'bromocriptine mesylate'
p457
aS'brompheniramine maleate, pseudoephedrine hydrochloride and dextromethorphan hydrobromide'
p458
aS'broncho saline'
p459
aS'brovana'
p460
aS'bss'
p461
aS'bss plus'
p462
aS'budesonide'
p463
aS'bumetanide'
p464
aS'bunavail'
p465
aS'buphenyl'
p466
aS'bupivacaine hydrochloride'
p467
aS'bupivacaine hydrochloride and epinephrine'
p468
aS'bupivacaine hydrochloride preservative free'
p469
aS'bupivacaine hydrochloride w/epinephrine'
p470
aS'buprenex'
p471
aS'buprenorphine hydrochloride'
p472
aS'buprenorphine hydrochloride and naloxone hydrochloride'
p473
aS'buprenorphine hydrochloride and naloxone hydrochloride '
p474
aS'bupropion hydrochloride'
p475
aS'buspirone hydrochloride'
p476
aS'busulfex'
p477
aS'butalbital and acetaminophen'
p478
aS'butalbital, acetaminophen and caffeine'
p479
aS'butalbital, acetaminophen, caffeine and codeine phosphate'
p480
aS'butalbital, aspirin and caffeine'
p481
aS'butalbital, aspirin, caffeine, and codeine phosphate'
p482
aS'butapap'
p483
aS'butisol sodium'
p484
aS'butoconazole nitrate'
p485
aS'butorphanol tartrate'
p486
aS'butorphanol tartrate preservative free'
p487
aS'butrans'
p488
aS'bydureon'
p489
aS'byetta'
p490
aS'bystolic'
p491
aS'c-solve-2'
p492
aS'cabergoline'
p493
aS'caduet'
p494
aS'cafcit'
p495
aS'cafergot'
p496
aS'caffeine citrate'
p497
aS'calan'
p498
aS'calan sr'
p499
aS'calcijex'
p500
aS'calcipotriene'
p501
aS'calcipotriene and betamethasone dipropionate'
p502
aS'calcitonin-salmon'
p503
aS'calcitriol'
p504
aS'calcium acetate'
p505
aS'calcium carbonate, famotidine and magnesium hydroxide'
p506
aS'calcium chloride 10% in plastic container'
p507
aS'calcium disodium versenate'
p508
aS'caldolor'
p509
aS'cambia'
p510
aS'camila'
p511
aS'campral'
p512
aS'camptosar'
p513
aS'canasa'
p514
aS'cancidas'
p515
aS'candesartan cilexetil'
p516
aS'candesartan cilexetil and hydrochlorothiazide'
p517
aS'cantil'
p518
aS'capastat sulfate'
p519
aS'capecitabine'
p520
aS'capex'
p521
aS'capital and codeine'
p522
aS'capital soleil 15'
p523
aS'capoten'
p524
aS'caprelsa'
p525
aS'captopril'
p526
aS'captopril and hydrochlorothiazide'
p527
aS'carac'
p528
aS'carafate'
p529
aS'carbaglu'
p530
aS'carbamazepine'
p531
aS'carbatrol'
p532
aS'carbidopa'
p533
aS'carbidopa and levodopa'
p534
aS'carbidopa, levodopa and entacapone'
p535
aS'carbinoxamine maleate'
p536
aS'carbocaine'
p537
aS'carboplatin'
p538
aS'cardene'
p539
aS'cardene in 0.83% sodium chloride in plastic container'
p540
aS'cardene in 0.86% sodium chloride in plastic container'
p541
aS'cardene in 4.8% dextrose in plastic container'
p542
aS'cardene in 5.0% dextrose in plastic container'
p543
aS'cardiogen-82'
p544
aS'cardiolite'
p545
aS'cardioplegic in plastic container'
p546
aS'cardizem'
p547
aS'cardizem cd'
p548
aS'cardizem la'
p549
aS'cardura'
p550
aS'cardura xl'
p551
aS'carisoprodol'
p552
aS'carisoprodol and aspirin'
p553
aS'carisoprodol, aspirin and codeine phosphate'
p554
aS'carnitor'
p555
aS'carnitor sf'
p556
aS'carteolol hydrochloride'
p557
aS'cartia xt'
p558
aS'carvedilol'
p559
aS'casodex'
p560
aS'cataflam'
p561
aS'catapres'
p562
aS'catapres-tts-1'
p563
aS'catapres-tts-2'
p564
aS'catapres-tts-3'
p565
aS'caverject'
p566
aS'caverject impulse'
p567
aS'cayston'
p568
aS'cedax'
p569
aS'cefaclor'
p570
aS'cefadroxil'
p571
aS'cefazolin and dextrose'
p572
aS'cefazolin sodium'
p573
aS'cefdinir'
p574
aS'cefepime and dextrose in duplex container'
p575
aS'cefepime hydrochloride'
p576
aS'cefepime in plastic container'
p577
aS'cefixime'
p578
aS'cefotaxime'
p579
aS'cefotaxime sodium'
p580
aS'cefotetan'
p581
aS'cefotetan and dextrose in duplex container'
p582
aS'cefoxitin'
p583
aS'cefoxitin and dextrose in duplex container'
p584
aS'cefpodoxime proxetil'
p585
aS'cefprozil'
p586
aS'ceftazidime'
p587
aS'ceftazidime in dextrose container'
p588
aS'ceftin'
p589
aS'ceftriaxone'
p590
aS'ceftriaxone and dextrose in duplex container'
p591
aS'ceftriaxone in plastic container'
p592
aS'cefuroxime and dextrose in duplex container'
p593
aS'cefuroxime axetil'
p594
aS'cefuroxime sodium'
p595
aS'celebrex'
p596
aS'celecoxib'
p597
aS'celestone soluspan'
p598
aS'celexa'
p599
aS'cellcept'
p600
aS'celontin'
p601
aS'cenestin'
p602
aS'centany'
p603
aS'cephalexin'
p604
aS'cerdelga'
p605
aS'cerebyx'
p606
aS'ceretec'
p607
aS'cerezyme'
p608
aS'cerubidine'
p609
aS'cervidil'
p610
aS'cesamet'
p611
aS'cetamide'
p612
aS'cetirizine hydrochloride'
p613
aS'cetirizine hydrochloride allergy'
p614
aS'cetirizine hydrochloride and pseudoephedrine hydrochloride'
p615
aS'cetirizine hydrochloride hives'
p616
aS'cetirizine hydrochloride hives relief'
p617
aS'cetraxal'
p618
aS'cetrotide'
p619
aS'cevimeline'
p620
aS'cevimeline hydrochloride'
p621
aS'chantix'
p622
aS'chemet'
p623
aS'chenodiol'
p624
aS'chg scrub'
p625
aS"children's advil"
p626
aS"children's advil allergy sinus"
p627
aS"children's advil cold"
p628
aS"children's advil-flavored"
p629
aS"children's allegra allergy"
p630
aS"children's allegra hives"
p631
aS"children's cetirizine hydrochloride allergy"
p632
aS"children's cetirizine hydrochloride hives relief"
p633
aS"children's claritin"
p634
aS"children's elixsure"
p635
aS"children's fexofenadine hydrochloride allergy"
p636
aS"children's fexofenadine hydrochloride hives"
p637
aS"children's ibuprofen"
p638
aS"children's motrin"
p639
aS"children's motrin cold"
p640
aS"children's zyrtec allergy"
p641
aS"children's zyrtec hives relief"
p642
aS'chirhostim'
p643
aS'chlor-trimeton'
p644
aS'chloramphenicol sodium succinate'
p645
aS'chloraprep one-step'
p646
aS'chloraprep one-step frepp'
p647
aS'chloraprep one-step sepp'
p648
aS'chloraprep single swabstick'
p649
aS'chloraprep triple swabstick'
p650
aS'chloraprep with tint'
p651
aS'chlordiazepoxide and amitriptyline hydrochloride'
p652
aS'chlordiazepoxide hydrochloride'
p653
aS'chlorhexidine gluconate'
p654
aS'chloroprocaine hydrochloride'
p655
aS'chloroquine phosphate'
p656
aS'chlorothiazide'
p657
aS'chlorothiazide sodium'
p658
aS'chlorpheniramine maleate'
p659
aS'chlorpromazine hydrochloride'
p660
aS'chlorpropamide'
p661
aS'chlorthalidone'
p662
aS'chlorzoxazone'
p663
aS'cholac'
p664
aS'cholbam'
p665
aS'choledyl sa'
p666
aS'cholestyramine'
p667
aS'cholestyramine light'
p668
aS'choletec'
p669
aS'choline c-11'
p670
aS'cholografin meglumine'
p671
aS'chorionic gonadotropin'
p672
aS'chromic chloride in plastic container'
p673
aS'cialis'
p674
aS'ciclopirox'
p675
aS'cida-stat'
p676
aS'cidofovir'
p677
aS'cilostazol'
p678
aS'ciloxan'
p679
aS'cimetidine'
p680
aS'cimetidine hydrochloride'
p681
aS'cipro'
p682
aS'cipro hc'
p683
aS'cipro in dextrose 5% in plastic container'
p684
aS'ciprodex'
p685
aS'ciprofloxacin'
p686
aS'ciprofloxacin extended release'
p687
aS'ciprofloxacin hydrochloride'
p688
aS'ciprofloxacin in dextrose 5% in plastic container'
p689
aS'cis-mdp'
p690
aS'cis-pyro'
p691
aS'cisatracurium besylate'
p692
aS'cisatracurium besylate preservative free'
p693
aS'cisplatin'
p694
aS'citalopram hydrobromide'
p695
aS'citanest forte dental'
p696
aS'cladribine'
p697
aS'claforan'
p698
aS'claforan in dextrose 5% in plastic container'
p699
aS'claravis'
p700
aS'clarinex'
p701
aS'clarinex d 24 hour'
p702
aS'clarinex-d 12 hour'
p703
aS'clarithromycin'
p704
aS'claritin'
p705
aS'claritin hives relief'
p706
aS'claritin hives relief reditab'
p707
aS'claritin reditabs'
p708
aS'claritin-d'
p709
aS'claritin-d 24 hour'
p710
aS'clemastine fumarate'
p711
aS'cleocin'
p712
aS'cleocin hydrochloride'
p713
aS'cleocin phosphate'
p714
aS'cleocin phosphate in dextrose 5% in plastic container'
p715
aS'cleocin t'
p716
aS'cleviprex'
p717
aS'climara'
p718
aS'climara pro'
p719
aS'clinda-derm'
p720
aS'clindagel'
p721
aS'clindamycin hydrochloride'
p722
aS'clindamycin palmitate hydrochloride'
p723
aS'clindamycin phosphate'
p724
aS'clindamycin phosphate and benzoyl peroxide'
p725
aS'clindamycin phosphate in 5% dextrose in plastic container'
p726
aS'clindamycin phosphate in dextrose 5%'
p727
aS'clindesse'
p728
aS'clindets'
p729
aS'clinimix 2.75/10 sulfite free in dextrose 10% in plastic container'
p730
aS'clinimix 2.75/25 sulfite free in dextrose 25% in plastic container'
p731
aS'clinimix 2.75/5 sulfite free in dextrose 5% in plastic container'
p732
aS'clinimix 4.25/10 sulfite free in dextrose 10% in plastic container'
p733
aS'clinimix 4.25/20 sulfite free in dextrose 20% in plastic container'
p734
aS'clinimix 4.25/25 sulfite free in dextrose 25% in plastic container'
p735
aS'clinimix 4.25/5 sulfite free in dextrose 5% in plastic container'
p736
aS'clinimix 5/10 sulfite free in dextrose 10% in plastic container'
p737
aS'clinimix 5/15 sulfite free in dextrose 15% in plastic container'
p738
aS'clinimix 5/20 sulfite free in dextrose 20% in plastic container'
p739
aS'clinimix 5/25 sulfite free in dextrose 25% in plastic container'
p740
aS'clinimix 5/35 sulfite free in dextrose 35% in plastic container'
p741
aS'clinimix e 2.75/10 sulfite-free w/ elect in dextrose 10% w/ calcium in plastic container'
p742
aS'clinimix e 2.75/25 sulfite-free w/ elect in dextrose 25% w/ calcium in plastic container'
p743
aS'clinimix e 2.75/5 sulfite-free w/ elect in dextrose 5% w/ calcium in plastic container'
p744
aS'clinimix e 4.25/10 sulfite-free w/ elect in dextrose 10% w/ calcium in plastic container'
p745
aS'clinimix e 4.25/20 sulfite-free w/ elect in dextrose 20% w/ calcium in plastic container'
p746
aS'clinimix e 4.25/25 sulfite-free w/ elect in dextrose 25% w/ calcium in plastic container'
p747
aS'clinimix e 4.25/5 sulfite-free w/ elect in dextrose 5% w/ calcium in plastic container'
p748
aS'clinimix e 5/10 sulfite-free w/ elect in dextrose 10% w/ calcium in plastic container'
p749
aS'clinimix e 5/15 sulfite-free w/ elect in dextrose 15% w/ calcium in plastic container'
p750
aS'clinimix e 5/20 sulfite-free w/ elect in 20% dextrose w/ calcium in plastic container'
p751
aS'clinimix e 5/25 sulfite-free w/ elect in dextrose 25% w/ calcium in plastic container'
p752
aS'clinimix e 5/35 sulfite-free w/ elect in dextrose 35% w/ calcium in plastic container'
p753
aS'clinisol 15% sulfite free in plastic container'
p754
aS'clinolipid 20%'
p755
aS'clinoril'
p756
aS'clobetasol propionate'
p757
aS'clobetasol propionate (emollient)'
p758
aS'clobex'
p759
aS'cloderm'
p760
aS'clolar'
p761
aS'clomid'
p762
aS'clomiphene citrate'
p763
aS'clomipramine hydrochloride'
p764
aS'clonazepam'
p765
aS'clonidine'
p766
aS'clonidine hydrochloride'
p767
aS'clonidine hydrochloride '
p768
aS'clopidogrel'
p769
aS'clopidogrel bisulfate'
p770
aS'clorazepate dipotassium'
p771
aS'clorpres'
p772
aS'clotrimazole'
p773
aS'clotrimazole and betamethasone dipropionate'
p774
aS'clozapine'
p775
aS'clozaril'
p776
aS'coartem'
p777
aS'codeine sulfate'
p778
aS'cogentin'
p779
aS'col-probenecid'
p780
aS'colazal'
p781
aS'colcrys'
p782
aS'colestid'
p783
aS'colestipol hydrochloride'
p784
aS'colgate total'
p785
aS'colistimethate sodium'
p786
aS'colocort'
p787
aS'coly-mycin m'
p788
aS'coly-mycin s'
p789
aS'colyte'
p790
aS'colyte with flavor packs'
p791
aS'combigan'
p792
aS'combipatch'
p793
aS'combivent'
p794
aS'combivent respimat'
p795
aS'combivir'
p796
aS'cometriq'
p797
aS'commit'
p798
aS'complera'
p799
aS'compro'
p800
aS'comtan'
p801
aS'concerta'
p802
aS'condylox'
p803
aS'conray'
p804
aS'conray 30'
p805
aS'conray 43'
p806
aS'constilac'
p807
aS'constulose'
p808
aS'contrave'
p809
aS'conzip'
p810
aS'copaxone'
p811
aS'copegus'
p812
aS'cordarone'
p813
aS'cordran'
p814
aS'cordran sp'
p815
aS'coreg'
p816
aS'coreg cr'
p817
aS'corgard'
p818
aS'corlanor'
p819
aS'corlopam'
p820
aS'cormax'
p821
aS'cortef'
p822
aS'cortenema'
p823
aS'cortifoam'
p824
aS'cortisone acetate'
p825
aS'cortisporin'
p826
aS'cortrosyn'
p827
aS'corvert'
p828
aS'corzide'
p829
aS'cosmegen'
p830
aS'cosopt'
p831
aS'cosopt pf'
p832
aS'cosyntropin'
p833
aS'coumadin'
p834
aS'covera-hs'
p835
aS'cozaar'
p836
aS'creon'
p837
aS'cresemba'
p838
aS'crestor'
p839
aS'crinone'
p840
aS'crixivan'
p841
aS'crolom'
p842
aS'cromolyn sodium'
p843
aS'crotan'
p844
aS'cryselle'
p845
aS'cubicin'
p846
aS'cupric chloride in plastic container'
p847
aS'cuprimine'
p848
aS'curosurf'
p849
aS'cutivate'
p850
aS'cuvposa'
p851
aS'cyanocobalamin'
p852
aS'cyanokit'
p853
aS'cyclafem 1/35'
p854
aS'cyclafem 7/7/7'
p855
aS'cyclessa'
p856
aS'cyclobenzaprine hydrochloride'
p857
aS'cyclogyl'
p858
aS'cyclomydril'
p859
aS'cyclophosphamide'
p860
aS'cycloset'
p861
aS'cyclosporine'
p862
aS'cyklokapron'
p863
aS'cymbalta'
p864
aS'cyproheptadine hydrochloride'
p865
aS'cystadane'
p866
aS'cystagon'
p867
aS'cystaran'
p868
aS'cysto-conray ii'
p869
aS'cystografin'
p870
aS'cystografin dilute'
p871
aS'cysview kit'
p872
aS'cytarabine'
p873
aS'cytomel'
p874
aS'cytosar-u'
p875
aS'cytotec'
p876
aS'cytovene'
p877
aS'cytoxan (lyophilized)'
p878
aS'd.h.e. 45'
p879
aS'dacarbazine'
p880
aS'dacogen'
p881
aS'dactinomycin'
p882
aS'daliresp'
p883
aS'dalvance'
p884
aS'danazol'
p885
aS'dantrium'
p886
aS'dantrolene sodium'
p887
aS'dapsone'
p888
aS'daptomycin'
p889
aS'daraprim'
p890
aS'darifenacin hydrobromide'
p891
aS'dasetta 1/35'
p892
aS'dasetta 7/7/7'
p893
aS'datscan'
p894
aS'daunorubicin hydrochloride'
p895
aS'daunoxome'
p896
aS'daypro'
p897
aS'daysee'
p898
aS'daytrana'
p899
aS'ddavp'
p900
aS'ddavp (needs no refrigeration)'
p901
aS'decitabine'
p902
aS'deferoxamine mesylate'
p903
aS'definity'
p904
aS'delatestryl'
p905
aS'delestrogen'
p906
aS'delflex w/ dextrose 1.5% in plastic container'
p907
aS'delflex w/ dextrose 1.5% low magnesium in plastic container'
p908
aS'delflex w/ dextrose 1.5% low magnesium low calcium in plastic container'
p909
aS'delflex w/ dextrose 2.5% in plastic container'
p910
aS'delflex w/ dextrose 2.5% low magnesium in plastic container'
p911
aS'delflex w/ dextrose 2.5% low magnesium low calcium in plastic container'
p912
aS'delflex w/ dextrose 3.5% in plastic container'
p913
aS'delflex w/ dextrose 4.25% in plastic container'
p914
aS'delflex w/ dextrose 4.25% low magnesium in plastic container'
p915
aS'delflex w/ dextrose 4.25% low magnesium low calcium in plastic container'
p916
aS'delflex-lm w/ dextrose 1.5% in plastic container'
p917
aS'delflex-lm w/ dextrose 2.5% in plastic container'
p918
aS'delflex-lm w/ dextrose 3.5% in plastic container'
p919
aS'delflex-lm w/ dextrose 4.25% in plastic container'
p920
aS'delsym'
p921
aS'delzicol'
p922
aS'demadex'
p923
aS'demeclocycline hydrochloride'
p924
aS'demerol'
p925
aS'demser'
p926
aS'denavir'
p927
aS'dendrid'
p928
aS'depacon'
p929
aS'depakene'
p930
aS'depakote'
p931
aS'depakote er'
p932
aS'depen'
p933
aS'depo-estradiol'
p934
aS'depo-medrol'
p935
aS'depo-provera'
p936
aS'depo-subq provera 104'
p937
aS'depo-testosterone'
p938
aS'depocyt'
p939
aS'derma-smoothe/fs'
p940
aS'dermabet'
p941
aS'dermatop'
p942
aS'dermatop e emollient'
p943
aS'dermotic'
p944
aS'desferal'
p945
aS'desipramine hydrochloride'
p946
aS'desloratadine'
p947
aS'desloratadine and pseudoephedrine sulfate 24 hour'
p948
aS'desmopressin acetate'
p949
aS'desmopressin acetate (needs no refrigeration)'
p950
aS'desogen'
p951
aS'desogestrel and ethinyl estradiol'
p952
aS'desonate'
p953
aS'desonide'
p954
aS'desowen'
p955
aS'desoximetasone'
p956
aS'desoxyn'
p957
aS'desvenlafaxine'
p958
aS'detrol'
p959
aS'detrol la'
p960
aS'dexamethasone'
p961
aS'dexamethasone intensol'
p962
aS'dexamethasone sodium phosphate'
p963
aS'dexasporin'
p964
aS'dexbrompheniramine maleate and pseudoephedrine sulfate'
p965
aS'dexchlorpheniramine maleate'
p966
aS'dexedrine'
p967
aS'dexferrum'
p968
aS'dexilant'
p969
aS'dexmedetomidine hydrochloride'
p970
aS'dexmethylphenidate hydrochloride'
p971
aS'dexrazoxane hydrochloride'
p972
aS'dextroamp saccharate, amp aspartate, dextroamp sulfate and amp sulfate'
p973
aS'dextroamp saccharate,amp aspartate,dextroamp sulfate and amp sulfate'
p974
aS'dextroamphetamine sulfate'
p975
aS'dextromethorphan polistirex'
p976
aS'dextrose 10% and sodium chloride 0.11% in plastic container'
p977
aS'dextrose 10% and sodium chloride 0.2% in plastic container'
p978
aS'dextrose 10% and sodium chloride 0.33% in plastic container'
p979
aS'dextrose 10% and sodium chloride 0.45% in plastic container'
p980
aS'dextrose 10% and sodium chloride 0.9% in plastic container'
p981
aS'dextrose 10% in plastic container'
p982
aS'dextrose 2.5% and sodium chloride 0.11% in plastic container'
p983
aS'dextrose 2.5% and sodium chloride 0.2% in plastic container'
p984
aS'dextrose 2.5% and sodium chloride 0.33% in plastic container'
p985
aS'dextrose 2.5% and sodium chloride 0.45% in plastic container'
p986
aS'dextrose 2.5% and sodium chloride 0.9% in plastic container'
p987
aS"dextrose 2.5% in half-strength lactated ringer's in plastic container"
p988
aS'dextrose 20% in plastic container'
p989
aS'dextrose 25%'
p990
aS'dextrose 3.3% and sodium chloride 0.3% in plastic container'
p991
aS'dextrose 30% in plastic container'
p992
aS'dextrose 40% in plastic container'
p993
aS'dextrose 5% and electrolyte no 75 in plastic container'
p994
aS'dextrose 5% and electrolyte no.48 in plastic container'
p995
aS"dextrose 5% and lactated ringer's in plastic container"
p996
aS'dextrose 5% and potassium chloride 0.075% in plastic container'
p997
aS'dextrose 5% and potassium chloride 0.15% in plastic container'
p998
aS'dextrose 5% and potassium chloride 0.224% in plastic container'
p999
aS'dextrose 5% and potassium chloride 0.3% in plastic container'
p1000
aS"dextrose 5% and ringer's in plastic container"
p1001
aS'dextrose 5% and sodium chloride 0.11% in plastic container'
p1002
aS'dextrose 5% and sodium chloride 0.2% in plastic container'
p1003
aS'dextrose 5% and sodium chloride 0.225% in plastic container'
p1004
aS'dextrose 5% and sodium chloride 0.3% in plastic container'
p1005
aS'dextrose 5% and sodium chloride 0.33% in plastic container'
p1006
aS'dextrose 5% and sodium chloride 0.45% in plastic container'
p1007
aS'dextrose 5% and sodium chloride 0.9% in plastic container'
p1008
aS"dextrose 5% in acetated ringer's in plastic container"
p1009
aS"dextrose 5% in lactated ringer's in plastic container"
p1010
aS'dextrose 5% in plastic container'
p1011
aS"dextrose 5% in ringer's in plastic container"
p1012
aS'dextrose 5% in sodium chloride 0.2% in plastic container'
p1013
aS'dextrose 5% in sodium chloride 0.33% in plastic container'
p1014
aS'dextrose 5% in sodium chloride 0.45% in plastic container'
p1015
aS'dextrose 5% in sodium chloride 0.9% in plastic container'
p1016
aS'dextrose 5%, sodium chloride 0.2% and potassium chloride 10meq'
p1017
aS'dextrose 5%, sodium chloride 0.2% and potassium chloride 15meq (k)'
p1018
aS'dextrose 5%, sodium chloride 0.2% and potassium chloride 20meq'
p1019
aS'dextrose 5%, sodium chloride 0.2% and potassium chloride 20meq (k)'
p1020
aS'dextrose 5%, sodium chloride 0.2% and potassium chloride 30meq'
p1021
aS'dextrose 5%, sodium chloride 0.2% and potassium chloride 40meq'
p1022
aS'dextrose 5%, sodium chloride 0.2% and potassium chloride 5meq'
p1023
aS'dextrose 5%, sodium chloride 0.2% and potassium chloride 5meq (k)'
p1024
aS'dextrose 5%, sodium chloride 0.33% and potassium chloride 10meq in plastic container'
p1025
aS'dextrose 5%, sodium chloride 0.33% and potassium chloride 15meq in plastic container'
p1026
aS'dextrose 5%, sodium chloride 0.33% and potassium chloride 20meq in plastic container'
p1027
aS'dextrose 5%, sodium chloride 0.33% and potassium chloride 30meq in plastic container'
p1028
aS'dextrose 5%, sodium chloride 0.33% and potassium chloride 40meq in plastic container'
p1029
aS'dextrose 5%, sodium chloride 0.33% and potassium chloride 5meq in plastic container'
p1030
aS'dextrose 5%, sodium chloride 0.45% and potassium chloride 20meq (k) in plastic container'
p1031
aS'dextrose 50% in plastic container'
p1032
aS'dextrose 60% in plastic container'
p1033
aS'dextrose 70% in plastic container'
p1034
aS'diabeta'
p1035
aS'diabinese'
p1036
aS'dialyte concentrate w/ dextrose 30% in plastic container'
p1037
aS'dialyte concentrate w/ dextrose 50% in plastic container'
p1038
aS'dialyte lm/ dextrose 1.5% in plastic container'
p1039
aS'dialyte lm/ dextrose 2.5% in plastic container'
p1040
aS'dialyte lm/ dextrose 4.25% in plastic container'
p1041
aS'diamox'
p1042
aS'dianeal 137 w/ dextrose 1.5% in plastic container'
p1043
aS'dianeal 137 w/ dextrose 2.5% in plastic container'
p1044
aS'dianeal 137 w/ dextrose 4.25% in plastic container'
p1045
aS'dianeal low calcium w/ dextrose 1.5% in plastic container'
p1046
aS'dianeal low calcium w/ dextrose 2.5% in plastic container'
p1047
aS'dianeal low calcium w/ dextrose 3.5% in plastic container'
p1048
aS'dianeal low calcium w/ dextrose 4.25% in plastic container'
p1049
aS'dianeal pd-1 w/ dextrose 1.5% in plastic container'
p1050
aS'dianeal pd-1 w/ dextrose 2.5% in plastic container'
p1051
aS'dianeal pd-1 w/ dextrose 3.5% in plastic container'
p1052
aS'dianeal pd-1 w/ dextrose 4.25% in plastic container'
p1053
aS'dianeal pd-2 w/ dextrose 1.5% in plastic container'
p1054
aS'dianeal pd-2 w/ dextrose 2.5% in plastic container'
p1055
aS'dianeal pd-2 w/ dextrose 3.5% in plastic container'
p1056
aS'dianeal pd-2 w/ dextrose 4.25% in plastic container'
p1057
aS'diastat'
p1058
aS'diastat acudial'
p1059
aS'diazepam'
p1060
aS'diazepam intensol'
p1061
aS'dibenzyline'
p1062
aS'diclegis'
p1063
aS'diclofenac potassium'
p1064
aS'diclofenac sodium'
p1065
aS'diclofenac sodium '
p1066
aS'diclofenac sodium and misoprostol'
p1067
aS'dicloxacillin sodium'
p1068
aS'dicyclomine hydrochloride'
p1069
aS'dicyclomine hydrochloride (preservative-free)'
p1070
aS'didanosine'
p1071
aS'didrex'
p1072
aS'didronel'
p1073
aS'diethylpropion hydrochloride'
p1074
aS'differin'
p1075
aS'dificid'
p1076
aS'diflorasone diacetate'
p1077
aS'diflucan'
p1078
aS'diflucan in dextrose 5% in plastic container'
p1079
aS'diflucan in sodium chloride 0.9%'
p1080
aS'diflucan in sodium chloride 0.9% in plastic container'
p1081
aS'diflunisal'
p1082
aS'digoxin'
p1083
aS'dihydroergotamine mesylate'
p1084
aS'dilantin'
p1085
aS'dilantin-125'
p1086
aS'dilatrate-sr'
p1087
aS'dilaudid'
p1088
aS'dilaudid-hp'
p1089
aS'dilt-cd'
p1090
aS'diltiazem hydrochloride'
p1091
aS'diltzac'
p1092
aS'dimenhydrinate'
p1093
aS'dimethyl sulfoxide'
p1094
aS'diovan'
p1095
aS'diovan hct'
p1096
aS'dipentum'
p1097
aS'diphenhydramine hydrochloride'
p1098
aS'diphenhydramine hydrochloride preservative free'
p1099
aS'diphenoxylate hydrochloride and atropine sulfate'
p1100
aS'diprivan'
p1101
aS'diprolene'
p1102
aS'diprolene af'
p1103
aS'dipyridamole'
p1104
aS'disopyramide phosphate'
p1105
aS'disulfiram'
p1106
aS'disulfiram '
p1107
aS'ditropan xl'
p1108
aS'diuril'
p1109
aS'divalproex sodium'
p1110
aS'divigel'
p1111
aS'dobutamine hydrochloride'
p1112
aS'dobutamine hydrochloride in dextrose 5% in plastic container'
p1113
aS'docefrez'
p1114
aS'docetaxel'
p1115
aS'dolophine hydrochloride'
p1116
aS'donepezil hydrochloride'
p1117
aS'dopamine hydrochloride'
p1118
aS'dopamine hydrochloride and dextrose 5%'
p1119
aS'dopamine hydrochloride and dextrose 5% in plastic container'
p1120
aS'dopamine hydrochloride in dextrose 5% in plastic container'
p1121
aS'dopram'
p1122
aS'doral'
p1123
aS'doribax'
p1124
aS'doryx'
p1125
aS'dorzolamide hydrochloride'
p1126
aS'dorzolamide hydrochloride and timolol maleate'
p1127
aS'dotarem'
p1128
aS'dovonex'
p1129
aS'doxapram hydrochloride'
p1130
aS'doxazosin mesylate'
p1131
aS'doxepin hydrochloride'
p1132
aS'doxercalciferol'
p1133
aS'doxil (liposomal)'
p1134
aS'doxorubicin hydrochloride'
p1135
aS'doxorubicin hydrochloride (liposomal)'
p1136
aS'doxteric'
p1137
aS'doxy 100'
p1138
aS'doxy 200'
p1139
aS'doxycycline'
p1140
aS'doxycycline hyclate'
p1141
aS'doxylamine succinate'
p1142
aS'draximage mdp-25'
p1143
aS'drisdol'
p1144
aS'dronabinol'
p1145
aS'droperidol'
p1146
aS'drospirenone and ethinyl estradiol'
p1147
aS'droxia'
p1148
aS'dtic-dome'
p1149
aS'dtpa'
p1150
aS'duac'
p1151
aS'duavee'
p1152
aS'duetact'
p1153
aS'duexis'
p1154
aS'dulera'
p1155
aS'duloxetine hydrochloride'
p1156
aS'duodote'
p1157
aS'duoneb'
p1158
aS'duopa'
p1159
aS'duraclon'
p1160
aS'duragesic-100'
p1161
aS'duragesic-12'
p1162
aS'duragesic-25'
p1163
aS'duragesic-50'
p1164
aS'duragesic-75'
p1165
aS'duramorph pf'
p1166
aS'duraprep'
p1167
aS'durezol'
p1168
aS'dutasteride'
p1169
aS'dutasteride and tamsulosin hydrochloride'
p1170
aS'dutoprol'
p1171
aS'dutrebis'
p1172
aS'duvoid'
p1173
aS'dyazide'
p1174
aS'dyloject'
p1175
aS'dymista'
p1176
aS'dyna-hex'
p1177
aS'dynacin'
p1178
aS'dyrenium'
p1179
aS'e-z scrub 201'
p1180
aS'e-z scrub 241'
p1181
aS'e.e.s.'
p1182
aS'e.e.s. 200'
p1183
aS'e.e.s. 400'
p1184
aS'ec-naprosyn'
p1185
aS'econazole nitrate'
p1186
aS'ecoza'
p1187
aS'edarbi'
p1188
aS'edarbyclor'
p1189
aS'edecrin'
p1190
aS'edex'
p1191
aS'edluar'
p1192
aS'edurant'
p1193
aS'effexor xr'
p1194
aS'effient'
p1195
aS'efudex'
p1196
aS'egrifta'
p1197
aS'eldepryl'
p1198
aS'elelyso'
p1199
aS'elepsia xr'
p1200
aS'elestat'
p1201
aS'elestrin'
p1202
aS'elidel'
p1203
aS'eligard'
p1204
aS'elimite'
p1205
aS'elinest'
p1206
aS'eliphos'
p1207
aS'eliquis'
p1208
aS'elixophyllin'
p1209
aS'ella'
p1210
aS'ellence'
p1211
aS'elliotts b solution'
p1212
aS'elmiron'
p1213
aS'elocon'
p1214
aS'eloxatin'
p1215
aS'emadine'
p1216
aS'embeda'
p1217
aS'embeline'
p1218
aS'embeline e'
p1219
aS'emcyt'
p1220
aS'emend'
p1221
aS'emla'
p1222
aS'emoquette'
p1223
aS'emsam'
p1224
aS'emtriva'
p1225
aS'enablex'
p1226
aS'enalapril maleate'
p1227
aS'enalapril maleate and hydrochlorothiazide'
p1228
aS'enalaprilat'
p1229
aS'endometrin'
p1230
aS'endosol extra'
p1231
aS'enflurane'
p1232
aS'enjuvia'
p1233
aS'enlon'
p1234
aS'enlon-plus'
p1235
aS'enoxaparin sodium'
p1236
aS'enoxaparin sodium (preservative free)'
p1237
aS'enpresse-28'
p1238
aS'enskyce'
p1239
aS'entacapone'
p1240
aS'entecavir'
p1241
aS'entereg'
p1242
aS'entocort ec'
p1243
aS'enulose'
p1244
aS'eovist'
p1245
aS'epaned kit'
p1246
aS'epanova'
p1247
aS'epiduo'
p1248
aS'epifoam'
p1249
aS'epinastine hydrochloride'
p1250
aS'epinephrine'
p1251
aS'epipen'
p1252
aS'epipen jr.'
p1253
aS'epirubicin hydrochloride'
p1254
aS'epitol'
p1255
aS'epivir'
p1256
aS'epivir-hbv'
p1257
aS'eplerenone'
p1258
aS'epoprostenol sodium'
p1259
aS'eprosartan mesylate'
p1260
aS'epzicom'
p1261
aS'equetro'
p1262
aS'eraxis'
p1263
aS'ergocalciferol'
p1264
aS'ergoloid mesylates'
p1265
aS'ergomar'
p1266
aS'ergotamine tartrate and caffeine'
p1267
aS'erivedge'
p1268
aS'erlotinib hydrochloride'
p1269
aS'errin'
p1270
aS'ertaczo'
p1271
aS'ery-tab'
p1272
aS'eryc'
p1273
aS'erygel'
p1274
aS'eryped'
p1275
aS'erythra-derm'
p1276
aS'erythro-statin'
p1277
aS'erythrocin'
p1278
aS'erythrocin stearate'
p1279
aS'erythromycin'
p1280
aS'erythromycin and benzoyl peroxide'
p1281
aS'erythromycin ethylsuccinate'
p1282
aS'erythromycin ethylsuccinate and sulfisoxazole acetyl'
p1283
aS'esbriet'
p1284
aS'escitalopram oxalate'
p1285
aS'esmolol hydrochloride'
p1286
aS'esomeprazole magnesium'
p1287
aS'esomeprazole sodium'
p1288
aS'esomeprazole strontium'
p1289
aS'estarylla'
p1290
aS'estazolam'
p1291
aS'estrace'
p1292
aS'estraderm'
p1293
aS'estradiol'
p1294
aS'estradiol and norethindrone acetate'
p1295
aS'estradiol and norgestimate'
p1296
aS'estradiol valerate'
p1297
aS'estrasorb'
p1298
aS'estring'
p1299
aS'estrogel'
p1300
aS'estropipate'
p1301
aS'estrostep fe'
p1302
aS'eszopiclone'
p1303
aS'ethambutol hydrochloride'
p1304
aS'ethamolin'
p1305
aS'ethosuximide'
p1306
aS'ethrane'
p1307
aS'ethyol'
p1308
aS'etidronate disodium'
p1309
aS'etodolac'
p1310
aS'etomidate'
p1311
aS'etopophos preservative free'
p1312
aS'etoposide'
p1313
aS'eurax'
p1314
aS'evamist'
p1315
aS'evekeo'
p1316
aS'evista'
p1317
aS'evoclin'
p1318
aS'evotaz'
p1319
aS'evoxac'
p1320
aS'evzio'
p1321
aS'exalgo'
p1322
aS'excedrin (migraine)'
p1323
aS'exelderm'
p1324
aS'exelon'
p1325
aS'exemestane'
p1326
aS'exforge'
p1327
aS'exforge hct'
p1328
aS'exidine'
p1329
aS'exjade'
p1330
aS'exparel'
p1331
aS'extended phenytoin sodium'
p1332
aS'extina'
p1333
aS'extraneal'
p1334
aS'fabior'
p1335
aS'factive'
p1336
aS'fallback solo'
p1337
aS'falmina'
p1338
aS'famciclovir'
p1339
aS'famotidine'
p1340
aS'famotidine preservative free'
p1341
aS'famotidine preservative free in plastic container'
p1342
aS'famvir'
p1343
aS'fanapt'
p1344
aS'fareston'
p1345
aS'farxiga'
p1346
aS'farydak'
p1347
aS'faslodex'
p1348
aS'fazaclo odt'
p1349
aS'felbamate'
p1350
aS'felbatol'
p1351
aS'feldene'
p1352
aS'felodipine'
p1353
aS'femara'
p1354
aS'femcon fe'
p1355
aS'femhrt'
p1356
aS'femring'
p1357
aS'femstat 3'
p1358
aS'femtrace'
p1359
aS'fenofibrate'
p1360
aS'fenofibrate (micronized)'
p1361
aS'fenofibric acid'
p1362
aS'fenoglide'
p1363
aS'fenoldopam mesylate'
p1364
aS'fenoprofen calcium'
p1365
aS'fentanyl citrate'
p1366
aS'fentanyl citrate preservative free'
p1367
aS'fentanyl-100'
p1368
aS'fentanyl-12'
p1369
aS'fentanyl-25'
p1370
aS'fentanyl-37'
p1371
aS'fentanyl-50'
p1372
aS'fentanyl-62'
p1373
aS'fentanyl-75'
p1374
aS'fentanyl-87'
p1375
aS'fentora'
p1376
aS'feraheme'
p1377
aS'ferriprox'
p1378
aS'ferrlecit'
p1379
aS'fetzima'
p1380
aS'fexofenadine hydrochloride'
p1381
aS'fexofenadine hydrochloride allergy'
p1382
aS'fexofenadine hydrochloride and pseudoephedrine hydrochloride'
p1383
aS'fexofenadine hydrochloride hives'
p1384
aS'fibricor'
p1385
aS'finacea'
p1386
aS'finasteride'
p1387
aS'fioricet w/ codeine'
p1388
aS'fiorinal'
p1389
aS'fiorinal w/codeine'
p1390
aS'firazyr'
p1391
aS'firmagon'
p1392
aS'flagyl'
p1393
aS'flagyl er'
p1394
aS'flagyl i.v. rtu in plastic container'
p1395
aS'flarex'
p1396
aS'flavored colestid'
p1397
aS'flavoxate hydrochloride'
p1398
aS'flecainide acetate'
p1399
aS'flector'
p1400
aS'flo-pred'
p1401
aS'flolan'
p1402
aS'flomax'
p1403
aS'flonase'
p1404
aS'flonase allergy relief'
p1405
aS'flovent diskus 100'
p1406
aS'flovent diskus 250'
p1407
aS'flovent diskus 50'
p1408
aS'flovent hfa'
p1409
aS'floxin otic'
p1410
aS'floxuridine'
p1411
aS'flucanazole in sodium chloride 0.9% in plastic container'
p1412
aS'fluconazole'
p1413
aS'fluconazole in dextrose 5% in plastic container'
p1414
aS'fluconazole in sodium chloride 0.9%'
p1415
aS'fluconazole in sodium chloride 0.9% in plastic container'
p1416
aS'flucytosine'
p1417
aS'fludarabine phosphate'
p1418
aS'fludeoxyglucose f 18'
p1419
aS'fludeoxyglucose f18'
p1420
aS'fludrocortisone acetate'
p1421
aS'flumadine'
p1422
aS'flumazenil'
p1423
aS'flunisolide'
p1424
aS'fluocinolone acetonide'
p1425
aS'fluocinonide'
p1426
aS'fluocinonide emulsified base'
p1427
aS'fluorescite'
p1428
aS'fluoroplex'
p1429
aS'fluorouracil'
p1430
aS'fluoxetine hydrochloride'
p1431
aS'fluoxymesterone'
p1432
aS'fluphenazine decanoate'
p1433
aS'fluphenazine hydrochloride'
p1434
aS'flurazepam hydrochloride'
p1435
aS'flurbiprofen'
p1436
aS'flurbiprofen sodium'
p1437
aS'flutamide'
p1438
aS'fluticasone propionate'
p1439
aS'fluvastatin sodium'
p1440
aS'fluvoxamine maleate'
p1441
aS'fml'
p1442
aS'fml forte'
p1443
aS'foamcoat'
p1444
aS'focalin'
p1445
aS'focalin xr'
p1446
aS'folic acid'
p1447
aS'follistim aq'
p1448
aS'folotyn'
p1449
aS'fomepizole'
p1450
aS'fondaparinux sodium'
p1451
aS'foradil'
p1452
aS'forane'
p1453
aS'forfivo xl'
p1454
aS'fortamet'
p1455
aS'fortaz'
p1456
aS'fortaz in plastic container'
p1457
aS'forteo'
p1458
aS'fortesta'
p1459
aS'fortical'
p1460
aS'fosamax'
p1461
aS'fosamax plus d'
p1462
aS'foscarnet sodium'
p1463
aS'foscavir'
p1464
aS'fosinopril sodium'
p1465
aS'fosinopril sodium and hydrochlorothiazide'
p1466
aS'fosphenytoin sodium'
p1467
aS'fosrenol'
p1468
aS'fragmin'
p1469
aS'freamine hbc 6.9%'
p1470
aS'freamine iii 10%'
p1471
aS'freamine iii 3% w/ electrolytes'
p1472
aS'freamine iii 8.5%'
p1473
aS'freamine iii 8.5% w/ electrolytes'
p1474
aS'frova'
p1475
aS'frovatriptan succinate'
p1476
aS'fulyzaq'
p1477
aS'furadantin'
p1478
aS'furosemide'
p1479
aS'fusilev'
p1480
aS'fuzeon'
p1481
aS'fycompa'
p1482
aS'gabapentin'
p1483
aS'gabitril'
p1484
aS'gablofen'
p1485
aS'gadavist'
p1486
aS'galantamine hydrobromide'
p1487
aS'gallium citrate ga 67'
p1488
aS'galzin'
p1489
aS'ganciclovir'
p1490
aS'ganirelix acetate'
p1491
aS'gastrocrom'
p1492
aS'gastrografin'
p1493
aS'gatifloxacin'
p1494
aS'gattex kit'
p1495
aS'gaviscon'
p1496
aS'gelnique'
p1497
aS'gelnique 3%'
p1498
aS'gemcitabine hydrochloride'
p1499
aS'gemfibrozil'
p1500
aS'gemzar'
p1501
aS'gen-xene'
p1502
aS'generlac'
p1503
aS'gengraf'
p1504
aS'genoptic'
p1505
aS'genotropin'
p1506
aS'genotropin preservative free'
p1507
aS'gentak'
p1508
aS'gentamicin sulfate'
p1509
aS'gentamicin sulfate in sodium chloride 0.9% in plastic container'
p1510
aS'geodon'
p1511
aS'giazo'
p1512
aS'gildagia'
p1513
aS'gildess 1.5/30'
p1514
aS'gildess 1/20'
p1515
aS'gildess 24 fe'
p1516
aS'gildess fe 1.5/30'
p1517
aS'gildess fe 1/20'
p1518
aS'gilenya'
p1519
aS'gilotrif'
p1520
aS'glatopa'
p1521
aS'gleevec'
p1522
aS'gleostine'
p1523
aS'gliadel'
p1524
aS'glimepiride'
p1525
aS'glipizide'
p1526
aS'glipizide and metformin hydrochloride'
p1527
aS'glofil-125'
p1528
aS'glucagen'
p1529
aS'glucagon'
p1530
aS'glucophage'
p1531
aS'glucophage xr'
p1532
aS'glucotrol'
p1533
aS'glucotrol xl'
p1534
aS'glucovance'
p1535
aS'glumetza'
p1536
aS'glyburide'
p1537
aS'glyburide (micronized)'
p1538
aS'glyburide and metformin hydrochloride'
p1539
aS'glycine 1.5% in plastic container'
p1540
aS'glycolax'
p1541
aS'glycopyrrolate'
p1542
aS'glydo'
p1543
aS'glynase'
p1544
aS'glyset'
p1545
aS'glyxambi'
p1546
aS'golytely'
p1547
aS'gonal-f'
p1548
aS'gonal-f rff'
p1549
aS'gonal-f rff redi-ject'
p1550
aS'gralise'
p1551
aS'granisetron hydrochloride'
p1552
aS'granisetron hydrochloride preservative free'
p1553
aS'granisteron hydrochloride'
p1554
aS'grifulvin v'
p1555
aS'gris-peg'
p1556
aS'griseofulvin'
p1557
aS'griseofulvin, ultramicrosize'
p1558
aS'griseofulvin,ultramicrosize'
p1559
aS'guaifenesin'
p1560
aS'guanabenz acetate'
p1561
aS'guanfacine hydrochloride'
p1562
aS'guanidine hydrochloride'
p1563
aS'gyne-lotrimin'
p1564
aS'gyne-lotrimin 3'
p1565
aS'gyne-lotrimin 3 combination pack'
p1566
aS'gyne-lotrimin combination pack'
p1567
aS'h.p. acthar gel'
p1568
aS'habitrol'
p1569
aS'halaven'
p1570
aS'halcion'
p1571
aS'haldol'
p1572
aS'halobetasol propionate'
p1573
aS'halog'
p1574
aS'haloperidol'
p1575
aS'haloperidol decanoate'
p1576
aS'harvoni'
p1577
aS'heather'
p1578
aS'hectorol'
p1579
aS'hemabate'
p1580
aS'hemangeol'
p1581
aS'heparin sodium'
p1582
aS'heparin sodium 1,000 units and sodium chloride 0.9% in plastic container'
p1583
aS'heparin sodium 1,000 units in sodium chloride 0.9% in plastic container'
p1584
aS'heparin sodium 10,000 units in dextrose 5% in plastic container'
p1585
aS'heparin sodium 12,500 units in dextrose 5% in plastic container'
p1586
aS'heparin sodium 12,500 units in sodium chloride 0.45% in plastic container'
p1587
aS'heparin sodium 2,000 units and sodium chloride 0.9% in plastic container'
p1588
aS'heparin sodium 2,000 units in sodium chloride 0.9% in plastic container'
p1589
aS'heparin sodium 20,000 units in dextrose 5% in plastic container'
p1590
aS'heparin sodium 25,000 units in dextrose 5% in plastic container'
p1591
aS'heparin sodium 25,000 units in sodium chloride 0.45% in plastic container'
p1592
aS'heparin sodium in plastic container'
p1593
aS'heparin sodium preservative free'
p1594
aS'hepatamine 8%'
p1595
aS'hepatolite'
p1596
aS'hepsera'
p1597
aS'herplex'
p1598
aS'hetlioz'
p1599
aS'hexabrix'
p1600
aS'hexalen'
p1601
aS'hibiclens'
p1602
aS'hibistat'
p1603
aS'hicon'
p1604
aS'hiprex'
p1605
aS'homatropine methylbromide and hydrocodone bitartrate'
p1606
aS'horizant'
p1607
aS'humalog'
p1608
aS'humalog kwikpen'
p1609
aS'humalog mix 50/50'
p1610
aS'humalog mix 50/50 kwikpen'
p1611
aS'humalog mix 75/25'
p1612
aS'humalog mix 75/25 kwikpen'
p1613
aS'humatrope'
p1614
aS'humulin 70/30'
p1615
aS'humulin 70/30 pen'
p1616
aS'humulin n'
p1617
aS'humulin r'
p1618
aS'humulin r pen'
p1619
aS'hycamtin'
p1620
aS'hydergine'
p1621
aS'hydra-zide'
p1622
aS'hydralazine hydrochloride'
p1623
aS'hydrea'
p1624
aS'hydrochlorothiazide'
p1625
aS'hydrocodone bitartrate and acetaminophen'
p1626
aS'hydrocodone bitartrate and chlorpheniramine maleate'
p1627
aS'hydrocodone bitartrate and homatropine methylbromide'
p1628
aS'hydrocodone bitartrate and ibuprofen'
p1629
aS'hydrocodone bitartrate and pseudoephedrine hydrochloride'
p1630
aS'hydrocodone bitartrate, chlorpheniramine maleate and pseudoephedrine hydrochloride'
p1631
aS'hydrocodone bitartrate, chlorpheniramine maleate and pseudoephedrine hydrochloride '
p1632
aS'hydrocodone polistirex and chlorpheniramine polistirex'
p1633
aS'hydrocodone polistirex and chlorpheniramne polistirex'
p1634
aS'hydrocortisone'
p1635
aS'hydrocortisone acetate'
p1636
aS'hydrocortisone and acetic acid'
p1637
aS'hydrocortisone butyrate'
p1638
aS'hydrocortisone in absorbase'
p1639
aS'hydrocortisone valerate'
p1640
aS'hydromorphone hydrochloride'
p1641
aS'hydroxocobalamin'
p1642
aS'hydroxychloroquine sulfate'
p1643
aS'hydroxyurea'
p1644
aS'hydroxyzine hydrochloride'
p1645
aS'hydroxyzine pamoate'
p1646
aS'hylenex recombinant'
p1647
aS'hysingla'
p1648
aS'hyzaar'
p1649
aS'ibandronate sodium'
p1650
aS'ibrance'
p1651
aS'ibu-tab'
p1652
aS'ibu-tab 200'
p1653
aS'ibuprofen'
p1654
aS'ibuprofen and diphenhydramine citrate'
p1655
aS'ibuprofen and diphenhydramine hydrochloride'
p1656
aS'ibuprofen and phenylephrine hydrochloride'
p1657
aS'ibuprofen and pseudoephedrine hydrochloride'
p1658
aS'ibuprohm'
p1659
aS'ibuprohm cold and sinus'
p1660
aS'ibutilide fumarate'
p1661
aS'ic-green'
p1662
aS'iclusig'
p1663
aS'idamycin pfs'
p1664
aS'idarubicin hydrochloride'
p1665
aS'idarubicin hydrochloride pfs'
p1666
aS'idkit:hp'
p1667
aS'ifex'
p1668
aS'ifosfamide'
p1669
aS'ifosfamide/mesna kit'
p1670
aS'ilevro'
p1671
aS'iluvien'
p1672
aS'imbruvica'
p1673
aS'imipenem and cilastatin'
p1674
aS'imipramine hydrochloride'
p1675
aS'imipramine pamoate'
p1676
aS'imiquimod'
p1677
aS'imitrex'
p1678
aS'imitrex statdose'
p1679
aS'imodium'
p1680
aS'imodium a-d'
p1681
aS'imodium a-d ez chews'
p1682
aS'imodium multi-symptom relief'
p1683
aS'impavido'
p1684
aS'implanon'
p1685
aS'imuran'
p1686
aS'inapsine'
p1687
aS'increlex'
p1688
aS'incruse ellipta '
p1689
aS'indapamide'
p1690
aS'inderal la'
p1691
aS'inderide-40/25'
p1692
aS'indiclor'
p1693
aS'indium in 111 chloride'
p1694
aS'indium in-111 oxyquinoline'
p1695
aS'indocin'
p1696
aS'indocyanine green'
p1697
aS'indomethacin'
p1698
aS'indomethacin sodium'
p1699
aS"infants' feverall"
p1700
aS'infasurf preservative free'
p1701
aS'infed'
p1702
aS'infumorph'
p1703
aS'infuvite adult'
p1704
aS'infuvite pediatric'
p1705
aS'infuvite pediatric (pharmacy bulk package)'
p1706
aS'injectafer'
p1707
aS'inlyta'
p1708
aS'innopran xl'
p1709
aS'inomax'
p1710
aS'inspra'
p1711
aS'integrilin'
p1712
aS'intelence'
p1713
aS'intermezzo'
p1714
aS'intralipid 10%'
p1715
aS'intralipid 20%'
p1716
aS'intralipid 30%'
p1717
aS'introvale'
p1718
aS'intuniv'
p1719
aS'invanz'
p1720
aS'invega'
p1721
aS'invega sustenna'
p1722
aS'invirase'
p1723
aS'invokamet'
p1724
aS'invokana'
p1725
aS'ionosol b and dextrose 5% in plastic container'
p1726
aS'ionosol mb and dextrose 5% in plastic container'
p1727
aS'iopidine'
p1728
aS'iosat'
p1729
aS'ipratropium bromide'
p1730
aS'iprivask'
p1731
aS'irbesartan'
p1732
aS'irbesartan and hydrochlorothiazide'
p1733
aS'irinotecan hydrochloride'
p1734
aS'isentress'
p1735
aS'isocaine hydrochloride'
p1736
aS'isoflurane'
p1737
aS'isolyte e in plastic container'
p1738
aS'isolyte h in dextrose 5% in plastic container'
p1739
aS'isolyte m in dextrose 5% in plastic container'
p1740
aS'isolyte p in dextrose 5% in plastic container'
p1741
aS'isolyte r in dextrose 5% in plastic container'
p1742
aS'isolyte s in dextrose 5% in plastic container'
p1743
aS'isolyte s in plastic container'
p1744
aS'isolyte s ph 7.4 in plastic container'
p1745
aS'isoniazid'
p1746
aS'isopto carpine'
p1747
aS'isordil'
p1748
aS'isosorbide dinitrate'
p1749
aS'isosorbide mononitrate'
p1750
aS'isosulfan blue'
p1751
aS'isotonic gentamicin sulfate in plastic container'
p1752
aS'isovue-200'
p1753
aS'isovue-250'
p1754
aS'isovue-300'
p1755
aS'isovue-370'
p1756
aS'isovue-m 200'
p1757
aS'isovue-m 300'
p1758
aS'isradipine'
p1759
aS'istalol'
p1760
aS'istodax'
p1761
aS'isuprel'
p1762
aS'itraconazole'
p1763
aS'ivermectin'
p1764
aS'ivy block'
p1765
aS'ixempra kit'
p1766
aS'izba'
p1767
aS'jadenu'
p1768
aS'jakafi'
p1769
aS'jalyn'
p1770
aS'jantoven'
p1771
aS'janumet'
p1772
aS'janumet xr'
p1773
aS'januvia'
p1774
aS'jardiance'
p1775
aS'jeanatope'
p1776
aS'jencycla'
p1777
aS'jentadueto'
p1778
aS'jevtana kit'
p1779
aS'jublia'
p1780
aS'junel 1.5/30'
p1781
aS'junel 1/20'
p1782
aS'junel fe 1.5/30'
p1783
aS'junel fe 1/20'
p1784
aS'junior strength advil'
p1785
aS'junior strength ibuprofen'
p1786
aS'junior strength motrin'
p1787
aS'juxtapid'
p1788
aS'k-tab'
p1789
aS'kabiven in plastic container'
p1790
aS'kadian'
p1791
aS'kaletra'
p1792
aS'kalexate'
p1793
aS'kalydeco'
p1794
aS'kanamycin sulfate'
p1795
aS'kapvay'
p1796
aS'karbinal er'
p1797
aS'kariva'
p1798
aS'kayexalate'
p1799
aS'kazano'
p1800
aS'keflex'
p1801
aS'kefzol'
p1802
aS'kelnor'
p1803
aS'kenalog'
p1804
aS'kenalog-10'
p1805
aS'kenalog-40'
p1806
aS'keppra'
p1807
aS'keppra xr'
p1808
aS'kerydin'
p1809
aS'ketalar'
p1810
aS'ketamine hydrochloride'
p1811
aS'ketek'
p1812
aS'ketoconazole'
p1813
aS'ketoprofen'
p1814
aS'ketorolac tromethamine'
p1815
aS'ketotifen fumarate'
p1816
aS'ketozole'
p1817
aS'khedezla'
p1818
aS'kimidess'
p1819
aS'kinevac'
p1820
aS'kionex'
p1821
aS'kitabis pak'
p1822
aS'klaron'
p1823
aS'klonopin'
p1824
aS'klor-con'
p1825
aS'klor-con m10'
p1826
aS'klor-con m15'
p1827
aS'klor-con m20'
p1828
aS'kombiglyze xr'
p1829
aS'korlym'
p1830
aS'kurvelo'
p1831
aS'kuvan'
p1832
aS'kybella'
p1833
aS'kynamro'
p1834
aS'kyprolis'
p1835
aS'labetalol hydrochloride'
p1836
aS'labetalol hydrocloride'
p1837
aS'lac-hydrin'
p1838
aS'lacrisert'
p1839
aS"lactated ringer's and dextrose 5% in plastic container"
p1840
aS"lactated ringer's in plastic container"
p1841
aS'lactulose'
p1842
aS'lamictal'
p1843
aS'lamictal cd'
p1844
aS'lamictal odt'
p1845
aS'lamictal xr'
p1846
aS'lamisil'
p1847
aS'lamisil at'
p1848
aS'lamivudine'
p1849
aS'lamivudine and zidovudine'
p1850
aS'lamotrigine'
p1851
aS'lamprene'
p1852
aS'laniazid'
p1853
aS'lanorinal'
p1854
aS'lanoxin'
p1855
aS'lanoxin pediatric'
p1856
aS'lansoprazole'
p1857
aS'lansoprazole '
p1858
aS'lansoprazole, amoxicillin and clarithromycin'
p1859
aS'lantus'
p1860
aS'lantus solostar'
p1861
aS'larin 1.5/30'
p1862
aS'larin 1/20'
p1863
aS'larin 24 fe'
p1864
aS'larin fe 1.5/30'
p1865
aS'larin fe 1/20'
p1866
aS'larotid'
p1867
aS'laryng-o-jet kit'
p1868
aS'lasix'
p1869
aS'lastacaft'
p1870
aS'latanoprost'
p1871
aS'latisse'
p1872
aS'latuda'
p1873
aS'lax-lyte with flavor packs'
p1874
aS'lazanda'
p1875
aS'leflunomide'
p1876
aS'lenvima'
p1877
aS'lescol'
p1878
aS'lescol xl'
p1879
aS'lessina-28'
p1880
aS'letairis'
p1881
aS'letrozole'
p1882
aS'leucovorin calcium'
p1883
aS'leucovorin calcium preservative free'
p1884
aS'leukeran'
p1885
aS'leuprolide acetate'
p1886
aS'levalbuterol hydrochloride'
p1887
aS'levaquin'
p1888
aS'levaquin in dextrose 5% in plastic container'
p1889
aS'levemir'
p1890
aS'levemir flexpen'
p1891
aS'levemir flextouch'
p1892
aS'levetiracetam'
p1893
aS'levetiracetam in sodium chloride'
p1894
aS'levitra'
p1895
aS'levo-t'
p1896
aS'levobunolol hydrochloride'
p1897
aS'levocarnitine'
p1898
aS'levocetirizine dihydrochloride'
p1899
aS'levofloxacin'
p1900
aS'levofloxacin in dextrose 5% in plastic container'
p1901
aS'levoleucovorin calcium'
p1902
aS'levonest'
p1903
aS'levonorgestrel'
p1904
aS'levonorgestrel and ethinyl estradiol'
p1905
aS'levonorgestrel and ethinyl estradiol and ethinyl estradiol'
p1906
aS'levophed'
p1907
aS'levora 0.15/30-28'
p1908
aS'levorphanol tartrate'
p1909
aS'levothroid'
p1910
aS'levothyroxine sodium'
p1911
aS'levoxyl'
p1912
aS'levulan'
p1913
aS'lexapro'
p1914
aS'lexiscan'
p1915
aS'lexiva'
p1916
aS'lialda'
p1917
aS'librium'
p1918
aS'lidex'
p1919
aS'lidocaine'
p1920
aS'lidocaine and prilocaine'
p1921
aS'lidocaine hydrochloride'
p1922
aS'lidocaine hydrochloride 0.2% and dextrose 5% in plastic container'
p1923
aS'lidocaine hydrochloride 0.4% and dextrose 5% in plastic container'
p1924
aS'lidocaine hydrochloride 0.4% in dextrose 5% in plastic container'
p1925
aS'lidocaine hydrochloride 0.8% and dextrose 5% in plastic container'
p1926
aS'lidocaine hydrochloride 0.8% in dextrose 5% in plastic container'
p1927
aS'lidocaine hydrochloride 5% and dextrose 7.5%'
p1928
aS'lidocaine hydrochloride and epinephrine'
p1929
aS'lidocaine hydrochloride in plastic container'
p1930
aS'lidocaine hydrochloride preservative free'
p1931
aS'lidocaine hydrochloride preservative free in plastic container'
p1932
aS'lidocaine hydrochloride viscous'
p1933
aS'lidocaine viscous'
p1934
aS'lidoderm'
p1935
aS'lignospan forte'
p1936
aS'lignospan standard'
p1937
aS'liletta'
p1938
aS'lincocin'
p1939
aS'lindane'
p1940
aS'linezolid'
p1941
aS'linzess'
p1942
aS'lioresal'
p1943
aS'liothyronine sodium'
p1944
aS'lipiodol'
p1945
aS'lipitor'
p1946
aS'lipofen'
p1947
aS'liptruzet'
p1948
aS'lisinopril'
p1949
aS'lisinopril and hydrochlorothiazide'
p1950
aS'lithium carbonate'
p1951
aS'lithium citrate'
p1952
aS'lithobid'
p1953
aS'lithostat'
p1954
aS'livalo'
p1955
aS'lo loestrin fe'
p1956
aS'lo minastrin fe'
p1957
aS'lo/ovral-28'
p1958
aS'locoid'
p1959
aS'locoid lipocream'
p1960
aS'lodosyn'
p1961
aS'loestrin 21 1.5/30'
p1962
aS'loestrin 21 1/20'
p1963
aS'loestrin fe 1.5/30'
p1964
aS'loestrin fe 1/20'
p1965
aS'lomotil'
p1966
aS'lonox'
p1967
aS'loperamide hydrochloride'
p1968
aS'loperamide hydrochloride and simethicone'
p1969
aS'lopid'
p1970
aS'lopressor'
p1971
aS'lopressor hct'
p1972
aS'loprox'
p1973
aS'lopurin'
p1974
aS'loratadine'
p1975
aS'loratadine and pseudoephedrine sulfate'
p1976
aS'loratadine redidose'
p1977
aS'lorazepam'
p1978
aS'lorazepam intensol'
p1979
aS'lorazepam preservative free'
p1980
aS'loryna'
p1981
aS'losartan potassium'
p1982
aS'losartan potassium and hydrochlorothiazide'
p1983
aS'loseasonique'
p1984
aS'lotemax'
p1985
aS'lotensin'
p1986
aS'lotensin hct'
p1987
aS'lotrel'
p1988
aS'lotrimin ultra'
p1989
aS'lotrisone'
p1990
aS'lotronex'
p1991
aS'lovastatin'
p1992
aS'lovaza'
p1993
aS'lovenox'
p1994
aS'lovenox (preservative free)'
p1995
aS'low-ogestrel-28'
p1996
aS'loxapine succinate'
p1997
aS'lta ii kit'
p1998
aS'lufyllin'
p1999
aS'lumason'
p2000
aS'lumigan'
p2001
aS'lunesta'
p2002
aS'lupaneta pack'
p2003
aS'lupron depot'
p2004
aS'lupron depot-ped'
p2005
aS'luvox'
p2006
aS'luvox cr'
p2007
aS'luxiq'
p2008
aS'luzu'
p2009
aS'lymphoseek kit'
p2010
aS'lynparza'
p2011
aS'lyrica'
p2012
aS'lysodren'
p2013
aS'lysteda'
p2014
aS'm-zole 3 combination pack'
p2015
aS'm.v.i. adult'
p2016
aS'm.v.i. adult (pharmacy bulk package)'
p2017
aS'm.v.i. pediatric'
p2018
aS'm.v.i.-12 (without vitamin k)'
p2019
aS'macrobid'
p2020
aS'macrodantin'
p2021
aS'macugen'
p2022
aS'mafenide acetate'
p2023
aS'magnesium sulfate'
p2024
aS'magnesium sulfate in dextrose 5% in plastic container'
p2025
aS'magnesium sulfate in plastic container'
p2026
aS'magnevist'
p2027
aS'makena'
p2028
aS'malarone'
p2029
aS'malarone pediatric'
p2030
aS'malathion'
p2031
aS'manganese chloride in plastic container'
p2032
aS'mannitol 10%'
p2033
aS'mannitol 10% in plastic container'
p2034
aS'mannitol 10% w/ dextrose 5% in distilled water'
p2035
aS'mannitol 15%'
p2036
aS'mannitol 15% in plastic container'
p2037
aS'mannitol 15% w/ dextrose 5% in sodium chloride 0.45%'
p2038
aS'mannitol 20%'
p2039
aS'mannitol 20% in plastic container'
p2040
aS'mannitol 25%'
p2041
aS'mannitol 5%'
p2042
aS'mannitol 5% in plastic container'
p2043
aS'mannitol 5% w/ dextrose 5% in sodium chloride 0.12%'
p2044
aS'maprotiline hydrochloride'
p2045
aS'marcaine'
p2046
aS'marcaine hydrochloride'
p2047
aS'marcaine hydrochloride preservative free'
p2048
aS'marcaine hydrochloride w/ epinephrine'
p2049
aS'marcaine hydrochloride w/ epinephrine preservative free'
p2050
aS'marinol'
p2051
aS'marlissa'
p2052
aS'marplan'
p2053
aS'marqibo kit'
p2054
aS'matulane'
p2055
aS'mavik'
p2056
aS'maxalt'
p2057
aS'maxalt-mlt'
p2058
aS'maxidex'
p2059
aS'maxipime'
p2060
aS'maxitrol'
p2061
aS'maxzide'
p2062
aS'maxzide-25'
p2063
aS'md-76r'
p2064
aS'md-gastroview'
p2065
aS'mdp-bracco'
p2066
aS'mebendazole'
p2067
aS'mecamylamine hydrochloride'
p2068
aS'meclizine hydrochloride'
p2069
aS'meclofenamate sodium'
p2070
aS'medrol'
p2071
aS'medroxyprogesterone acetate'
p2072
aS'mefenamic acid'
p2073
aS'mefloquine hydrochloride'
p2074
aS'mefoxin in plastic container'
p2075
aS'megace'
p2076
aS'megace es'
p2077
aS'megatope'
p2078
aS'megestrol acetate'
p2079
aS'mekinist'
p2080
aS'meloxicam'
p2081
aS'melphalan hydrochloride'
p2082
aS'memantine'
p2083
aS'memantine hydrochloride'
p2084
aS'membraneblue'
p2085
aS"men's rogaine"
p2086
aS'menest'
p2087
aS'menopur'
p2088
aS'menostar'
p2089
aS'mentax'
p2090
aS'meperidine hydrochloride'
p2091
aS'meperidine hydrochloride preservative free'
p2092
aS'mephyton'
p2093
aS'mepivacaine hydrochloride'
p2094
aS'meprobamate'
p2095
aS'mepron'
p2096
aS'mercaptopurine'
p2097
aS'meropenem'
p2098
aS'meropenem and sodium chloride in duplex container'
p2099
aS'merrem'
p2100
aS'mesalamine'
p2101
aS'mesna'
p2102
aS'mesnex'
p2103
aS'mestinon'
p2104
aS'metadate cd'
p2105
aS'metadate er'
p2106
aS'metaproterenol sulfate'
p2107
aS'metaraminol bitartrate'
p2108
aS'metastron'
p2109
aS'metaxalone'
p2110
aS'metformin hydrochloride'
p2111
aS'methadone hydrochloride'
p2112
aS'methadone hydrochloride intensol'
p2113
aS'methadose'
p2114
aS'methamphetamine hydrochloride'
p2115
aS'methazolamide'
p2116
aS'methenamine hippurate'
p2117
aS'methergine'
p2118
aS'methimazole'
p2119
aS'methocarbamol'
p2120
aS'methocarbamol and aspirin'
p2121
aS'methotrexate preservative free'
p2122
aS'methotrexate sodium'
p2123
aS'methotrexate sodium preservative free'
p2124
aS'methoxsalen'
p2125
aS'methscopolamine bromide'
p2126
aS'methyclothiazide'
p2127
aS'methyldopa'
p2128
aS'methyldopa and hydrochlorothiazide'
p2129
aS'methyldopate hydrochloride'
p2130
aS'methylergonovine maleate'
p2131
aS'methylin'
p2132
aS'methylin er'
p2133
aS'methylphenidate hydrochloride'
p2134
aS'methylprednisolone'
p2135
aS'methylprednisolone acetate'
p2136
aS'methylprednisolone sodium succinate'
p2137
aS'methyltestosterone'
p2138
aS'metipranolol'
p2139
aS'metoclopramide'
p2140
aS'metoclopramide hydrochloride'
p2141
aS'metolazone'
p2142
aS'metopirone'
p2143
aS'metoprolol succinate'
p2144
aS'metoprolol tartrate'
p2145
aS'metoprolol tartrate and hydrochlorothiazide'
p2146
aS'metozolv odt'
p2147
aS'metro i.v. in plastic container'
p2148
aS'metrocream'
p2149
aS'metrogel'
p2150
aS'metrogel-vaginal'
p2151
aS'metrolotion'
p2152
aS'metronidazole'
p2153
aS'metronidazole in plastic container'
p2154
aS'mexiletine hydrochloride'
p2155
aS'miacalcin'
p2156
aS'micardis'
p2157
aS'micardis hct'
p2158
aS'miconazole 3'
p2159
aS'miconazole 3 combination pack'
p2160
aS'miconazole 7'
p2161
aS'miconazole 7 combination pack'
p2162
aS'miconazole nitrate'
p2163
aS'miconazole nitrate combination pack'
p2164
aS'micort-hc'
p2165
aS'micro-k'
p2166
aS'micro-k 10'
p2167
aS'microgestin 1.5/30'
p2168
aS'microgestin 1/20'
p2169
aS'microgestin fe 1.5/30'
p2170
aS'microgestin fe 1/20'
p2171
aS'micronor'
p2172
aS'microzide'
p2173
aS'midamor'
p2174
aS'midazolam hydrochloride'
p2175
aS'midazolam hydrochloride preservative free'
p2176
aS'midodrine hydrochloride'
p2177
aS'midol liquid gels'
p2178
aS'midozalam hydrochloride'
p2179
aS'mifeprex'
p2180
aS'migergot'
p2181
aS'miglitol'
p2182
aS'migranal'
p2183
aS'milrinone lactate'
p2184
aS'milrinone lactate in dextrose 5%'
p2185
aS'milrinone lactate in dextrose 5% in plastic container'
p2186
aS'milrinone lactate in plastic container'
p2187
aS'minastrin 24 fe'
p2188
aS'minipress'
p2189
aS'minirin'
p2190
aS'minitran'
p2191
aS'minivelle'
p2192
aS'minocin'
p2193
aS'minocycline hydrochloride'
p2194
aS'minoxidil'
p2195
aS'minoxidil (for men)'
p2196
aS'minoxidil (for women)'
p2197
aS'minoxidil extra strength (for men)'
p2198
aS'miochol-e'
p2199
aS'miostat'
p2200
aS'miralax'
p2201
aS'mirapex'
p2202
aS'mirapex er'
p2203
aS'mirena'
p2204
aS'mirtazapine'
p2205
aS'mirvaso'
p2206
aS'misoprostol'
p2207
aS'mitigare'
p2208
aS'mitomycin'
p2209
aS'mitosol'
p2210
aS'mitoxantrone hydrochloride'
p2211
aS'mivacron'
p2212
aS'mobic'
p2213
aS'modafinil'
p2214
aS'modicon 28'
p2215
aS'moexipril hydrochloride'
p2216
aS'moexipril hydrochloride and hydrochlorothiazide'
p2217
aS'moexipril hydrochloride and hydrocholrothiazide'
p2218
aS'molindone hydrochloride'
p2219
aS'mometasone furoate'
p2220
aS'monistat 1 combination pack'
p2221
aS'monistat 3'
p2222
aS'monistat 3 combination pack'
p2223
aS'monistat 3 combination pack (prefilled)'
p2224
aS'monistat 7'
p2225
aS'monistat 7 combination pack'
p2226
aS'monistat-3 combination pack'
p2227
aS'mono-linyah'
p2228
aS'monodox'
p2229
aS'monoket'
p2230
aS'montelukast sodium'
p2231
aS'monurol'
p2232
aS'morphine sulfate'
p2233
aS'motofen'
p2234
aS'motrin ib'
p2235
aS'motrin migraine pain'
p2236
aS'movantik'
p2237
aS'moviprep'
p2238
aS'moxatag'
p2239
aS'moxeza'
p2240
aS'moxifloxacin hydrochloride'
p2241
aS'mozobil'
p2242
aS'mpi dmsa kidney reagent'
p2243
aS'mpi indium dtpa in 111'
p2244
aS'ms contin'
p2245
aS'mucinex'
p2246
aS'mucinex d'
p2247
aS'mucinex dm'
p2248
aS'multaq'
p2249
aS'multihance'
p2250
aS'multihance multipack'
p2251
aS'mupirocin'
p2252
aS'muse'
p2253
aS'mustargen'
p2254
aS'myambutol'
p2255
aS'mycamine'
p2256
aS'mycelex-7'
p2257
aS'mycelex-7 combination pack'
p2258
aS'mycobutin'
p2259
aS'mycophenolate mofetil'
p2260
aS'mycophenolic acid'
p2261
aS'mydriacyl'
p2262
aS'myfortic'
p2263
aS'mykacet'
p2264
aS'myleran'
p2265
aS'myorisan'
p2266
aS'myoview'
p2267
aS'myoview 30ml'
p2268
aS'myrbetriq'
p2269
aS'mysoline'
p2270
aS'myzilra'
p2271
aS'nabumetone'
p2272
aS'nadolol'
p2273
aS'nadolol and bendroflumethiazide'
p2274
aS'nafcillin sodium'
p2275
aS'naftin'
p2276
aS'nalbuphine hydrochloride'
p2277
aS'nalfon'
p2278
aS'nallpen in plastic container'
p2279
aS'naloxone hydrochloride'
p2280
aS'naloxone hydrochloride and pentazocine hydrochloride'
p2281
aS'naltrexone hydrochloride'
p2282
aS'namenda'
p2283
aS'namenda xr'
p2284
aS'namzaric'
p2285
aS'nandrolone decanoate'
p2286
aS'naphazoline hydrochloride'
p2287
aS'naphazoline hydrochloride and pheniramine maleate'
p2288
aS'naphcon-a'
p2289
aS'naprelan'
p2290
aS'naprosyn'
p2291
aS'naproxen'
p2292
aS'naproxen and esomeprazole magnesium'
p2293
aS'naproxen sodium'
p2294
aS'naproxen sodium and pseudoephedrine hydrochloride'
p2295
aS'naratriptan'
p2296
aS'nardil'
p2297
aS'naropin'
p2298
aS'nasacort allergy 24 hour'
p2299
aS'nascobal'
p2300
aS'nasonex'
p2301
aS'natacyn'
p2302
aS'natazia'
p2303
aS'nateglinide'
p2304
aS'natesto'
p2305
aS'natrecor'
p2306
aS'natroba'
p2307
aS'navane'
p2308
aS'navelbine'
p2309
aS'navstel'
p2310
aS'nebupent'
p2311
aS'nedocromil sodium'
p2312
aS'nefazodone hydrochloride'
p2313
aS'nembutal sodium'
p2314
aS'neo-fradin'
p2315
aS'neo-synalar'
p2316
aS'neomycin and polymyxin b sulfate'
p2317
aS'neomycin and polymyxin b sulfates and bacitracin zinc'
p2318
aS'neomycin and polymyxin b sulfates and dexamethasone'
p2319
aS'neomycin and polymyxin b sulfates and gramicidin'
p2320
aS'neomycin and polymyxin b sulfates and hydrocortisone'
p2321
aS'neomycin and polymyxin b sulfates, bacitracin zinc and hydrocortisone'
p2322
aS'neomycin sulfate'
p2323
aS'neopap'
p2324
aS'neoprofen'
p2325
aS'neoral'
p2326
aS'neosporin'
p2327
aS'neosporin g.u. irrigant'
p2328
aS'neostigmine methylsulfate'
p2329
aS'nephramine 5.4%'
p2330
aS'nesacaine'
p2331
aS'nesacaine-mpf'
p2332
aS'nesina'
p2333
aS'neupro'
p2334
aS'neuraceq'
p2335
aS'neurolite'
p2336
aS'neurontin'
p2337
aS'nevanac'
p2338
aS'nevirapine'
p2339
aS'nexavar'
p2340
aS'nexium'
p2341
aS'nexium 24hr'
p2342
aS'nexium iv'
p2343
aS'nexplanon'
p2344
aS'nexterone'
p2345
aS'niacin'
p2346
aS'niacor'
p2347
aS'niaspan'
p2348
aS'nicardipine hydrochloride'
p2349
aS'nicoderm cq'
p2350
aS'nicorette'
p2351
aS'nicorette (mint)'
p2352
aS'nicotine'
p2353
aS'nicotine polacrilex'
p2354
aS'nicotrol'
p2355
aS'nifedipine'
p2356
aS'nikki'
p2357
aS'nilandron'
p2358
aS'nimbex'
p2359
aS'nimbex preservative free'
p2360
aS'nimodipine'
p2361
aS'nipent'
p2362
aS'nisoldipine'
p2363
aS'nithiodote'
p2364
aS'nitro-dur'
p2365
aS'nitrofurantoin'
p2366
aS'nitrofurantoin (monohydrate/macrocrystals)'
p2367
aS'nitroglycerin'
p2368
aS'nitroglycerin in dextrose 5%'
p2369
aS'nitrolingual pumpspray'
p2370
aS'nitromist'
p2371
aS'nitropress'
p2372
aS'nitrostat'
p2373
aS'nix'
p2374
aS'nizatidine'
p2375
aS'nizoral'
p2376
aS'nizoral a-d'
p2377
aS'nor-qd'
p2378
aS'norco'
p2379
aS'nordette-28'
p2380
aS'norditropin flexpro'
p2381
aS'norditropin nordiflex'
p2382
aS'norepinephrine bitartrate'
p2383
aS'norethindrone'
p2384
aS'norethindrone acetate'
p2385
aS'norethindrone acetate and ethinyl estradiol'
p2386
aS'norethindrone acetate and ethinyl estradiol and ferrous fumarate'
p2387
aS'norethindrone and ethinyl estradiol'
p2388
aS'norethindrone and ethinyl estradiol (10/11)'
p2389
aS'norethindrone and ethinyl estradiol and ferrous fumarate'
p2390
aS'norgestimate and ethinyl estradiol'
p2391
aS'norinyl 1+35 21-day'
p2392
aS'norinyl 1+35 28-day'
p2393
aS'norinyl 1+50 28-day'
p2394
aS'noritate'
p2395
aS'normocarb hf 25'
p2396
aS'normocarb hf 35'
p2397
aS'normosol-m and dextrose 5% in plastic container'
p2398
aS'normosol-r and dextrose 5% in plastic container'
p2399
aS'normosol-r in plastic container'
p2400
aS'norpace'
p2401
aS'norpace cr'
p2402
aS'norpramin'
p2403
aS'northera'
p2404
aS'nortrel 0.5/35-28'
p2405
aS'nortrel 1/35-21'
p2406
aS'nortrel 1/35-28'
p2407
aS'nortrel 7/7/7'
p2408
aS'nortriptyline hydrochloride'
p2409
aS'norvasc'
p2410
aS'norvir'
p2411
aS'novolin 70/30'
p2412
aS'novolin n'
p2413
aS'novolin r'
p2414
aS'novolog'
p2415
aS'novolog flexpen'
p2416
aS'novolog flextouch'
p2417
aS'novolog mix 70/30'
p2418
aS'novolog mix 70/30 flexpen'
p2419
aS'novolog penfill'
p2420
aS'noxafil'
p2421
aS'nucynta'
p2422
aS'nucynta er'
p2423
aS'nuedexta'
p2424
aS'nulytely'
p2425
aS'nulytely-flavored'
p2426
aS'nutracort'
p2427
aS'nutrestore'
p2428
aS'nutrilipid 10%'
p2429
aS'nutrilipid 20%'
p2430
aS'nutropin'
p2431
aS'nutropin aq'
p2432
aS'nutropin aq pen'
p2433
aS'nuvaring'
p2434
aS'nuvessa'
p2435
aS'nuvigil'
p2436
aS'nymalize'
p2437
aS'nystatin'
p2438
aS'nystatin and triamcinolone acetonide'
p2439
aS'nystop'
p2440
aS'obredon'
p2441
aS'octocaine'
p2442
aS'octreoscan'
p2443
aS'octreotide acetate'
p2444
aS'octreotide acetate (preservative free)'
p2445
aS'ocuclear'
p2446
aS'ocufen'
p2447
aS'ocuflox'
p2448
aS'ocupress'
p2449
aS'ofev'
p2450
aS'ofirmev'
p2451
aS'ofloxacin'
p2452
aS'ogen .625'
p2453
aS'ogen 1.25'
p2454
aS'ogen 2.5'
p2455
aS'ogen 5'
p2456
aS'ogestrel 0.5/50-28'
p2457
aS'olanzapine'
p2458
aS'olanzapine and fluoxetine hydrochloride'
p2459
aS'olopatadine hydrochloride'
p2460
aS'olux'
p2461
aS'olux e'
p2462
aS'olysio'
p2463
aS'omega-3-acid ethyl esters'
p2464
aS'omeprazole'
p2465
aS'omeprazole and clarithromycin and amoxicillin'
p2466
aS'omeprazole and sodium bicarbonate'
p2467
aS'omeprazole magnesium'
p2468
aS'omidria'
p2469
aS'omnaris'
p2470
aS'omnipaque 140'
p2471
aS'omnipaque 180'
p2472
aS'omnipaque 240'
p2473
aS'omnipaque 300'
p2474
aS'omnipaque 350'
p2475
aS'omnipred'
p2476
aS'omniscan'
p2477
aS'omnitrope'
p2478
aS'omtryg'
p2479
aS'ondansetron'
p2480
aS'ondansetron hydrochloride'
p2481
aS'ondansetron hydrochloride preservative free'
p2482
aS'onexton'
p2483
aS'onfi'
p2484
aS'onglyza'
p2485
aS'onmel'
p2486
aS'opana'
p2487
aS'opana er'
p2488
aS'opcicon one-step'
p2489
aS'opcon-a'
p2490
aS'opsumit'
p2491
aS'optimark'
p2492
aS'optimark in plastic container'
p2493
aS'optipranolol'
p2494
aS'optiray 240'
p2495
aS'optiray 300'
p2496
aS'optiray 320'
p2497
aS'optiray 350'
p2498
aS'optison'
p2499
aS'optivar'
p2500
aS'orabloc'
p2501
aS'oracea'
p2502
aS'oraltag'
p2503
aS'orap'
p2504
aS'orapred'
p2505
aS'orapred odt'
p2506
aS'oraqix'
p2507
aS'oraverse'
p2508
aS'oravig'
p2509
aS'orbactiv'
p2510
aS'orenitram'
p2511
aS'oretic'
p2512
aS'orfadin'
p2513
aS'orphenadrine citrate'
p2514
aS'orphenadrine citrate, aspirin, and caffeine'
p2515
aS'orsythia'
p2516
aS'ortho cyclen-28'
p2517
aS'ortho tri-cyclen'
p2518
aS'ortho tri-cyclen lo'
p2519
aS'ortho-cept'
p2520
aS'ortho-novum 1/35-28'
p2521
aS'ortho-novum 7/7/7-28'
p2522
aS'orvaten'
p2523
aS'oseni'
p2524
aS'osmitrol 10% in water'
p2525
aS'osmitrol 10% in water in plastic container'
p2526
aS'osmitrol 15% in water'
p2527
aS'osmitrol 15% in water in plastic container'
p2528
aS'osmitrol 20% in water'
p2529
aS'osmitrol 20% in water in plastic container'
p2530
aS'osmitrol 5% in water'
p2531
aS'osmitrol 5% in water in plastic container'
p2532
aS'osmoprep'
p2533
aS'osphena'
p2534
aS'otezla'
p2535
aS'oticair'
p2536
aS'otrexup'
p2537
aS'ovcon-35'
p2538
aS'ovide'
p2539
aS'ovidrel'
p2540
aS'oxacillin sodium'
p2541
aS'oxaliplatin'
p2542
aS'oxandrin'
p2543
aS'oxandrolone'
p2544
aS'oxaprozin'
p2545
aS'oxaydo'
p2546
aS'oxazepam'
p2547
aS'oxcarbazepine'
p2548
aS'oxilan-300'
p2549
aS'oxilan-350'
p2550
aS'oxistat'
p2551
aS'oxsoralen'
p2552
aS'oxsoralen-ultra'
p2553
aS'oxtellar xr'
p2554
aS'oxybutynin'
p2555
aS'oxybutynin chloride'
p2556
aS'oxycet'
p2557
aS'oxycodone and acetaminophen'
p2558
aS'oxycodone and aspirin'
p2559
aS'oxycodone hydrochloride'
p2560
aS'oxycodone hydrochloride and acetaminophen'
p2561
aS'oxycodone hydrochloride and ibuprofen'
p2562
aS'oxycontin'
p2563
aS'oxymorphone hydrochloride'
p2564
aS'oxytocin'
p2565
aS'oxytrol'
p2566
aS'oxytrol for women'
p2567
aS'ozurdex'
p2568
aS'pacerone'
p2569
aS'paclitaxel'
p2570
aS'pamelor'
p2571
aS'pamidronate disodium'
p2572
aS'pamine'
p2573
aS'pamine forte'
p2574
aS'pancreaze'
p2575
aS'pancuronium bromide'
p2576
aS'pandel'
p2577
aS'panretin'
p2578
aS'pantoprazole sodium'
p2579
aS'parafon forte dsc'
p2580
aS'paragard t 380a'
p2581
aS'paremyd'
p2582
aS'paricalcitol'
p2583
aS'parlodel'
p2584
aS'parnate'
p2585
aS'paroex'
p2586
aS'paromomycin sulfate'
p2587
aS'paroxetine'
p2588
aS'paroxetine hydrochloride'
p2589
aS'paser'
p2590
aS'pataday'
p2591
aS'patanase'
p2592
aS'patanol'
p2593
aS'paxil'
p2594
aS'paxil cr'
p2595
aS'pazeo'
p2596
aS'pce'
p2597
aS'pediamycin'
p2598
aS'pediamycin 400'
p2599
aS'pediapred'
p2600
aS'pediatric advil'
p2601
aS'pediotic'
p2602
aS'peg 3350 and electrolytes'
p2603
aS'peg-3350, sodium chloride, sodium bicarbonate, potassium chloride and bisacodyl'
p2604
aS'peg-3350;potassium chloride;sodium bicarbonate;sodium chloride'
p2605
aS'peganone'
p2606
aS'penicillin g potassium'
p2607
aS'penicillin g potassium in plastic container'
p2608
aS'penicillin g procaine'
p2609
aS'penicillin g sodium'
p2610
aS'penicillin v potassium'
p2611
aS'penicillin-vk'
p2612
aS'penlac'
p2613
aS'pennsaid'
p2614
aS'pentam'
p2615
aS'pentasa'
p2616
aS'pentolair'
p2617
aS'pentostatin'
p2618
aS'pentoxifylline'
p2619
aS'pentoxil'
p2620
aS'pepcid'
p2621
aS'pepcid ac'
p2622
aS'pepcid ac '
p2623
aS'pepcid complete'
p2624
aS'percocet'
p2625
aS'percodan'
p2626
aS'perforomist'
p2627
aS'peridex'
p2628
aS'perikabiven in plastic container'
p2629
aS'perindopril erbumine'
p2630
aS'periochip'
p2631
aS'periogard'
p2632
aS'permapen'
p2633
aS'permethrin'
p2634
aS'perphenazine'
p2635
aS'perphenazine and amitriptyline hydrochloride'
p2636
aS'persantine'
p2637
aS'pertzye'
p2638
aS'pexeva'
p2639
aS'pfizerpen'
p2640
aS'pharmaseal scrub care'
p2641
aS'phendimetrazine tartrate'
p2642
aS'phenelzine sulfate'
p2643
aS'phenoxybenzamine hydrochloride'
p2644
aS'phentermine hydrochloride'
p2645
aS'phentermine resin complex'
p2646
aS'phentolamine mesylate'
p2647
aS'phenylephrine hydrochloride'
p2648
aS'phenylephrine hydrochloride and promethazine hydrochloride'
p2649
aS'phenytek'
p2650
aS'phenytoin'
p2651
aS'phenytoin sodium'
p2652
aS'philith'
p2653
aS'phisohex'
p2654
aS'phoslo gelcaps'
p2655
aS'phoslyra'
p2656
aS'phospholine iodide'
p2657
aS'photofrin'
p2658
aS'phoxillum b22k 4/0 in plastic container'
p2659
aS'phoxillum bk 4/2.5 in plastic container'
p2660
aS'physiolyte in plastic container'
p2661
aS'physiosol in plastic container'
p2662
aS'phytonadione'
p2663
aS'picato'
p2664
aS'pilocarpine hydrochloride'
p2665
aS'pilopine hs'
p2666
aS'pimtrea'
p2667
aS'pindolol'
p2668
aS'pioglitazone hydrochloride'
p2669
aS'pioglitazone hydrochloride and glimepiride'
p2670
aS'pioglitazone hydrochloride and metformin hydrochloride'
p2671
aS'piperacillin'
p2672
aS'piperacillin and tazobactam'
p2673
aS'pirmella 1/35'
p2674
aS'pirmella 7/7/7'
p2675
aS'piroxicam'
p2676
aS'pitocin'
p2677
aS'plan b'
p2678
aS'plan b one-step'
p2679
aS'plaquenil'
p2680
aS'plasma-lyte 148 in water in plastic container'
p2681
aS'plasma-lyte 56 and dextrose 5% in plastic container'
p2682
aS'plasma-lyte a in plastic container'
p2683
aS'plavix'
p2684
aS'plegisol in plastic container'
p2685
aS'plendil'
p2686
aS'pletal'
p2687
aS'pliaglis'
p2688
aS'podofilox'
p2689
aS'polocaine'
p2690
aS'polocaine-mpf'
p2691
aS'polyethylene glycol 3350'
p2692
aS'polymycin b sulfate'
p2693
aS'polymyxin b sulfate'
p2694
aS'polytrim'
p2695
aS'pomalyst'
p2696
aS'ponstel'
p2697
aS'portia-28'
p2698
aS'potassium acetate in plastic container'
p2699
aS'potassium chloride'
p2700
aS'potassium chloride 0.037% in dextrose 10% and sodium chloride 0.2% in plastic container'
p2701
aS'potassium chloride 0.037% in dextrose 10% and sodium chloride 0.45% in plastic container'
p2702
aS'potassium chloride 0.037% in dextrose 10% and sodium chloride 0.9% in plastic container'
p2703
aS'potassium chloride 0.037% in dextrose 5% and sodium chloride 0.11% in plastic container'
p2704
aS'potassium chloride 0.037% in dextrose 5% and sodium chloride 0.2% in plastic container'
p2705
aS'potassium chloride 0.037% in dextrose 5% and sodium chloride 0.33% in plastic container'
p2706
aS'potassium chloride 0.037% in dextrose 5% and sodium chloride 0.45% in plastic container'
p2707
aS'potassium chloride 0.037% in dextrose 5% and sodium chloride 0.9% in plastic container'
p2708
aS'potassium chloride 0.075% in dextrose 10% and sodium chloride 0.2% in plastic container'
p2709
aS'potassium chloride 0.075% in dextrose 10% and sodium chloride 0.45% in plastic container'
p2710
aS'potassium chloride 0.075% in dextrose 10% and sodium chloride 0.9% in plastic container'
p2711
aS'potassium chloride 0.075% in dextrose 3.3% and sodium chloride 0.3% in plastic container'
p2712
aS'potassium chloride 0.075% in dextrose 5% and sodium chloride 0.11% in plastic container'
p2713
aS'potassium chloride 0.075% in dextrose 5% and sodium chloride 0.2% in plastic container'
p2714
aS'potassium chloride 0.075% in dextrose 5% and sodium chloride 0.33% in plastic container'
p2715
aS'potassium chloride 0.075% in dextrose 5% and sodium chloride 0.45% in plastic container'
p2716
aS'potassium chloride 0.075% in dextrose 5% and sodium chloride 0.9% in plastic container'
p2717
aS'potassium chloride 0.075% in dextrose 5% in plastic container'
p2718
aS'potassium chloride 0.11% in dextrose 10% and sodium chloride 0.2% in plastic container'
p2719
aS'potassium chloride 0.11% in dextrose 10% and sodium chloride 0.45% in plastic container'
p2720
aS'potassium chloride 0.11% in dextrose 10% and sodium chloride 0.9% in plastic container'
p2721
aS'potassium chloride 0.11% in dextrose 3.3% and sodium chloride 0.3% in plastic container'
p2722
aS'potassium chloride 0.11% in dextrose 5% and sodium chloride 0.11% in plastic container'
p2723
aS'potassium chloride 0.11% in dextrose 5% and sodium chloride 0.2% in plastic container'
p2724
aS'potassium chloride 0.11% in dextrose 5% and sodium chloride 0.33% in plastic container'
p2725
aS'potassium chloride 0.11% in dextrose 5% and sodium chloride 0.45% in plastic container'
p2726
aS'potassium chloride 0.11% in dextrose 5% and sodium chloride 0.9% in plastic container'
p2727
aS'potassium chloride 0.149% in sodium chloride 0.45% in plastic container'
p2728
aS'potassium chloride 0.15% in dextrose 10% and sodium chloride 0.2% in plastic container'
p2729
aS'potassium chloride 0.15% in dextrose 10% and sodium chloride 0.45% in plastic container'
p2730
aS'potassium chloride 0.15% in dextrose 10% and sodium chloride 0.9% in plastic container'
p2731
aS'potassium chloride 0.15% in dextrose 3.3% and sodium chloride 0.3% in plastic container'
p2732
aS'potassium chloride 0.15% in dextrose 5% and sodium chloride 0.11% in plastic container'
p2733
aS'potassium chloride 0.15% in dextrose 5% and sodium chloride 0.2% in plastic container'
p2734
aS'potassium chloride 0.15% in dextrose 5% and sodium chloride 0.33% in plastic container'
p2735
aS'potassium chloride 0.15% in dextrose 5% and sodium chloride 0.45% in plastic container'
p2736
aS'potassium chloride 0.15% in dextrose 5% and sodium chloride 0.9% in plastic container'
p2737
aS'potassium chloride 0.15% in dextrose 5% in plastic container'
p2738
aS'potassium chloride 0.15% in sodium chloride 0.45% in plastic container'
p2739
aS'potassium chloride 0.15% in sodium chloride 0.9% in plastic container'
p2740
aS'potassium chloride 0.22% in dextrose 10% and sodium chloride 0.2% in plastic container'
p2741
aS'potassium chloride 0.22% in dextrose 10% and sodium chloride 0.45% in plastic container'
p2742
aS'potassium chloride 0.22% in dextrose 10% and sodium chloride 0.9% in plastic container'
p2743
aS'potassium chloride 0.22% in dextrose 3.3% and sodium chloride 0.3% in plastic container'
p2744
aS'potassium chloride 0.22% in dextrose 5% and sodium chloride 0.11% in plastic container'
p2745
aS'potassium chloride 0.22% in dextrose 5% and sodium chloride 0.2% in plastic container'
p2746
aS'potassium chloride 0.22% in dextrose 5% and sodium chloride 0.33% in plastic container'
p2747
aS'potassium chloride 0.22% in dextrose 5% and sodium chloride 0.45% in plastic container'
p2748
aS'potassium chloride 0.22% in dextrose 5% and sodium chloride 0.9% in plastic container'
p2749
aS'potassium chloride 0.224% in sodium chloride 0.9%'
p2750
aS'potassium chloride 0.3% and sodium chloride 0.9% in plastic container'
p2751
aS'potassium chloride 0.3% in dextrose 10% and sodium chloride 0.2% in plastic container'
p2752
aS'potassium chloride 0.3% in dextrose 10% and sodium chloride 0.45% in plastic container'
p2753
aS'potassium chloride 0.3% in dextrose 10% and sodium chloride 0.9% in plastic container'
p2754
aS'potassium chloride 0.3% in dextrose 3.3% and sodium chloride 0.3% in plastic container'
p2755
aS'potassium chloride 0.3% in dextrose 5% and sodium chloride 0.11% in plastic container'
p2756
aS'potassium chloride 0.3% in dextrose 5% and sodium chloride 0.2% in plastic container'
p2757
aS'potassium chloride 0.3% in dextrose 5% and sodium chloride 0.33% in plastic container'
p2758
aS'potassium chloride 0.3% in dextrose 5% and sodium chloride 0.45% in plastic container'
p2759
aS'potassium chloride 0.3% in dextrose 5% and sodium chloride 0.9% in plastic container'
p2760
aS'potassium chloride 0.3% in dextrose 5% in plastic container'
p2761
aS"potassium chloride 10meq in dextrose 5% and lactated ringer's in plastic container"
p2762
aS'potassium chloride 10meq in dextrose 5% and sodium chloride 0.225% in plastic container'
p2763
aS'potassium chloride 10meq in dextrose 5% and sodium chloride 0.3% in plastic container'
p2764
aS'potassium chloride 10meq in dextrose 5% and sodium chloride 0.45% in plastic container'
p2765
aS'potassium chloride 10meq in dextrose 5% and sodium chloride 0.9% in plastic container'
p2766
aS'potassium chloride 10meq in plastic container'
p2767
aS"potassium chloride 15meq in dextrose 5% and lactated ringer's in plastic container"
p2768
aS'potassium chloride 15meq in dextrose 5% and sodium chloride 0.225% in plastic container'
p2769
aS'potassium chloride 15meq in dextrose 5% and sodium chloride 0.3% in plastic container'
p2770
aS'potassium chloride 15meq in dextrose 5% and sodium chloride 0.45% in plastic container'
p2771
aS'potassium chloride 15meq in dextrose 5% and sodium chloride 0.9% in plastic container'
p2772
aS"potassium chloride 20meq in dextrose 5% and lactated ringer's in plastic container"
p2773
aS'potassium chloride 20meq in dextrose 5% and sodium chloride 0.225% in plastic container'
p2774
aS'potassium chloride 20meq in dextrose 5% and sodium chloride 0.3% in plastic container'
p2775
aS'potassium chloride 20meq in dextrose 5% and sodium chloride 0.45% in plastic container'
p2776
aS'potassium chloride 20meq in dextrose 5% and sodium chloride 0.9% in plastic container'
p2777
aS'potassium chloride 20meq in dextrose 5% in plastic container'
p2778
aS'potassium chloride 20meq in dextrose 5% in sodium chloride 0.3% in plastic container'
p2779
aS'potassium chloride 20meq in plastic container'
p2780
aS'potassium chloride 20meq in sodium chloride 0.9% in plastic container'
p2781
aS"potassium chloride 30meq in dextrose 5% and lactated ringer's in plastic container"
p2782
aS'potassium chloride 30meq in dextrose 5% and sodium chloride 0.225% in plastic container'
p2783
aS'potassium chloride 30meq in dextrose 5% and sodium chloride 0.3% in plastic container'
p2784
aS'potassium chloride 30meq in dextrose 5% and sodium chloride 0.45% in plastic container'
p2785
aS'potassium chloride 30meq in dextrose 5% and sodium chloride 0.9% in plastic container'
p2786
aS'potassium chloride 30meq in dextrose 5% in plastic container'
p2787
aS'potassium chloride 30meq in plastic container'
p2788
aS"potassium chloride 40meq in dextrose 5% and lactated ringer's in plastic container"
p2789
aS'potassium chloride 40meq in dextrose 5% and sodium chloride 0.225% in plastic container'
p2790
aS'potassium chloride 40meq in dextrose 5% and sodium chloride 0.3% in plastic container'
p2791
aS'potassium chloride 40meq in dextrose 5% and sodium chloride 0.45% in plastic container'
p2792
aS'potassium chloride 40meq in dextrose 5% and sodium chloride 0.9% in plastic container'
p2793
aS'potassium chloride 40meq in dextrose 5% in plastic container'
p2794
aS'potassium chloride 40meq in plastic container'
p2795
aS'potassium chloride 40meq in sodium chloride 0.9% in plastic container'
p2796
aS"potassium chloride 5meq in dextrose 5% and lactated ringer's in plastic container"
p2797
aS'potassium chloride 5meq in dextrose 5% and sodium chloride 0.225% in plastic container'
p2798
aS'potassium chloride 5meq in dextrose 5% and sodium chloride 0.3% in plastic container'
p2799
aS'potassium chloride 5meq in dextrose 5% and sodium chloride 0.45% in plastic container'
p2800
aS'potassium chloride 5meq in dextrose 5% and sodium chloride 0.9% in plastic container'
p2801
aS'potassium chloride in plastic container'
p2802
aS'potassium citrate'
p2803
aS'potiga'
p2804
aS'povidone iodine'
p2805
aS'pradaxa'
p2806
aS'pralidoxime chloride'
p2807
aS'pramipexole dihydrochloride'
p2808
aS'pramosone'
p2809
aS'prandimet'
p2810
aS'prandin'
p2811
aS'pravachol'
p2812
aS'pravastatin sodium'
p2813
aS'prazosin hydrochloride'
p2814
aS'pre-op'
p2815
aS'pre-op ii'
p2816
aS'pre-pen'
p2817
aS'precedex'
p2818
aS'precose'
p2819
aS'pred forte'
p2820
aS'pred mild'
p2821
aS'pred-g'
p2822
aS'prednicarbate'
p2823
aS'prednisolone'
p2824
aS'prednisolone sodium phosphate'
p2825
aS'prednisone'
p2826
aS'prednisone intensol'
p2827
aS'pregnyl'
p2828
aS'prelone'
p2829
aS'premarin'
p2830
aS'premasol 10% in plastic container'
p2831
aS'premasol 6% in plastic container'
p2832
aS'premphase 14/14'
p2833
aS'prempro'
p2834
aS'prepidil'
p2835
aS'prepopik'
p2836
aS'prestalia'
p2837
aS'prevacid'
p2838
aS'prevacid 24 hr'
p2839
aS'prevalite'
p2840
aS'prevantics maxi swabstick'
p2841
aS'prevantics swab'
p2842
aS'prevantics swabstick'
p2843
aS'previfem'
p2844
aS'prevpac'
p2845
aS'prezcobix'
p2846
aS'prezista'
p2847
aS'prialt'
p2848
aS'priftin'
p2849
aS'prilocaine hydrochloride'
p2850
aS'prilocaine hydrochloride and epinephrine bitartrate'
p2851
aS'prilosec'
p2852
aS'prilosec otc'
p2853
aS'primaquine'
p2854
aS'primaquine phosphate'
p2855
aS'primaxin'
p2856
aS'primidone'
p2857
aS'primsol'
p2858
aS'prinivil'
p2859
aS'prinzide'
p2860
aS'prismasol b22gk 2/0 in plastic container'
p2861
aS'prismasol b22gk 4/0 in plastic container'
p2862
aS'prismasol b22gk 4/2.5 in plastic container'
p2863
aS'prismasol bgk 0/2.5 in plastic container'
p2864
aS'prismasol bgk 2/0 in plastic container'
p2865
aS'prismasol bgk 2/3.5 in plastic container'
p2866
aS'prismasol bgk 4/0/1.2 in plastic container'
p2867
aS'prismasol bgk 4/2.5 in plastic container'
p2868
aS'prismasol bk 0/0/1.2 in plastic container'
p2869
aS'prismasol bk 0/3.5 in plastic container'
p2870
aS'pristiq'
p2871
aS'proair hfa'
p2872
aS'proair respiclick'
p2873
aS'probalan'
p2874
aS'probenecid'
p2875
aS'probenecid and colchicine'
p2876
aS'procainamide hydrochloride'
p2877
aS'procalamine'
p2878
aS'procardia'
p2879
aS'procardia xl'
p2880
aS'prochlorperazine'
p2881
aS'prochlorperazine edisylate'
p2882
aS'prochlorperazine maleate'
p2883
aS'procomp'
p2884
aS'proctofoam hc'
p2885
aS'procysbi'
p2886
aS'profen'
p2887
aS'proferdex'
p2888
aS'progesterone'
p2889
aS'proglycem'
p2890
aS'prograf'
p2891
aS'prohance'
p2892
aS'prohance multipack'
p2893
aS'prolensa'
p2894
aS'promacta'
p2895
aS'prometh hydrochloride,phenylephrine hydrochloride w/codeine phosphate'
p2896
aS'prometh vc plain'
p2897
aS'prometh vc w/ codeine'
p2898
aS'promethazine dm'
p2899
aS'promethazine hydrochloride'
p2900
aS'promethazine hydrochloride and codeine phosphate'
p2901
aS'promethazine hydrochloride and dextromethorphan hydrobromide'
p2902
aS'promethazine hydrochloride and phenylephrine hydrochloride'
p2903
aS'promethazine hydrochloride, phenylephrine hydrochloride w/codeine phosphate'
p2904
aS'promethazine plain'
p2905
aS'promethazine w/ dextromethorphan'
p2906
aS'promethazine with codeine'
p2907
aS'promethegan'
p2908
aS'prometrium'
p2909
aS'propafenone hydrochloride'
p2910
aS'propantheline bromide'
p2911
aS'proparacaine hydrochloride'
p2912
aS'propecia'
p2913
aS'propofol'
p2914
aS'propranolol hydrochloride'
p2915
aS'propranolol hydrochloride and hydrochlorothiazide'
p2916
aS'propylthiouracil'
p2917
aS'proscar'
p2918
aS'prosol 20% sulfite free in plastic container'
p2919
aS'prostin e2'
p2920
aS'prostin vr pediatric'
p2921
aS'protamine sulfate'
p2922
aS'protonix'
p2923
aS'protonix iv'
p2924
aS'protopam chloride'
p2925
aS'protopic'
p2926
aS'protriptyline hydrochloride'
p2927
aS'proventil-hfa'
p2928
aS'provera'
p2929
aS'provigil'
p2930
aS'provocholine'
p2931
aS'prozac'
p2932
aS'prozac weekly'
p2933
aS'pseudoephedrine hydrochloride'
p2934
aS'pulmicort flexhaler'
p2935
aS'pulmicort respules'
p2936
aS'pulmolite'
p2937
aS'pur-wash'
p2938
aS'purixan'
p2939
aS'pylera'
p2940
aS'pyrazinamide'
p2941
aS'pyridostigmine bromide'
p2942
aS'pyridoxine hydrochloride'
p2943
aS'pytest'
p2944
aS'pytest kit'
p2945
aS'qnasl'
p2946
aS'qoliana'
p2947
aS'qsymia'
p2948
aS'quadramet'
p2949
aS'qualaquin'
p2950
aS'quartette'
p2951
aS'quasense'
p2952
aS'qudexy xr'
p2953
aS'quelicin'
p2954
aS'quelicin preservative free'
p2955
aS'quetiapine fumarate'
p2956
aS'quillivant xr'
p2957
aS'quinapril hydrochloride'
p2958
aS'quinapril hydrochloride and hydrochlorothiazide'
p2959
aS'quinaretic'
p2960
aS'quinidine gluconate'
p2961
aS'quinidine sulfate'
p2962
aS'quinine sulfate'
p2963
aS'quixin'
p2964
aS'qutenza'
p2965
aS'qvar 40'
p2966
aS'qvar 80'
p2967
aS'r-gene 10'
p2968
aS'rabeprazole sodium'
p2969
aS'radiogardase (prussian blue)'
p2970
aS'raloxifene hydrochloride'
p2971
aS'ramelteon'
p2972
aS'ramipril'
p2973
aS'ranexa'
p2974
aS'ranitidine hydrochloride'
p2975
aS'ranolazine'
p2976
aS'rapaflo'
p2977
aS'rapamune'
p2978
aS'rapivab'
p2979
aS'rasagiline mesylate'
p2980
aS'rasuvo'
p2981
aS'ravicti'
p2982
aS'rayos'
p2983
aS'razadyne'
p2984
aS'razadyne er'
p2985
aS'rebetol'
p2986
aS'reclast'
p2987
aS'rectiv'
p2988
aS'regitine'
p2989
aS'reglan'
p2990
aS'regonol'
p2991
aS'relenza'
p2992
aS'relistor'
p2993
aS'relpax'
p2994
aS'remeron'
p2995
aS'remeron soltab'
p2996
aS'remodulin'
p2997
aS'renacidin'
p2998
aS'renagel'
p2999
aS'renografin-76'
p3000
aS'renova'
p3001
aS'renvela'
p3002
aS'repaglinide'
p3003
aS'reprexain'
p3004
aS'repronex'
p3005
aS'requip'
p3006
aS'requip xl'
p3007
aS'rescriptor'
p3008
aS'rescula'
p3009
aS'resectisol in plastic container'
p3010
aS'reserpine'
p3011
aS'restasis'
p3012
aS'restoril'
p3013
aS'retin-a'
p3014
aS'retin-a micro'
p3015
aS'retin-a-micro'
p3016
aS'retisert'
p3017
aS'retrovir'
p3018
aS'revatio'
p3019
aS'revia'
p3020
aS'revlimid'
p3021
aS'revonto'
p3022
aS'reyataz'
p3023
aS'rezira'
p3024
aS'rhinocort allergy'
p3025
aS'ribasphere'
p3026
aS'ribavarin'
p3027
aS'ribavirin'
p3028
aS'ridaura'
p3029
aS'rifabutin'
p3030
aS'rifadin'
p3031
aS'rifamate'
p3032
aS'rifampin'
p3033
aS'rifater'
p3034
aS'rilutek'
p3035
aS'riluzole'
p3036
aS'rimactane'
p3037
aS'rimantadine hydrochloride'
p3038
aS'rimso-50'
p3039
aS"ringer's in plastic container"
p3040
aS'riomet'
p3041
aS'risedronate sodium'
p3042
aS'risperdal'
p3043
aS'risperdal consta'
p3044
aS'risperidone'
p3045
aS'ritalin'
p3046
aS'ritalin la'
p3047
aS'ritalin-sr'
p3048
aS'ritonavir'
p3049
aS'rivastigmine tartrate'
p3050
aS'rizatriptan benzoate'
p3051
aS'robaxin'
p3052
aS'robaxin-750'
p3053
aS'robinul'
p3054
aS'robinul forte'
p3055
aS'rocaltrol'
p3056
aS'rocephin'
p3057
aS'rocuronium bromide'
p3058
aS'rogaine (for men)'
p3059
aS'rogaine (for women)'
p3060
aS'rogaine extra strength (for men)'
p3061
aS'ropinirole hydrochloride'
p3062
aS'ropivacaine hydrochloride'
p3063
aS'rosiglitazone maleate'
p3064
aS'rosiglitazone maleate and metformin hydrochloride'
p3065
aS'rowasa'
p3066
aS'roxicet'
p3067
aS'roxicodone'
p3068
aS'rozerem'
p3069
aS'ryanodex'
p3070
aS'rytary'
p3071
aS'rythmol'
p3072
aS'rythmol sr'
p3073
aS'sabril'
p3074
aS'safyral'
p3075
aS'saizen'
p3076
aS'salagen'
p3077
aS'salonpas'
p3078
aS'saluron'
p3079
aS'samsca'
p3080
aS'sanctura'
p3081
aS'sanctura xr'
p3082
aS'sancuso'
p3083
aS'sandimmune'
p3084
aS'sandostatin'
p3085
aS'sandostatin lar'
p3086
aS'saphris'
p3087
aS'sarafem'
p3088
aS'savaysa'
p3089
aS'savella'
p3090
aS'saxenda'
p3091
aS'scandonest l'
p3092
aS'scandonest plain'
p3093
aS'scanlux-300'
p3094
aS'scanlux-370'
p3095
aS'sclerosol'
p3096
aS'scopolamine'
p3097
aS'seasonale'
p3098
aS'seasonique'
p3099
aS'seconal sodium'
p3100
aS'sectral'
p3101
aS'selegiline hydrochloride'
p3102
aS'selenium sulfide'
p3103
aS'selfemra'
p3104
aS'selsun'
p3105
aS'selzentry'
p3106
aS'semprex-d'
p3107
aS'sensipar'
p3108
aS'sensorcaine'
p3109
aS'septocaine'
p3110
aS'septra'
p3111
aS'septra ds'
p3112
aS'serevent'
p3113
aS'seromycin'
p3114
aS'serophene'
p3115
aS'seroquel'
p3116
aS'seroquel xr'
p3117
aS'serostim'
p3118
aS'sertraline hydrochloride'
p3119
aS'setlakin'
p3120
aS'sevoflurane'
p3121
aS'sfrowasa'
p3122
aS'shade uvaguard'
p3123
aS'signifor'
p3124
aS'signifor lar'
p3125
aS'sildenafil citrate'
p3126
aS'silenor'
p3127
aS'silvadene'
p3128
aS'simbrinza'
p3129
aS'simcor'
p3130
aS'simvastatin'
p3131
aS'sine-aid ib'
p3132
aS'sinemet'
p3133
aS'sinemet cr'
p3134
aS'singulair'
p3135
aS'sinografin'
p3136
aS'sirolimus'
p3137
aS'sirturo'
p3138
aS'sitavig'
p3139
aS'sivextro'
p3140
aS'skelaxin'
p3141
aS'sklice'
p3142
aS'skyla'
p3143
aS'sodium acetate in plastic container'
p3144
aS'sodium bicarbonate'
p3145
aS'sodium chloride 0.45% in plastic container'
p3146
aS'sodium chloride 0.9%'
p3147
aS'sodium chloride 0.9% '
p3148
aS'sodium chloride 0.9% in plastic container'
p3149
aS'sodium chloride 0.9% in sterile plastic container'
p3150
aS'sodium chloride 3% in plastic container'
p3151
aS'sodium chloride 5% in plastic container'
p3152
aS'sodium chloride in plastic container'
p3153
aS'sodium ferric gluconate complex in sucrose'
p3154
aS'sodium fluoride f-18'
p3155
aS'sodium iodide i 123'
p3156
aS'sodium iodide i 131'
p3157
aS'sodium iodide i-131'
p3158
aS'sodium lactate 0.167 molar in plastic container'
p3159
aS'sodium lactate 1/6 molar in plastic container'
p3160
aS'sodium lactate in plastic container'
p3161
aS'sodium nitrite'
p3162
aS'sodium phenylbutyrate'
p3163
aS'sodium phosphates in plastic container'
p3164
aS'sodium polystyrene sulfonate'
p3165
aS'sodium thiosulfate'
p3166
aS'sojourn'
p3167
aS'solaraze'
p3168
aS'solifenacin succinate'
p3169
aS'solodyn'
p3170
aS'soltamox'
p3171
aS'solu-cortef'
p3172
aS'solu-medrol'
p3173
aS'soma'
p3174
aS'soma compound'
p3175
aS'soma compound w/ codeine'
p3176
aS'somatuline depot'
p3177
aS'somavert'
p3178
aS'sonata'
p3179
aS'soolantra'
p3180
aS'sorbitol 3% in plastic container'
p3181
aS'sorbitol 3.3% in plastic container'
p3182
aS'sorbitol-mannitol in plastic container'
p3183
aS'soriatane'
p3184
aS'sorilux'
p3185
aS'sorine'
p3186
aS'sotalol hydrochloride'
p3187
aS'sotradecol'
p3188
aS'sotret'
p3189
aS'sotylize'
p3190
aS'sovaldi'
p3191
aS'spectracef'
p3192
aS'spiriva'
p3193
aS'spiriva respimat'
p3194
aS'spironolactone'
p3195
aS'spironolactone and hydrochlorothiazide'
p3196
aS'sporanox'
p3197
aS'sprintec'
p3198
aS'sprix'
p3199
aS'sprycel'
p3200
aS'sps'
p3201
aS'ssd'
p3202
aS'ssd af'
p3203
aS'stalevo 100'
p3204
aS'stalevo 125'
p3205
aS'stalevo 150'
p3206
aS'stalevo 200'
p3207
aS'stalevo 50'
p3208
aS'stalevo 75'
p3209
aS'starlix'
p3210
aS'stavudine'
p3211
aS'staxyn'
p3212
aS'stendra'
p3213
aS'sterile water'
p3214
aS'sterile water for injection in plastic container'
p3215
aS'sterile water in plastic container'
p3216
aS'stie-cort'
p3217
aS'stimate (needs no refrigeration)'
p3218
aS'stivarga'
p3219
aS'strattera'
p3220
aS'streptomycin sulfate'
p3221
aS'striant'
p3222
aS'stribild'
p3223
aS'striverdi respimat'
p3224
aS'stromectol'
p3225
aS'strontium chloride sr-89'
p3226
aS'sublimaze preservative free'
p3227
aS'suboxone'
p3228
aS'subsys'
p3229
aS'suclear'
p3230
aS'sucraid'
p3231
aS'sucralfate'
p3232
aS'sudafed 12 hour'
p3233
aS'sudafed 24 hour'
p3234
aS'sufenta preservative free'
p3235
aS'sufentanil citrate'
p3236
aS'sular'
p3237
aS'sulfacetamide sodium'
p3238
aS'sulfacetamide sodium and prednisolone sodium phosphate'
p3239
aS'sulfadiazine'
p3240
aS'sulfamethoxazole and trimethoprim'
p3241
aS'sulfamethoxazole and trimethoprim double strength'
p3242
aS'sulfamethoxazole and trimethoprim single strength'
p3243
aS'sulfamylon'
p3244
aS'sulfasalazine'
p3245
aS'sulfatrim pediatric'
p3246
aS'sulindac'
p3247
aS'sumatriptan succinate'
p3248
aS'sumavel dosepro'
p3249
aS'sunitinib malate'
p3250
aS'supprelin la'
p3251
aS'suprane'
p3252
aS'suprax'
p3253
aS'suprenza'
p3254
aS'suprep bowel prep kit'
p3255
aS'surfaxin'
p3256
aS'surmontil'
p3257
aS'survanta'
p3258
aS'sustiva'
p3259
aS'sutent'
p3260
aS'syeda'
p3261
aS'symbicort'
p3262
aS'symbyax'
p3263
aS'symlin'
p3264
aS'synacort'
p3265
aS'synalar'
p3266
aS'synalgos-dc'
p3267
aS'synarel'
p3268
aS'synera'
p3269
aS'synercid'
p3270
aS'synribo'
p3271
aS'synthroid'
p3272
aS'syprine'
p3273
aS'tab-profen'
p3274
aS'taclonex'
p3275
aS'tacrolimus'
p3276
aS'tafinlar'
p3277
aS'tagamet hb'
p3278
aS'talc'
p3279
aS'talwin'
p3280
aS'tamiflu'
p3281
aS'tamoxifen citrate'
p3282
aS'tamsulosin hydrochloride'
p3283
aS'tapazole'
p3284
aS'tarceva'
p3285
aS'targretin'
p3286
aS'tarka'
p3287
aS'tasigna'
p3288
aS'tasmar'
p3289
aS'tavist-1'
p3290
aS'taxol'
p3291
aS'taxotere'
p3292
aS'tazicef'
p3293
aS'tazorac'
p3294
aS'taztia xt'
p3295
aS'tecfidera'
p3296
aS'technelite'
p3297
aS'technescan'
p3298
aS'technescan mag3'
p3299
aS'technescan pyp kit'
p3300
aS'technetium tc 99m albumin aggregated kit'
p3301
aS'technetium tc 99m generator'
p3302
aS'technetium tc 99m sestamibi'
p3303
aS'technetium tc-99m mebrofenin'
p3304
aS'technetium tc-99m sestamibi'
p3305
aS'teflaro'
p3306
aS'tegretol'
p3307
aS'tegretol-xr'
p3308
aS'tekamlo'
p3309
aS'tekturna'
p3310
aS'tekturna hct'
p3311
aS'telmisartan'
p3312
aS'telmisartan and amlodipine'
p3313
aS'telmisartan and hydrochlorothiazide'
p3314
aS'temazepam'
p3315
aS'temodar'
p3316
aS'temovate'
p3317
aS'temovate e'
p3318
aS'temozolomide'
p3319
aS'tenex'
p3320
aS'tenofovir disoproxil fumarate'
p3321
aS'tenoretic 100'
p3322
aS'tenoretic 50'
p3323
aS'tenormin'
p3324
aS'tenuate'
p3325
aS'tenuate dospan'
p3326
aS'terazol 3'
p3327
aS'terazol 7'
p3328
aS'terazosin hydrochloride'
p3329
aS'terbinafine hydrochloride'
p3330
aS'terbutaline sulfate'
p3331
aS'terconazole'
p3332
aS'teril'
p3333
aS'terramycin w/ polymyxin b sulfate'
p3334
aS'tessalon'
p3335
aS'testim'
p3336
aS'testopel'
p3337
aS'testosterone'
p3338
aS'testosterone cypionate'
p3339
aS'testosterone enanthate'
p3340
aS'testred'
p3341
aS'tetracycline hydrochloride'
p3342
aS'teveten'
p3343
aS'teveten hct'
p3344
aS'texacort'
p3345
aS'thalitone'
p3346
aS'thallous chloride tl 201'
p3347
aS'thalomid'
p3348
aS'tham'
p3349
aS'theo-24'
p3350
aS'theochron'
p3351
aS'theophylline'
p3352
aS'theophylline 0.04% and dextrose 5% in plastic container'
p3353
aS'theophylline 0.08% and dextrose 5% in plastic container'
p3354
aS'theophylline 0.16% and dextrose 5% in plastic container'
p3355
aS'theophylline 0.32% and dextrose 5% in plastic container'
p3356
aS'theophylline in dextrose 5% in plastic container'
p3357
aS'thermazene'
p3358
aS'theroxidil'
p3359
aS'thiamine hydrochloride'
p3360
aS'thioguanine'
p3361
aS'thiola'
p3362
aS'thioridazine hydrochloride'
p3363
aS'thiotepa'
p3364
aS'thiothixene'
p3365
aS'thrive'
p3366
aS'thyrogen'
p3367
aS'thyrolar-0.25'
p3368
aS'thyrolar-0.5'
p3369
aS'thyrolar-1'
p3370
aS'thyrolar-2'
p3371
aS'thyrolar-3'
p3372
aS'thyrosafe'
p3373
aS'thyroshield'
p3374
aS'tiagabine hydrochloride'
p3375
aS'tiazac'
p3376
aS'ticlopidine hydrochloride'
p3377
aS'tigan'
p3378
aS'tikosyn'
p3379
aS'timentin'
p3380
aS'timentin in plastic container'
p3381
aS'timolol maleate'
p3382
aS'timoptic'
p3383
aS'timoptic in ocudose'
p3384
aS'timoptic-xe'
p3385
aS'tindamax'
p3386
aS'tinidazole'
p3387
aS'tioconazole'
p3388
aS'tirosint'
p3389
aS'tis-u-sol'
p3390
aS'tis-u-sol in plastic container'
p3391
aS'tivicay'
p3392
aS'tivorbex'
p3393
aS'tizanidine hydrochloride'
p3394
aS'tobi'
p3395
aS'tobi podhaler'
p3396
aS'tobradex'
p3397
aS'tobradex st'
p3398
aS'tobramycin'
p3399
aS'tobramycin and dexamethasone'
p3400
aS'tobramycin sulfate'
p3401
aS'tobramycin sulfate (pharmacy bulk)'
p3402
aS'tobramycin sulfate in sodium chloride 0.9% in plastic container'
p3403
aS'tobrex'
p3404
aS'today'
p3405
aS'tofranil'
p3406
aS'tofranil-pm'
p3407
aS'tolazamide'
p3408
aS'tolbutamide'
p3409
aS'tolcapone'
p3410
aS'tolmetin sodium'
p3411
aS'tolterodine tartrate'
p3412
aS'topamax'
p3413
aS'topicort'
p3414
aS'topiramate'
p3415
aS'topiramate '
p3416
aS'topotecan hydrochloride'
p3417
aS'toprol-xl'
p3418
aS'torisel'
p3419
aS'torsemide'
p3420
aS'totect'
p3421
aS'toujeo solostar'
p3422
aS'toviaz'
p3423
aS'tpn electrolytes in plastic container'
p3424
aS'tracleer'
p3425
aS'tradjenta'
p3426
aS'tramadol hydrochloride'
p3427
aS'tramadol hydrochloride and acetaminophen'
p3428
aS'trandate'
p3429
aS'trandolapril'
p3430
aS'trandolapril and verapamil hydrochloride'
p3431
aS'tranexamic acid'
p3432
aS'transderm scop'
p3433
aS'tranxene'
p3434
aS'tranylcypromine sulfate'
p3435
aS'travasol 10% in plastic container'
p3436
aS'travasol 5.5% in plastic container'
p3437
aS'travasol 5.5% sulfite free w/ electrolytes in plastic container'
p3438
aS'travasol 8.5% in plastic container'
p3439
aS'travasol 8.5% sulfite free w/ electrolytes in plastic container'
p3440
aS'travatan z'
p3441
aS'travoprost'
p3442
aS'trazodone hydrochloride'
p3443
aS'treanda'
p3444
aS'trecator'
p3445
aS'trelstar'
p3446
aS'tretinoin'
p3447
aS'trexall'
p3448
aS'treximet'
p3449
aS'trezix'
p3450
aS'tri-estarylla'
p3451
aS'tri-legest 21'
p3452
aS'tri-legest fe'
p3453
aS'tri-linyah'
p3454
aS'tri-luma'
p3455
aS'tri-norinyl 28-day'
p3456
aS'tri-previfem'
p3457
aS'tri-sprintec'
p3458
aS'triacin-c'
p3459
aS'triamcinolone acetonide'
p3460
aS'triamcinolone acetonide in absorbase'
p3461
aS'triamterene and hydrochlorothiazide'
p3462
aS'triazolam'
p3463
aS'tribenzor'
p3464
aS'tricor'
p3465
aS'triderm'
p3466
aS'tridione'
p3467
aS'triesence'
p3468
aS'triferic'
p3469
aS'trifluoperazine hydrochloride'
p3470
aS'trifluridine'
p3471
aS'triglide'
p3472
aS'trihexyphenidyl hydrochloride'
p3473
aS'trileptal'
p3474
aS'trilipix'
p3475
aS'trilyte'
p3476
aS'trimethobenzamide hydrochloride'
p3477
aS'trimethobenzamide hydrochloride preservative free'
p3478
aS'trimethoprim'
p3479
aS'trimethoprim sulfate and polymyxin b sulfate'
p3480
aS'trimipramine maleate'
p3481
aS'triostat'
p3482
aS'trisenox'
p3483
aS'triumeq'
p3484
aS'trivagizole 3'
p3485
aS'trivora-28'
p3486
aS'trizivir'
p3487
aS'trokendi xr'
p3488
aS'trophamine'
p3489
aS'trophamine 10%'
p3490
aS'tropicacyl'
p3491
aS'tropicamide'
p3492
aS'trospium chloride'
p3493
aS'trusopt'
p3494
aS'truvada'
p3495
aS'tudorza pressair'
p3496
aS'tussicaps'
p3497
aS'tussigon'
p3498
aS'tussionex pennkinetic'
p3499
aS'tuzistra xr'
p3500
aS'twinject 0.15'
p3501
aS'twinject 0.3'
p3502
aS'twynsta'
p3503
aS'tybost'
p3504
aS'tygacil'
p3505
aS'tykerb'
p3506
aS'tylenol '
p3507
aS'tylenol w/ codeine no. 3'
p3508
aS'tylenol w/ codeine no. 4'
p3509
aS'tyvaso'
p3510
aS'tyzeka'
p3511
aS'tyzine'
p3512
aS'u-cort'
p3513
aS'uceris'
p3514
aS'ulesfia'
p3515
aS'uloric'
p3516
aS'ultane'
p3517
aS'ultiva'
p3518
aS'ultra-technekow fm'
p3519
aS'ultracet'
p3520
aS'ultram'
p3521
aS'ultram er'
p3522
aS'ultratag'
p3523
aS'ultravate'
p3524
aS'ultravist (pharmacy bulk)'
p3525
aS'ultravist 150'
p3526
aS'ultravist 240'
p3527
aS'ultravist 300'
p3528
aS'ultravist 300 in plastic container'
p3529
aS'ultravist 370'
p3530
aS'ultresa'
p3531
aS'unasyn'
p3532
aS'uniphyl'
p3533
aS'uniretic'
p3534
aS'unisom'
p3535
aS'unithroid'
p3536
aS'univasc'
p3537
aS'urecholine'
p3538
aS'urex'
p3539
aS'urocit-k'
p3540
aS'uroxatral'
p3541
aS'urso 250'
p3542
aS'urso forte'
p3543
aS'ursodiol'
p3544
aS'uvadex'
p3545
aS'vagifem'
p3546
aS'vagistat-1'
p3547
aS'valacyclovir hydrochloride'
p3548
aS'valchlor'
p3549
aS'valcyte'
p3550
aS'valganciclovir hydrochloride'
p3551
aS'valium'
p3552
aS'valnac'
p3553
aS'valproate sodium'
p3554
aS'valproic acid'
p3555
aS'valsartan'
p3556
aS'valsartan and hydrochlorothiazide'
p3557
aS'valstar preservative free'
p3558
aS'valtrex'
p3559
aS'valtropin'
p3560
aS'vancocin hydrochloride'
p3561
aS'vancocin hydrochloride in plastic container'
p3562
aS'vancomycin hydrochloride'
p3563
aS'vandazole'
p3564
aS'vaniqa'
p3565
aS'vanos'
p3566
aS'vantas'
p3567
aS'vaprisol in 5% dextrose in plastic container'
p3568
aS'vardenafil hydrochloride'
p3569
aS'varithena'
p3570
aS'vascepa'
p3571
aS'vaseretic'
p3572
aS'vasostrict'
p3573
aS'vasotec'
p3574
aS'vazculep'
p3575
aS'vectical'
p3576
aS'vecuronium bromide'
p3577
aS'velcade'
p3578
aS'veletri'
p3579
aS'velivet'
p3580
aS'velphoro'
p3581
aS'veltin'
p3582
aS'venlafaxine hydrochloride'
p3583
aS'venofer'
p3584
aS'ventavis'
p3585
aS'ventolin hfa'
p3586
aS'veramyst'
p3587
aS'verapamil hydrochloride'
p3588
aS'verdeso'
p3589
aS'veregen'
p3590
aS'verelan'
p3591
aS'verelan pm'
p3592
aS'versacloz'
p3593
aS'vesicare'
p3594
aS'vexol'
p3595
aS'vfend'
p3596
aS'viagra'
p3597
aS'vibativ'
p3598
aS'vibisone'
p3599
aS'vibramycin'
p3600
aS'vicoprofen'
p3601
aS'victoza'
p3602
aS'victrelis'
p3603
aS'vidaza'
p3604
aS'videx'
p3605
aS'videx ec'
p3606
aS'viekira pak (copackaged)'
p3607
aS'vigamox'
p3608
aS'viibryd'
p3609
aS'vimovo'
p3610
aS'vimpat'
p3611
aS'vinblastine sulfate'
p3612
aS'vincristine sulfate pfs'
p3613
aS'vinorelbine'
p3614
aS'vinorelbine tartrate'
p3615
aS'viokace'
p3616
aS'viorele'
p3617
aS'viracept'
p3618
aS'viramune'
p3619
aS'viramune xr'
p3620
aS'virazole'
p3621
aS'viread'
p3622
aS'viroptic'
p3623
aS'visine l.r.'
p3624
aS'visine-a'
p3625
aS'visionblue'
p3626
aS'visipaque 270'
p3627
aS'visipaque 320'
p3628
aS'vistaril'
p3629
aS'vistide'
p3630
aS'visudyne'
p3631
aS'vitamin d'
p3632
aS'vitamin k1'
p3633
aS'vitekta'
p3634
aS'vitrase'
p3635
aS'vituz'
p3636
aS'vivactil'
p3637
aS'vivelle'
p3638
aS'vivelle-dot'
p3639
aS'vivitrol'
p3640
aS'vizamyl'
p3641
aS'vogelxo'
p3642
aS'voltaren'
p3643
aS'voltaren-xr'
p3644
aS'voriconazole'
p3645
aS'vosol'
p3646
aS'vosol hc'
p3647
aS'vospire er'
p3648
aS'votrient'
p3649
aS'vpriv'
p3650
aS'vumon'
p3651
aS'vusion'
p3652
aS'vyfemla'
p3653
aS'vytorin'
p3654
aS'vyvanse'
p3655
aS'warfarin sodium'
p3656
aS'welchol'
p3657
aS'wellbutrin'
p3658
aS'wellbutrin sr'
p3659
aS'wellbutrin xl'
p3660
aS'wera'
p3661
aS"women's rogaine"
p3662
aS'xalatan'
p3663
aS'xalkori'
p3664
aS'xanax'
p3665
aS'xanax xr'
p3666
aS'xarelto'
p3667
aS'xartemis xr'
p3668
aS'xeljanz'
p3669
aS'xeloda'
p3670
aS'xenazine'
p3671
aS'xenical'
p3672
aS'xenon xe 133'
p3673
aS'xerese'
p3674
aS'xifaxan'
p3675
aS'xigduo xr'
p3676
aS'xofigo'
p3677
aS'xolegel'
p3678
aS'xopenex'
p3679
aS'xopenex hfa'
p3680
aS'xtandi'
p3681
aS'xtoro'
p3682
aS'xulane'
p3683
aS'xylocaine'
p3684
aS'xylocaine 4% preservative free'
p3685
aS'xylocaine preservative free'
p3686
aS'xylocaine viscous'
p3687
aS'xylocaine w/ epinephrine'
p3688
aS'xyrem'
p3689
aS'xyzal'
p3690
aS'yaela'
p3691
aS'yasmin'
p3692
aS'yaz'
p3693
aS'zaditor'
p3694
aS'zafirlukast'
p3695
aS'zaleplon'
p3696
aS'zanaflex'
p3697
aS'zanosar'
p3698
aS'zantac'
p3699
aS'zantac 150'
p3700
aS'zantac 300'
p3701
aS'zantac 75'
p3702
aS'zarontin'
p3703
aS'zaroxolyn'
p3704
aS'zavesca'
p3705
aS'zebeta'
p3706
aS'zecuity'
p3707
aS'zegerid'
p3708
aS'zegerid otc'
p3709
aS'zelapar'
p3710
aS'zelboraf'
p3711
aS'zemplar'
p3712
aS'zenatane'
p3713
aS'zenpep'
p3714
aS'zerbaxa'
p3715
aS'zerit'
p3716
aS'zestoretic'
p3717
aS'zestril'
p3718
aS'zetia'
p3719
aS'zetonna'
p3720
aS'ziac'
p3721
aS'ziagen'
p3722
aS'ziana'
p3723
aS'zidovudine'
p3724
aS'zinacef'
p3725
aS'zinacef in plastic container'
p3726
aS'zinc chloride in plastic container'
p3727
aS'zinecard'
p3728
aS'zingo'
p3729
aS'zioptan'
p3730
aS'ziprasidone hydrochloride'
p3731
aS'zipsor'
p3732
aS'zirgan'
p3733
aS'zithromax'
p3734
aS'zmax'
p3735
aS'zocor'
p3736
aS'zofran'
p3737
aS'zofran odt'
p3738
aS'zofran preservative free'
p3739
aS'zohydro er'
p3740
aS'zoladex'
p3741
aS'zoledronic acid'
p3742
aS'zolinza'
p3743
aS'zolmitriptan'
p3744
aS'zoloft'
p3745
aS'zolpidem tartrate'
p3746
aS'zolpimist'
p3747
aS'zomacton'
p3748
aS'zometa'
p3749
aS'zomig'
p3750
aS'zomig-zmt'
p3751
aS'zonalon'
p3752
aS'zonegran'
p3753
aS'zonisamide'
p3754
aS'zontivity'
p3755
aS'zorbtive'
p3756
aS'zortress'
p3757
aS'zorvolex'
p3758
aS'zosyn'
p3759
aS'zosyn in plastic container'
p3760
aS'zovia 1/35e-28'
p3761
aS'zovia 1/50e-28'
p3762
aS'zovirax'
p3763
aS'zubsolv'
p3764
aS'zuplenz'
p3765
aS'zutripro'
p3766
aS'zyban'
p3767
aS'zyclara'
p3768
aS'zydelig'
p3769
aS'zyflo'
p3770
aS'zyflo cr'
p3771
aS'zykadia'
p3772
aS'zylet'
p3773
aS'zyloprim'
p3774
aS'zymar'
p3775
aS'zymaxid'
p3776
aS'zyprexa'
p3777
aS'zyprexa relprevv'
p3778
aS'zyprexa zydis'
p3779
aS'zyrtec'
p3780
aS'zyrtec allergy'
p3781
aS'zyrtec hives relief'
p3782
aS'zyrtec-d 12 hour'
p3783
aS'zytiga'
p3784
aS'zyvox'
p3785
a.