(lp0
S'"clopra-""yellow"""'
p1
aS'"germa-medica ""mg"""'
p2
aS'"hy-pam ""25"""'
p3
aS'"hydro-serp ""25"""'
p4
aS'"hydro-serp ""50"""'
p5
aS'8-hour bayer'
p6
aS'a-hydrocort'
p7
aS'a-methapred'
p8
aS'a-n stannous aggregated albumin'
p9
aS'a-poxide'
p10
aS'a.p.l.'
p11
aS'a/t/s'
p12
aS'abilify'
p13
aS'abitrexate'
p14
aS'accretropin'
p15
aS'accurbron'
p16
aS'accutane'
p17
aS'acebutolol hydrochloride'
p18
aS'acephen'
p19
aS'acetaminophen'
p20
aS'acetaminophen and codeine phosphate'
p21
aS'acetaminophen and hydrocodone bitartrate'
p22
aS'acetaminophen and pentazocine hydrochloride'
p23
aS'acetaminophen, aspirin, and codeine phosphate'
p24
aS'acetaminophen, caffeine, and dihydrocodeine bitartrate'
p25
aS'acetasol'
p26
aS"acetated ringer's in plastic container"
p27
aS'acetazolamide'
p28
aS'acetazolamide sodium'
p29
aS'acetic acid'
p30
aS'acetic acid w/ hydrocortisone'
p31
aS'acetohexamide'
p32
aS'acetylcysteine'
p33
aS'aches-n-pain'
p34
aS'achromycin'
p35
aS'achromycin v'
p36
aS'acilac'
p37
aS'aciphex'
p38
aS'aclovate'
p39
aS'actahist'
p40
aS'acth'
p41
aS'acthar'
p42
aS'acthar gel-synthetic'
p43
aS'acticort'
p44
aS'actidil'
p45
aS'actifed'
p46
aS'actifed w/ codeine'
p47
aS'actigall'
p48
aS'actin-n'
p49
aS'actinex'
p50
aS'actisite'
p51
aS'actonel'
p52
aS'actonel with calcium (copackaged)'
p53
aS'actron'
p54
aS'acular preservative free'
p55
aS'acutect'
p56
aS'acyclovir'
p57
aS'acyclovir sodium'
p58
aS'acylanid'
p59
aS'adalat'
p60
aS'adderall 10'
p61
aS'adderall 12.5'
p62
aS'adderall 15'
p63
aS'adderall 20'
p64
aS'adderall 30'
p65
aS'adderall 5'
p66
aS'adderall 7.5'
p67
aS'adenosine'
p68
aS'adphen'
p69
aS'adriamycin pfs'
p70
aS'adriamycin rdf'
p71
aS'adrucil'
p72
aS'aerobid'
p73
aS'aerolate'
p74
aS'aerolate iii'
p75
aS'aerolate jr'
p76
aS'aerolate sr'
p77
aS'aerolone'
p78
aS'aeroseb-dex'
p79
aS'aeroseb-hc'
p80
aS'aerosporin'
p81
aS'afaxin'
p82
aS'agenerase'
p83
aS'aggrastat'
p84
aS'agrylin'
p85
aS'ak-pentolate'
p86
aS'akineton'
p87
aS'akpentolate'
p88
aS'akpro'
p89
aS'akrinol'
p90
aS'ala-cort'
p91
aS'alamast'
p92
aS'albalon'
p93
aS'albuterol'
p94
aS'albuterol sulfate'
p95
aS'albuterol sulfate and ipratropium bromide'
p96
aS'alcohol 5% in d5-w'
p97
aS'alcohol 5% in dextrose 5%'
p98
aS'alcohol 5% in dextrose 5% in water'
p99
aS'aldoclor-150'
p100
aS'aldoclor-250'
p101
aS'aldomet'
p102
aS'aldoril 15'
p103
aS'aldoril 25'
p104
aS'aldoril d30'
p105
aS'aldoril d50'
p106
aS'alendronate sodium'
p107
aS'alesse'
p108
aS'alfuzosin hydrochloride'
p109
aS'alkergot'
p110
aS'allay'
p111
aS'allegra'
p112
aS'allerfed'
p113
aS'allernaze'
p114
aS'allopurinol'
p115
aS'aloxi'
p116
aS'alpha chymar'
p117
aS'alphacaine'
p118
aS'alphacaine hydrochloride'
p119
aS'alphacaine hydrochloride w/ epinephrine'
p120
aS'alphaderm'
p121
aS'alphadrol'
p122
aS'alphagan'
p123
aS'alphalin'
p124
aS'alpharedisol'
p125
aS'alphatrex'
p126
aS'alphazine'
p127
aS'alprazolam'
p128
aS'altace'
p129
aS'altoprev'
p130
aS'aluminum hydroxide and magnesium trisilicate'
p131
aS'alupent'
p132
aS'amantadine hydrochloride'
p133
aS'ambenyl'
p134
aS'ambodryl'
p135
aS'amcill'
p136
aS'amen'
p137
aS'amerscan mdp kit'
p138
aS'amicar'
p139
aS'amikacin sulfate'
p140
aS'amikacin sulfate in sodium chloride 0.9% in plastic container'
p141
aS'amikin'
p142
aS'amikin in sodium chloride 0.9% in plastic container'
p143
aS'amiloride hydrochloride and hydrochlorothiazide'
p144
aS'aminess 5.2% essential amino acids w/ histadine'
p145
aS'aminocaproic acid'
p146
aS'aminohippurate sodium'
p147
aS'aminophyllin'
p148
aS'aminophylline'
p149
aS'aminophylline dye free'
p150
aS'aminophylline in sodium chloride 0.45%'
p151
aS'aminophylline in sodium chloride 0.45% in plastic container'
p152
aS'aminosol 5%'
p153
aS'aminosyn 3.5% in plastic container'
p154
aS'aminosyn 3.5% m'
p155
aS'aminosyn 3.5% m in plastic container'
p156
aS'aminosyn 3.5% w/ dextrose 25% in plastic container'
p157
aS'aminosyn 3.5% w/ dextrose 5% in plastic container'
p158
aS'aminosyn 4.25% w/ dextrose 25% in plastic container'
p159
aS'aminosyn ii 3.5%'
p160
aS'aminosyn ii 3.5% in dextrose 25% in plastic container'
p161
aS'aminosyn ii 3.5% in dextrose 5% in plastic container'
p162
aS'aminosyn ii 3.5% in plastic container'
p163
aS'aminosyn ii 3.5% m'
p164
aS'aminosyn ii 3.5% m in dextrose 5% in plastic container'
p165
aS'aminosyn ii 3.5% m in plastic container'
p166
aS'aminosyn ii 3.5% w/ electrolytes in dextrose 25% in plastic container'
p167
aS'aminosyn ii 3.5% w/ electrolytes in dextrose 25% w/ calcium in plastic container'
p168
aS'aminosyn ii 4.25% in dextrose 10% in plastic container'
p169
aS'aminosyn ii 4.25% in dextrose 20% in plastic container'
p170
aS'aminosyn ii 4.25% in dextrose 25% in plastic container'
p171
aS'aminosyn ii 4.25% m in dextrose 10% in plastic container'
p172
aS'aminosyn ii 4.25% w/ elect and adjusted phosphate in dextrose 10% in plastic container'
p173
aS'aminosyn ii 4.25% w/ electrolytes in dextrose 20% w/ calcium in plastic container'
p174
aS'aminosyn ii 4.25% w/ electrolytes in dextrose 25% in plastic container'
p175
aS'aminosyn ii 4.25% w/ electrolytes in dextrose 25% w/ calcium in plastic container'
p176
aS'aminosyn ii 5%'
p177
aS'aminosyn ii 5% in dextrose 25% in plastic container'
p178
aS'aminosyn ii 5% w/ electrolytes in dextrose 25% w/ calcium in plastic container'
p179
aS'aminosyn ii 7% w/ electrolytes'
p180
aS'aminosyn-hbc 7% in plastic container'
p181
aS'amiodarone hydrochloride'
p182
aS'amipaque'
p183
aS'amitid'
p184
aS'amitril'
p185
aS'amitriptyline hydrochloride'
p186
aS'amlexanox'
p187
aS'amlodipine besylate'
p188
aS'ammonium chloride'
p189
aS'ammonium chloride 0.9% in normal saline'
p190
aS'ammonium chloride 2.14%'
p191
aS'amnestrogen'
p192
aS'amosene'
p193
aS'amoxapine'
p194
aS'amoxicillin'
p195
aS'amoxicillin and clavulanate potassium'
p196
aS'amoxil'
p197
aS'amphetamine sulfate'
p198
aS'amphicol'
p199
aS'amphotericin b'
p200
aS'ampicillin sodium'
p201
aS'ampicillin trihydrate'
p202
aS'amrinone lactate'
p203
aS'amvaz'
p204
aS'an-maa'
p205
aS'anagrelide hydrochloride'
p206
aS'anastrozole'
p207
aS'ancef'
p208
aS'ancef in dextrose 5% in plastic container'
p209
aS'ancef in sodium chloride 0.9% in plastic container'
p210
aS'androderm'
p211
aS'android 5'
p212
aS'android-f'
p213
aS'anectine'
p214
aS'anestacon'
p215
aS'anexsia'
p216
aS'anexsia 7.5/650'
p217
aS'angio-conray'
p218
aS'angiovist 282'
p219
aS'angiovist 292'
p220
aS'angiovist 370'
p221
aS'anhydron'
p222
aS'anisotropine methylbromide'
p223
aS'anoquan'
p224
aS'ansolysen'
p225
aS'anspor'
p226
aS'antabuse'
p227
aS'antagonate'
p228
aS'antara (micronized)'
p229
aS'antepar'
p230
aS'antitussive'
p231
aS'antivert'
p232
aS'antrenyl'
p233
aS'anturane'
p234
aS'aphthasol'
p235
aS'apogen'
p236
aS'apokyn'
p237
aS'apresazide'
p238
aS'apresoline'
p239
aS'apresoline-esidrix'
p240
aS'aquamephyton'
p241
aS'aquaphyllin'
p242
aS'aquasol a'
p243
aS'aquatag'
p244
aS'aquatensen'
p245
aS'aralen hydrochloride'
p246
aS'aralen phosphate w/ primaquine phosphate'
p247
aS'aramine'
p248
aS'arduan'
p249
aS'aredia'
p250
aS'arestocaine hydrochloride'
p251
aS'arestocaine hydrochloride w/ levonordefrin'
p252
aS'arfonad'
p253
aS'argatroban in dextrose'
p254
aS'aricept'
p255
aS'aridol kit'
p256
aS'aristocort'
p257
aS'aristocort a'
p258
aS'aristogel'
p259
aS'armodafinil'
p260
aS'artane'
p261
aS'asbron'
p262
aS'asellacrin 10'
p263
aS'asellacrin 2'
p264
aS'asendin'
p265
aS'astepro'
p266
aS'atarax'
p267
aS'atenolol'
p268
aS'atenolol and chlorthalidone'
p269
aS'athrombin'
p270
aS'athrombin-k'
p271
aS'atnaa'
p272
aS'atomoxetine hydrochloride'
p273
aS'atorvastatin calcium'
p274
aS'atracurium besylate'
p275
aS'atracurium besylate preservative free'
p276
aS'atromid-s'
p277
aS'atropine'
p278
aS'atropine and demerol'
p279
aS'atropine sulfate'
p280
aS'atrovent'
p281
aS'aureomycin'
p282
aS'avalide'
p283
aS'avandamet'
p284
aS'avc'
p285
aS'aventyl '
p286
aS'aventyl hydrochloride'
p287
aS'aviane-21'
p288
aS'axid'
p289
aS'axotal'
p290
aS'azactam'
p291
aS'azactam in plastic container'
p292
aS'azdone'
p293
aS'azithromycin'
p294
aS'azlin'
p295
aS'azmacort'
p296
aS'azo gantanol'
p297
aS'azo gantrisin'
p298
aS'azolid'
p299
aS'azulfidine'
p300
aS'baci-rx'
p301
aS'baciguent'
p302
aS'bacitracin'
p303
aS'bacitracin zinc-neomycin sulfate-polymyxin b sulfate'
p304
aS'bacitracin zinc-polymyxin b sulfate'
p305
aS'bacitracin-neomycin-polymyxin'
p306
aS'bacitracin-neomycin-polymyxin w/ hydrocortisone acetate'
p307
aS'baclofen'
p308
aS'bacteriostatic sodium chloride 0.9% in plastic container'
p309
aS'bacteriostatic water for injection in plastic container'
p310
aS'bactocill'
p311
aS'bactrim'
p312
aS'bactrim pediatric'
p313
aS'balneol-hc'
p314
aS'balziva-21'
p315
aS'bamate'
p316
aS'banan'
p317
aS'bancap'
p318
aS'bancap hc'
p319
aS'banthine'
p320
aS'banzel'
p321
aS'baros'
p322
aS'barstatin 100'
p323
aS'baycol'
p324
aS'bayer extra strength aspirin for migraine pain'
p325
aS'beclovent'
p326
aS'beconase'
p327
aS'beepen-vk'
p328
aS'beldin'
p329
aS'belix'
p330
aS'benadryl'
p331
aS'benadryl preservative free'
p332
aS'benazepril hydrochloride'
p333
aS'benazepril hydrochloride and hydrochlorothiazide'
p334
aS'bendectin'
p335
aS'bendopa'
p336
aS'benemid'
p337
aS'benoquin'
p338
aS'benoxinate hydrochloride'
p339
aS'bensulfoid'
p340
aS'benylin'
p341
aS'benzaclin'
p342
aS'benzonatate'
p343
aS'benzphetamine hydrochloride'
p344
aS'benzthiazide'
p345
aS'benztropine mesylate'
p346
aS'benzyl benzoate'
p347
aS'bepadin'
p348
aS'berocca pn'
p349
aS'berubigen'
p350
aS'beta-2'
p351
aS'beta-hc'
p352
aS'beta-val'
p353
aS'betaderm'
p354
aS'betalin 12'
p355
aS'betalin s'
p356
aS'betamethasone dipropionate'
p357
aS'betamethasone sodium phosphate'
p358
aS'betamethasone valerate'
p359
aS'betapace'
p360
aS'betapace af'
p361
aS'betapar'
p362
aS'betapen-vk'
p363
aS'betaprone'
p364
aS'betatrex'
p365
aS'betaxolol hydrochloride'
p366
aS'betaxon'
p367
aS'bethanechol chloride'
p368
aS'betoptic pilo'
p369
aS'bexarotene'
p370
aS'bextra'
p371
aS'biaxin'
p372
aS'biaxin xl'
p373
aS'bicalutamide'
p374
aS'bicillin'
p375
aS'bicillin l-a'
p376
aS'bilivist'
p377
aS'bilopaque'
p378
aS'bio-tropin'
p379
aS'biphetamine 12.5'
p380
aS'biphetamine 20'
p381
aS'biphetamine 7.5'
p382
aS'bisoprolol fumarate'
p383
aS'bisoprolol fumarate and hydrochlorothiazide'
p384
aS'blenoxane'
p385
aS'bleomycin sulfate'
p386
aS'bleph-10'
p387
aS'bleph-30'
p388
aS'blocadren'
p389
aS'boniva'
p390
aS'bontril'
p391
aS'borofair'
p392
aS'branchamin 4%'
p393
aS'branchamin 4% in plastic container'
p394
aS'breathtek ubt for h-pylori'
p395
aS'brethaire'
p396
aS'brethine'
p397
aS'bretylium tosylate'
p398
aS'bretylium tosylate in dextrose 5%'
p399
aS'bretylium tosylate in dextrose 5% in plastic container'
p400
aS'bretylol'
p401
aS'brevibloc'
p402
aS'brevicon 21-day'
p403
aS'brevital sodium'
p404
aS'bricanyl'
p405
aS'brimonidine tartrate'
p406
aS'bristacycline'
p407
aS'bristagen'
p408
aS'bristamycin'
p409
aS'bromanate dm'
p410
aS'bromanyl'
p411
aS'bromfed-dm'
p412
aS'bromocriptine mesylate'
p413
aS'bromodiphenhydramine hydrochloride and codeine phosphate'
p414
aS'brompheniramine maleate'
p415
aS'brompheril'
p416
aS'bronitin mist'
p417
aS'bronkaid mist'
p418
aS'bronkodyl'
p419
aS'bronkometer'
p420
aS'bronkosol'
p421
aS'bryrel'
p422
aS'bucet'
p423
aS'bucladin-s'
p424
aS'budesonide'
p425
aS'bumetanide'
p426
aS'bumex'
p427
aS'bupivacaine hydrochloride'
p428
aS'bupivacaine hydrochloride and epinephrine'
p429
aS'bupivacaine hydrochloride kit'
p430
aS'bupivacaine hydrochloride preservative free'
p431
aS'bupropion hydrochloride'
p432
aS'buspar'
p433
aS'buspirone hydrochloride'
p434
aS'butabarb'
p435
aS'butabarbital'
p436
aS'butabarbital sodium'
p437
aS'butalan'
p438
aS'butalbital and acetaminophen'
p439
aS'butalbital, acetaminophen and caffeine'
p440
aS'butalbital, acetaminophen, caffeine and codeine phosphate'
p441
aS'butalbital, aspirin and caffeine'
p442
aS'butalbital, aspirin, caffeine, and codeine phosphate'
p443
aS'butalibital, acetaminophen and caffeine'
p444
aS'butapap'
p445
aS'butazolidin'
p446
aS'buticaps'
p447
aS'butisol sodium'
p448
aS'butorphanol tartrate'
p449
aS'butorphanol tartrate preservative free'
p450
aS'c-solve-2'
p451
aS'cafergot'
p452
aS'calan'
p453
aS'calcibind'
p454
aS'calcimar'
p455
aS'calciparine'
p456
aS'calcitonin-salmon'
p457
aS'calcitriol'
p458
aS'calcium acetate'
p459
aS'calcium disodium versenate'
p460
aS'calcium gluceptate'
p461
aS'calderol'
p462
aS'caldolor'
p463
aS'calmurid hc'
p464
aS'calomist'
p465
aS'cam-ap-es'
p466
aS'cam-metrazine'
p467
aS'camoquin hydrochloride'
p468
aS'canasa'
p469
aS'candex'
p470
aS'cantil'
p471
aS'cap-profen'
p472
aS'capital and codeine'
p473
aS'capitrol'
p474
aS'capoten'
p475
aS'capozide 25/15'
p476
aS'capozide 25/25'
p477
aS'capozide 50/15'
p478
aS'capozide 50/25'
p479
aS'captopril'
p480
aS'captopril and hydrochlorothiazide'
p481
aS'carbachol'
p482
aS'carbamazepine'
p483
aS'carbastat'
p484
aS'carbidopa and levodopa'
p485
aS'carbilev'
p486
aS'carbocaine'
p487
aS'carbocaine w/ neo-cobefrin'
p488
aS'carboplatin'
p489
aS'cardene sr'
p490
aS'cardiografin'
p491
aS'cardioquin'
p492
aS'cardiotec'
p493
aS'cardizem'
p494
aS'cardizem sr'
p495
aS'cardrase'
p496
aS'carisoprodol'
p497
aS'carisoprodol compound'
p498
aS'carisoprodol, aspirin and codeine phosphate'
p499
aS'carmol hc'
p500
aS'carnitor'
p501
aS'carteolol hydrochloride'
p502
aS'cartrol'
p503
aS'carvedilol'
p504
aS'cataflam'
p505
aS'catarase'
p506
aS'caverject'
p507
aS'ceclor'
p508
aS'ceclor cd'
p509
aS'cedilanid-d'
p510
aS'cefaclor'
p511
aS'cefadroxil'
p512
aS'cefadyl'
p513
aS'cefazolin and dextrose'
p514
aS'cefazolin sodium'
p515
aS'cefepime hydrochloride'
p516
aS'cefizox'
p517
aS'cefizox in dextrose 5% in plastic container'
p518
aS'cefizox in plastic container'
p519
aS'cefmax'
p520
aS'cefobid'
p521
aS'cefobid in plastic container'
p522
aS'cefotan'
p523
aS'cefotan in plastic container'
p524
aS'cefotaxime'
p525
aS'cefotaxime and dextrose 2.4% in plastic container'
p526
aS'cefotaxime and dextrose 3.9% in plastic container'
p527
aS'cefotaxime sodium'
p528
aS'cefoxitin'
p529
aS'cefpiramide sodium'
p530
aS'cefprozil'
p531
aS'ceftazidime'
p532
aS'ceftazidime sodium in plastic container'
p533
aS'ceftriaxone'
p534
aS'cefuroxime axetil'
p535
aS'cefuroxime sodium'
p536
aS'cefuroxime sodium in plastic container'
p537
aS'cefzil'
p538
aS'celestone'
p539
aS'celexa'
p540
aS'centrax'
p541
aS'cephalexin'
p542
aS'cephalothin'
p543
aS'cephalothin sodium'
p544
aS'cephalothin sodium w/ dextrose in plastic container'
p545
aS'cephalothin sodium w/ sodium chloride in plastic container'
p546
aS'cephapirin sodium'
p547
aS'cephradine'
p548
aS'cephulac'
p549
aS'ceptaz'
p550
aS'ceradon'
p551
aS'ceredase'
p552
aS'cerubidine'
p553
aS'cerumenex'
p554
aS'cetacort'
p555
aS'cetapred'
p556
aS'cetirizine hydrochloride'
p557
aS'cetirizine hydrochloride allergy'
p558
aS'cetirizine hydrochloride hives relief'
p559
aS'cetrotide'
p560
aS'chenix'
p561
aS'chibroxin'
p562
aS"children's advil"
p563
aS"children's cetirizine hydrochloride allergy"
p564
aS"children's cetirizine hydrochloride hives relief"
p565
aS"children's zyrtec allergy"
p566
aS"children's zyrtec hives relief"
p567
aS'chirocaine'
p568
aS'chlor-trimeton'
p569
aS'chloramphenicol'
p570
aS'chloramphenicol sodium succinate'
p571
aS'chlordiazachel'
p572
aS'chlordiazepoxide and amitriptyline hydrochloride'
p573
aS'chlordiazepoxide hydrochloride'
p574
aS'chlorhexidine gluconate'
p575
aS'chlormerodrin hg 197'
p576
aS'chlorofair'
p577
aS'chloromycetin'
p578
aS'chloromycetin hydrocortisone'
p579
aS'chloromycetin palmitate'
p580
aS'chloromyxin'
p581
aS'chloroptic'
p582
aS'chloroptic s.o.p.'
p583
aS'chloroptic-p s.o.p.'
p584
aS'chloroquine phosphate'
p585
aS'chlorothiazide'
p586
aS'chlorothiazide and reserpine'
p587
aS'chlorothiazide w/ reserpine'
p588
aS'chlorothiazide-reserpine'
p589
aS'chlorotrianisene'
p590
aS'chlorpheniramine maleate'
p591
aS'chlorpromazine hydrochloride'
p592
aS'chlorpromazine hydrochloride intensol'
p593
aS'chlorpropamide'
p594
aS'chlorthalidone'
p595
aS'chlorzoxazone'
p596
aS'cholebrine'
p597
aS'choledyl'
p598
aS'cholestyramine'
p599
aS'cholestyramine light'
p600
aS'cholografin meglumine'
p601
aS'cholografin sodium'
p602
aS'cholovue'
p603
aS'choloxin'
p604
aS'cholybar'
p605
aS'chorionic gonadotropin'
p606
aS'chromalbin'
p607
aS'chromic chloride'
p608
aS'chromitope sodium'
p609
aS'chronulac'
p610
aS'chymex'
p611
aS'chymodiactin'
p612
aS'cibacalcin'
p613
aS'ciclopirox'
p614
aS'cilostazol'
p615
aS'cimetidine'
p616
aS'cimetidine hydrochloride'
p617
aS'cimetidine hydrochloride in sodium chloride 0.9% in plastic container'
p618
aS'cin-quin'
p619
aS'cinnasil'
p620
aS'cinobac'
p621
aS'cinoxacin'
p622
aS'cintichem technetium 99m hedspa'
p623
aS'cipro'
p624
aS'cipro in sodium chloride 0.9% in plastic container'
p625
aS'cipro xr'
p626
aS'ciprofloxacin'
p627
aS'ciprofloxacin extended release'
p628
aS'ciprofloxacin hydrochloride'
p629
aS'ciprofloxacin in dextrose 5%'
p630
aS'ciprofloxacin in dextrose 5% in plastic container'
p631
aS'circanol'
p632
aS'cisplatin'
p633
aS'citalopram hydrobromide'
p634
aS'citanest'
p635
aS'citanest forte'
p636
aS'citanest plain'
p637
aS'citanest plain dental'
p638
aS'claforan in sodium chloride 0.9% in plastic container'
p639
aS'clarithromycin'
p640
aS'claritin hives relief'
p641
aS'clemastine fumarate'
p642
aS'clenz-lyte'
p643
aS'cleocin'
p644
aS'cleocin phosphate'
p645
aS'cleocin t'
p646
aS'clindamycin hydrochloride'
p647
aS'clindamycin phosphate'
p648
aS'clindamycin phosphate in dextrose 5%'
p649
aS'clindamycin phosphate in dextrose 5% in plastic container'
p650
aS'clinoril'
p651
aS'clistin'
p652
aS'clobetasol propionate'
p653
aS'clobetasol propionate (emollient)'
p654
aS'clofibrate'
p655
aS'clomipramine hydrochloride'
p656
aS'clonazepam'
p657
aS'clonidine'
p658
aS'clonidine hydrochloride'
p659
aS'clonidine hydrochloride and chlorthalidone'
p660
aS'clopra'
p661
aS'clorazepate dipotassium'
p662
aS'cloxacillin sodium'
p663
aS'cloxapen'
p664
aS'clozapine'
p665
aS'co-gesic'
p666
aS'co-lav'
p667
aS'coactin'
p668
aS'cobavite'
p669
aS'codamine'
p670
aS'codeine sulfate'
p671
aS'codeine, aspirin, apap formula no. 2'
p672
aS'codeine, aspirin, apap formula no. 3'
p673
aS'codeine, aspirin, apap formula no. 4'
p674
aS'codeprex'
p675
aS'codimal-l.a. 12'
p676
aS'codoxy'
p677
aS'codrix'
p678
aS'cogentin'
p679
aS'cognex'
p680
aS'colbenemid'
p681
aS'cold capsule iv'
p682
aS'cold capsule v'
p683
aS'colonaid'
p684
aS'colovage'
p685
aS'coly-mycin s'
p686
aS'colyte'
p687
aS'colyte-flavored'
p688
aS'combipres'
p689
aS'combunox'
p690
aS'compazine'
p691
aS'compound 65'
p692
aS'concentraid'
p693
aS'conray 325'
p694
aS'conray 400'
p695
aS'copaxone'
p696
aS'copegus'
p697
aS'cor-oticin'
p698
aS'cordarone'
p699
aS'cordran'
p700
aS'cordran-n'
p701
aS'corgard'
p702
aS'corphed'
p703
aS'cort-dome'
p704
aS'cortalone'
p705
aS'cortan'
p706
aS'cortef'
p707
aS'cortef acetate'
p708
aS'corticotropin'
p709
aS'cortisone acetate'
p710
aS'cortisporin'
p711
aS'cortone'
p712
aS'cortril'
p713
aS'cortrophin-zinc'
p714
aS'cosyntropin'
p715
aS'cotazym'
p716
aS'cotrim'
p717
aS'cotrim d.s.'
p718
aS'coumadin'
p719
aS'crescormon'
p720
aS'crixivan'
p721
aS'cromolyn sodium'
p722
aS'cromoptic'
p723
aS'crystodigin'
p724
aS'cu-7'
p725
aS'cubicin'
p726
aS'cupric sulfate'
p727
aS'cuprimine'
p728
aS'curretab'
p729
aS'cutivate'
p730
aS'cyanocobalamin'
p731
aS'cyanocobalamin co 57 schilling test kit'
p732
aS'cyanokit'
p733
aS'cyclacillin'
p734
aS'cyclaine'
p735
aS'cyclapen-w'
p736
aS'cyclobenzaprine hydrochloride'
p737
aS'cyclocort'
p738
aS'cyclopar'
p739
aS'cyclopentolate hydrochloride'
p740
aS'cyclophosphamide'
p741
aS'cyclosporine'
p742
aS'cycrin'
p743
aS'cyklokapron'
p744
aS'cylert'
p745
aS'cyproheptadine hydrochloride'
p746
aS'cysteine hydrochloride'
p747
aS'cytadren'
p748
aS'cytarabine'
p749
aS'cytovene'
p750
aS'cytoxan'
p751
aS'cytoxan (lyophilized)'
p752
aS'dacarbazine'
p753
aS'dalgan'
p754
aS'dalmane'
p755
aS'danazol'
p756
aS'danocrine'
p757
aS'dapiprazole hydrochloride'
p758
aS'daranide'
p759
aS'darbid'
p760
aS'daricon'
p761
aS'darvocet'
p762
aS'darvocet a500'
p763
aS'darvocet-n 100'
p764
aS'darvocet-n 50'
p765
aS'darvon'
p766
aS'darvon compound'
p767
aS'darvon compound-65'
p768
aS'darvon w/ asa'
p769
aS'darvon-n'
p770
aS'darvon-n w/ asa'
p771
aS'daunorubicin hydrochloride'
p772
aS'daypro alta'
p773
aS'ddavp'
p774
aS'deapril-st'
p775
aS'deca-durabolin'
p776
aS'decabid'
p777
aS'decaderm'
p778
aS'decadron'
p779
aS'decadron w/ xylocaine'
p780
aS'decadron-la'
p781
aS'decapryn'
p782
aS'decaspray'
p783
aS'declomycin'
p784
aS'deferoxamine mesylate'
p785
aS'del-vi-a'
p786
aS'delalutin'
p787
aS'delatestryl'
p788
aS'delaxin'
p789
aS'delcobese'
p790
aS'delfen'
p791
aS'delta-cortef'
p792
aS'delta-dome'
p793
aS'deltalin'
p794
aS'deltasone'
p795
aS'demadex'
p796
aS'demerol'
p797
aS'demi-regroton'
p798
aS'demulen 1/35-21'
p799
aS'demulen 1/35-28'
p800
aS'demulen 1/50-21'
p801
aS'demulen 1/50-28'
p802
aS'dentipatch'
p803
aS'depakote cp'
p804
aS'depinar'
p805
aS'depo-estradiol'
p806
aS'depo-provera'
p807
aS'depo-testadiol'
p808
aS'depo-testosterone'
p809
aS'depodur'
p810
aS'dermacort'
p811
aS'desipramine hydrochloride'
p812
aS'desmopressin acetate'
p813
aS'desmopressin acetate preservative free'
p814
aS'desogen'
p815
aS'desogestrel and ethinyl estradiol'
p816
aS'desonide'
p817
aS'desoximetasone'
p818
aS'desoxyn'
p819
aS'desvenlafaxine'
p820
aS'desyrel'
p821
aS'dexacen-4'
p822
aS'dexacidin'
p823
aS'dexacort'
p824
aS'dexair'
p825
aS'dexamethasone'
p826
aS'dexamethasone acetate'
p827
aS'dexamethasone sodium phosphate'
p828
aS'dexampex'
p829
aS'dexasporin'
p830
aS'dexchlorpheniramine maleate'
p831
aS'dexedrine'
p832
aS'dexone 0.5'
p833
aS'dexone 0.75'
p834
aS'dexone 1.5'
p835
aS'dexone 4'
p836
aS'dextroamp saccharate, amp aspartate, dextroamp sulfate and amp sulfate'
p837
aS'dextroamphetamine sulfate'
p838
aS'dextrose 10% and sodium chloride 0.2% in plastic container'
p839
aS'dextrose 10% and sodium chloride 0.45% in plastic container'
p840
aS'dextrose 10% and sodium chloride 0.9% in plastic container'
p841
aS'dextrose 10% in plastic container'
p842
aS'dextrose 2.5% and sodium chloride 0.45% in plastic container'
p843
aS'dextrose 2.5% and sodium chloride 0.9% in plastic container'
p844
aS'dextrose 2.5% in plastic container'
p845
aS'dextrose 3.3% and sodium chloride 0.3% in plastic container'
p846
aS'dextrose 38.5% in plastic container'
p847
aS"dextrose 4% in modified lactated ringer's in plastic container"
p848
aS'dextrose 5% and sodium chloride 0.11% in plastic container'
p849
aS'dextrose 5% and sodium chloride 0.2% in plastic container'
p850
aS'dextrose 5% and sodium chloride 0.225% in plastic container'
p851
aS'dextrose 5% and sodium chloride 0.3% in plastic container'
p852
aS'dextrose 5% and sodium chloride 0.33% in plastic container'
p853
aS'dextrose 5% and sodium chloride 0.45% in plastic container'
p854
aS'dextrose 5% and sodium chloride 0.9% in plastic container'
p855
aS"dextrose 5% in lactated ringer's in plastic container"
p856
aS'dextrose 5% in plastic container'
p857
aS"dextrose 5% in ringer's in plastic container"
p858
aS'dextrose 5%, sodium chloride 0.2% and potassium chloride 0.075%'
p859
aS'dextrose 5%, sodium chloride 0.2% and potassium chloride 0.15% in plastic container'
p860
aS'dextrose 5%, sodium chloride 0.2% and potassium chloride 0.224% in plastic container'
p861
aS'dextrose 5%, sodium chloride 0.2% and potassium chloride 0.3% in plastic container'
p862
aS'dextrose 5%, sodium chloride 0.33% and potassium chloride 0.075% in plastic container'
p863
aS'dextrose 5%, sodium chloride 0.33% and potassium chloride 0.15% in plastic container'
p864
aS'dextrose 5%, sodium chloride 0.33% and potassium chloride 0.22% in plastic container'
p865
aS'dextrose 5%, sodium chloride 0.33% and potassium chloride 0.30% in plastic container'
p866
aS'dextrose 5%, sodium chloride 0.45% and potassium chloride 0.075%'
p867
aS'dextrose 5%, sodium chloride 0.45% and potassium chloride 0.15% in plastic container'
p868
aS'dextrose 5%, sodium chloride 0.45% and potassium chloride 0.22% in plastic container'
p869
aS'dextrose 5%, sodium chloride 0.45% and potassium chloride 0.3% in plastic container'
p870
aS'dextrose 5%, sodium chloride 0.45% and potassium chloride 15meq in plastic container'
p871
aS'dextrose 5%, sodium chloride 0.45% and potassium chloride 20meq (k) in plastic container'
p872
aS'dextrose 5%, sodium chloride 0.45% and potassium chloride 5meq in plastic container'
p873
aS'dextrose 60%'
p874
aS'dextrose 60% in plastic container'
p875
aS'dextrose 7.7% in plastic container'
p876
aS'dextrostat'
p877
aS'dhc plus'
p878
aS'di-atro'
p879
aS'di-metrex'
p880
aS'dial'
p881
aS'dialyte lm/ dextrose 1.5% in plastic container'
p882
aS'dialyte lm/ dextrose 2.5% in plastic container'
p883
aS'dialyte lm/ dextrose 4.25% in plastic container'
p884
aS'dialyte w/ dextrose 1.5% in plastic container'
p885
aS'dialyte w/ dextrose 4.25% in plastic container'
p886
aS'diamox'
p887
aS'diapid'
p888
aS'diasone sodium'
p889
aS'diastat'
p890
aS'diatrizoate meglumine'
p891
aS'diatrizoate-60'
p892
aS'diazepam'
p893
aS'diazoxide'
p894
aS'dibenil'
p895
aS'diclofenac potassium'
p896
aS'diclofenac sodium'
p897
aS'dicloxacillin sodium'
p898
aS'dicopac kit'
p899
aS'dicumarol'
p900
aS'dicurin procaine'
p901
aS'dicyclomine hydrochloride'
p902
aS'didrex'
p903
aS'didronel'
p904
aS'dienestrol'
p905
aS'diethylpropion hydrochloride'
p906
aS'diethylstilbestrol'
p907
aS'differin'
p908
aS'diflorasone diacetate'
p909
aS'diflunisal'
p910
aS'digoxin'
p911
aS'digoxin pediatric'
p912
aS'dilacor xr'
p913
aS'dilantin'
p914
aS'dilantin-30'
p915
aS'dilor'
p916
aS'dilor-400'
p917
aS'diltiazem hydrochloride'
p918
aS'dimenhydrinate'
p919
aS'dimetane'
p920
aS'dimetane-dx'
p921
aS'dimetane-ten'
p922
aS'dionosil aqueous'
p923
aS'dionosil oily'
p924
aS'diovan'
p925
aS'diphen'
p926
aS'diphenhydramine hydrochloride'
p927
aS'diphenhydramine hydrochloride preservative free'
p928
aS'diphenoxylate hydrochloride and atropine sulfate'
p929
aS'diphenoxylate hydrochloride w/ atropine sulfate'
p930
aS'diphenylan sodium'
p931
aS'dipivefrin hydrochloride'
p932
aS'diprivan'
p933
aS'diprolene'
p934
aS'diprosone'
p935
aS'dipyridamole'
p936
aS'discase'
p937
aS'disipal'
p938
aS'disobrom'
p939
aS'disomer'
p940
aS'disophrol'
p941
aS'disopyramide phosphate'
p942
aS'dispermox'
p943
aS'disulfiram'
p944
aS'ditate-ds'
p945
aS'ditropan'
p946
aS'diucardin'
p947
aS'diulo'
p948
aS'diupres-250'
p949
aS'diupres-500'
p950
aS'diuril'
p951
aS'diutensen-r'
p952
aS'divalproex sodium'
p953
aS'dizac'
p954
aS'dobutamine hydrochloride'
p955
aS'dobutamine hydrochloride in dextrose 5%'
p956
aS'dobutrex'
p957
aS'doca'
p958
aS'docetaxel'
p959
aS'dolene'
p960
aS'dolene ap-65'
p961
aS'dolobid'
p962
aS'dolophine hydrochloride'
p963
aS'domeboro'
p964
aS'donepezil hydrochloride'
p965
aS'dopamine hydrochloride'
p966
aS'dopamine hydrochloride in dextrose 5%'
p967
aS'dopar'
p968
aS'doral'
p969
aS'doriden'
p970
aS'dormate'
p971
aS'doryx'
p972
aS'dorzolamide hydrochloride'
p973
aS'dorzolamide hydrochloride and timolol maleate'
p974
aS'dostinex'
p975
aS'dovonex'
p976
aS'dow-isoniazid'
p977
aS'doxapram hydrochloride'
p978
aS'doxazosin mesylate'
p979
aS'doxepin hydrochloride'
p980
aS'doxy-lemmon'
p981
aS'doxy-sleep-aid'
p982
aS'doxychel'
p983
aS'doxychel hyclate'
p984
aS'doxycycline'
p985
aS'doxycycline hyclate'
p986
aS'doxylamine succinate'
p987
aS'dralserp'
p988
aS'dralzine'
p989
aS'draximage mdp-10'
p990
aS'dricort'
p991
aS'drixoral'
p992
aS'drixoral plus'
p993
aS'drolban'
p994
aS'droperidol'
p995
aS'duo-medihaler'
p996
aS'duocaine'
p997
aS'duphalac'
p998
aS'durabolin'
p999
aS'duracillin a.s.'
p1000
aS'duradyne dhc'
p1001
aS'duranest'
p1002
aS'duraphyl'
p1003
aS'duraquin'
p1004
aS'duricef'
p1005
aS'duvoid'
p1006
aS'dv'
p1007
aS'dyazide'
p1008
aS'dycill'
p1009
aS'dyclone'
p1010
aS'dymelor'
p1011
aS'dynabac'
p1012
aS'dynacin'
p1013
aS'dynacirc'
p1014
aS'dynacirc cr'
p1015
aS'dynapen'
p1016
aS'e-base'
p1017
aS'e-glades'
p1018
aS'e-mycin'
p1019
aS'e-mycin e'
p1020
aS'e-solve 2'
p1021
aS'e-z prep'
p1022
aS'e-z prep 220'
p1023
aS'e-z scrub'
p1024
aS'e-z-em prep lyte'
p1025
aS'e.e.s.'
p1026
aS'e.e.s. 400'
p1027
aS'econochlor'
p1028
aS'econopred'
p1029
aS'edecrin'
p1030
aS'edex'
p1031
aS'edrophonium chloride'
p1032
aS'edrophonium chloride preservative free'
p1033
aS'effexor'
p1034
aS'effexor xr'
p1035
aS'efidac 24 chlorpheniramine maleate'
p1036
aS'efidac 24 pseudoephedrine hydrochloride/brompheniramine maleate'
p1037
aS'egrifta'
p1038
aS'elase-chloromycetin'
p1039
aS'elavil'
p1040
aS'eldecort'
p1041
aS'elixicon'
p1042
aS'elixomin'
p1043
aS'elixophyllin'
p1044
aS'elixophyllin sr'
p1045
aS'eloxatin'
p1046
aS'embolex'
p1047
aS'emend'
p1048
aS'emete-con'
p1049
aS'emgel'
p1050
aS'emla'
p1051
aS'empracet w/ codeine phosphate #3'
p1052
aS'empracet w/ codeine phosphate #4'
p1053
aS'enalapril maleate'
p1054
aS'enalapril maleate and hydrochlorothiazide'
p1055
aS'enalaprilat'
p1056
aS'endep'
p1057
aS'enduron'
p1058
aS'enduronyl'
p1059
aS'enduronyl forte'
p1060
aS'enflurane'
p1061
aS'enlon-plus'
p1062
aS'enovid'
p1063
aS'enovid-e'
p1064
aS'enovid-e 21'
p1065
aS'enpresse-21'
p1066
aS'epi e z pen jr'
p1067
aS'epicort'
p1068
aS'epinephrine'
p1069
aS'epipen e z pen'
p1070
aS'epirubicin hydrochloride'
p1071
aS'equagesic'
p1072
aS'equanil'
p1073
aS'equipin'
p1074
aS'ergamisol'
p1075
aS'ergoloid mesylates'
p1076
aS'ergostat'
p1077
aS'eryc'
p1078
aS'eryc 125'
p1079
aS'eryc sprinkles'
p1080
aS'erycette'
p1081
aS'eryderm'
p1082
aS'erymax'
p1083
aS'erypar'
p1084
aS'eryped'
p1085
aS'erythrocin'
p1086
aS'erythrocin stearate'
p1087
aS'erythromycin'
p1088
aS'erythromycin estolate'
p1089
aS'erythromycin ethylsuccinate'
p1090
aS'erythromycin lactobionate'
p1091
aS'erythromycin stearate'
p1092
aS'eryzole'
p1093
aS'escitalopram oxalate'
p1094
aS'esclim'
p1095
aS'esgic'
p1096
aS'esgic-plus'
p1097
aS'esidrix'
p1098
aS'esimil'
p1099
aS'eskalith'
p1100
aS'eskalith cr'
p1101
aS'esterified estrogens'
p1102
aS'estinyl'
p1103
aS'estrace'
p1104
aS'estradiol'
p1105
aS'estradiol cypionate'
p1106
aS'estradiol valerate'
p1107
aS'estradurin'
p1108
aS'estraguard'
p1109
aS'estratab'
p1110
aS'estrogel'
p1111
aS'estrogenic substance'
p1112
aS'estrone'
p1113
aS'estropipate'
p1114
aS'estrostep 21'
p1115
aS'estrovis'
p1116
aS'eszopiclone'
p1117
aS'ethamide'
p1118
aS'ethchlorvynol'
p1119
aS'ethmozine'
p1120
aS'ethril 250'
p1121
aS'ethril 500'
p1122
aS'ethyol'
p1123
aS'etodolac'
p1124
aS'etopophos preservative free'
p1125
aS'etoposide'
p1126
aS'etrafon 2-10'
p1127
aS'etrafon 2-25'
p1128
aS'etrafon-a'
p1129
aS'etrafon-forte'
p1130
aS'eulexin'
p1131
aS'euthroid-0.5'
p1132
aS'euthroid-1'
p1133
aS'euthroid-2'
p1134
aS'euthroid-3'
p1135
aS'eutonyl'
p1136
aS'eutron'
p1137
aS'evalose'
p1138
aS'evans blue'
p1139
aS'evex'
p1140
aS'exelon'
p1141
aS'exidine'
p1142
aS'exna'
p1143
aS'exosurf neonatal'
p1144
aS'exparel'
p1145
aS'exsel'
p1146
aS'extended phenytoin sodium'
p1147
aS'extra-strength aim'
p1148
aS'exubera'
p1149
aS'factrel'
p1150
aS'famotidine'
p1151
aS'famotidine preservative free'
p1152
aS'famotidine preservative free (pharmacy bulk)'
p1153
aS'famotidine preservative free in plastic container'
p1154
aS'fansidar'
p1155
aS'fastin'
p1156
aS'fazaclo odt'
p1157
aS'felodipine'
p1158
aS'femcet'
p1159
aS'femhrt'
p1160
aS'feminone'
p1161
aS'femogen'
p1162
aS'fempatch'
p1163
aS'femstat'
p1164
aS'fenofibrate'
p1165
aS'fenoldopam mesylate'
p1166
aS'fenoprofen calcium'
p1167
aS'fentanyl'
p1168
aS'fentanyl citrate'
p1169
aS'fentanyl citrate and droperidol'
p1170
aS'fentanyl citrate preservative free'
p1171
aS'fentanyl-100'
p1172
aS'fentanyl-25'
p1173
aS'fentanyl-50'
p1174
aS'fentanyl-75'
p1175
aS'fentora'
p1176
aS'feridex i.v.'
p1177
aS'ferndex'
p1178
aS'fernisolone-p'
p1179
aS'fernisone'
p1180
aS'ferriseltz'
p1181
aS'ferrous citrate fe 59'
p1182
aS'fertinex'
p1183
aS'fexofenadine hydrochloride'
p1184
aS'finasteride'
p1185
aS'fioricet'
p1186
aS'fiorinal'
p1187
aS'flagyl i.v.'
p1188
aS'flaxedil'
p1189
aS'flecainide acetate'
p1190
aS'flexeril'
p1191
aS'flexicort'
p1192
aS'flo-pred'
p1193
aS'florinef'
p1194
aS'florone'
p1195
aS'florone e'
p1196
aS'floropryl'
p1197
aS'flovent'
p1198
aS'floxin'
p1199
aS'floxin in dextrose 5%'
p1200
aS'floxin in dextrose 5% in plastic container'
p1201
aS'fluconazole'
p1202
aS'fluconazole in dextrose 5% in plastic container'
p1203
aS'fluconazole in sodium chloride 0.9% in plastic container'
p1204
aS'fludara'
p1205
aS'fludeoxyglucose f 18'
p1206
aS'fludeoxyglucose f18'
p1207
aS'fluidil'
p1208
aS'flumadine'
p1209
aS'flumazenil'
p1210
aS'fluocet'
p1211
aS'fluocinolone acetonide'
p1212
aS'fluocinonide'
p1213
aS'fluocinonide emulsified base'
p1214
aS'fluonid'
p1215
aS'fluor-op'
p1216
aS'fluorine f-18'
p1217
aS'fluoroplex'
p1218
aS'fluorouracil'
p1219
aS'fluothane'
p1220
aS'fluotrex'
p1221
aS'fluoxetine'
p1222
aS'fluoxetine hydrochloride'
p1223
aS'fluoxymesterone'
p1224
aS'fluphenazine decanoate'
p1225
aS'fluphenazine hydrochloride'
p1226
aS'flurandrenolide'
p1227
aS'flurazepam hydrochloride'
p1228
aS'flurbiprofen'
p1229
aS'flutamide'
p1230
aS'flutex'
p1231
aS'fluticasone propionate'
p1232
aS'fluvoxamine maleate'
p1233
aS'fluxid'
p1234
aS'fml-s'
p1235
aS'foamicon'
p1236
aS'folex'
p1237
aS'folex pfs'
p1238
aS'folic acid'
p1239
aS'folicet'
p1240
aS'follistim'
p1241
aS'follistim aq'
p1242
aS'follutein'
p1243
aS'folvite'
p1244
aS'folvron'
p1245
aS'fomepizole'
p1246
aS'foradil certihaler'
p1247
aS'forbaxin'
p1248
aS'fortaz in plastic container'
p1249
aS'forteo'
p1250
aS'fortovase'
p1251
aS'fosamax'
p1252
aS'fosinopril sodium'
p1253
aS'fosinopril sodium and hydrochlorothiazide'
p1254
aS'fosphenytoin sodium'
p1255
aS'fosrenol'
p1256
aS'fovane'
p1257
aS'fragmin'
p1258
aS'freamine 8.5%'
p1259
aS'freamine ii 8.5%'
p1260
aS'fudr'
p1261
aS'fulvicin p/g'
p1262
aS'fulvicin p/g 165'
p1263
aS'fulvicin p/g 330'
p1264
aS'fulvicin-u/f'
p1265
aS'funduscein-25'
p1266
aS'fungizone'
p1267
aS'furacin'
p1268
aS'furadantin'
p1269
aS'furalan'
p1270
aS'furosemide'
p1271
aS'furoxone'
p1272
aS'fusilev'
p1273
aS'gabapentin'
p1274
aS'gabitril'
p1275
aS'galantamine hydrobromide'
p1276
aS'gallium citrate ga 67'
p1277
aS'gamene'
p1278
aS'gamophen'
p1279
aS'ganciclovir'
p1280
aS'ganciclovir sodium'
p1281
aS'ganite'
p1282
aS'gantanol'
p1283
aS'gantanol-ds'
p1284
aS'gantrisin'
p1285
aS'gantrisin pediatric'
p1286
aS'garamycin'
p1287
aS'gastrocrom'
p1288
aS'gastromark'
p1289
aS'gastrovist'
p1290
aS'gatifloxacin'
p1291
aS'gemfibrozil'
p1292
aS'gemonil'
p1293
aS'genapax'
p1294
aS'gencept 10/11-21'
p1295
aS'gencept 10/11-28'
p1296
aS'generlac'
p1297
aS'genesa'
p1298
aS'gentacidin'
p1299
aS'gentafair'
p1300
aS'gentamicin'
p1301
aS'gentamicin sulfate'
p1302
aS'gentamicin sulfate in sodium chloride 0.9% in plastic container'
p1303
aS'geocillin'
p1304
aS'geopen'
p1305
aS'geref'
p1306
aS'gerimal'
p1307
aS'germa-medica'
p1308
aS'gleevec'
p1309
aS'glimepiride'
p1310
aS'glipizide'
p1311
aS'glucagon'
p1312
aS'glucamide'
p1313
aS'glucophage'
p1314
aS'glucoscan'
p1315
aS'glucotrol'
p1316
aS'glutethimide'
p1317
aS'glyburide'
p1318
aS'glyburide (micronized)'
p1319
aS'glyburide and metformin hydrochloride'
p1320
aS'glycine 1.5% in plastic container'
p1321
aS'glycoprep'
p1322
aS'glycopyrrolate'
p1323
aS'glycort'
p1324
aS'glynase'
p1325
aS'go-evac'
p1326
aS'gonal-f'
p1327
aS'granisetron hydrochloride'
p1328
aS'granisetron hydrochloride preservative free'
p1329
aS'granisol'
p1330
aS'grifulvin v'
p1331
aS'grisactin'
p1332
aS'grisactin ultra'
p1333
aS'guanabenz acetate'
p1334
aS'guanethidine monosulfate'
p1335
aS'guanfacine hydrochloride'
p1336
aS'gvs'
p1337
aS'gynazole-1'
p1338
aS'gyne-sulf'
p1339
aS'gynix'
p1340
aS'gynodiol'
p1341
aS'gynorest'
p1342
aS'h-cort'
p1343
aS'h.p. acthar gel'
p1344
aS'h.r.-50'
p1345
aS'halcion'
p1346
aS'haldol'
p1347
aS'haldol solutab'
p1348
aS'haldrone'
p1349
aS'halfan'
p1350
aS'halflytely'
p1351
aS'halobetasol propionate'
p1352
aS'halog'
p1353
aS'halog-e'
p1354
aS'haloperidol'
p1355
aS'haloperidol decanoate'
p1356
aS'haloperidol intensol'
p1357
aS'haloperidol lactate'
p1358
aS'halotestin'
p1359
aS'halotex'
p1360
aS'halothane'
p1361
aS'harmonyl'
p1362
aS'hc #1'
p1363
aS'hc #4'
p1364
aS'hc (hydrocortisone)'
p1365
aS'head & shoulders conditioner'
p1366
aS'heavy solution nupercaine'
p1367
aS'hedulin'
p1368
aS'helicosol'
p1369
aS'helidac'
p1370
aS'hemsol-hc'
p1371
aS'heparin lock flush'
p1372
aS'heparin sodium'
p1373
aS'heparin sodium 1,000 units in dextrose 5% in plastic container'
p1374
aS'heparin sodium 1,000 units in sodium chloride 0.9% in plastic container'
p1375
aS'heparin sodium 10,000 units and dextrose 5% in plastic container'
p1376
aS'heparin sodium 10,000 units in dextrose 5%'
p1377
aS'heparin sodium 10,000 units in sodium chloride 0.45%'
p1378
aS'heparin sodium 10,000 units in sodium chloride 0.9%'
p1379
aS'heparin sodium 12,500 units in dextrose 5%'
p1380
aS'heparin sodium 12,500 units in sodium chloride 0.45% in plastic container'
p1381
aS'heparin sodium 12,500 units in sodium chloride 0.9%'
p1382
aS'heparin sodium 2,000 units in dextrose 5% in plastic container'
p1383
aS'heparin sodium 2,000 units in sodium chloride 0.9% in plastic container'
p1384
aS'heparin sodium 20,000 units and dextrose 5% in plastic container'
p1385
aS'heparin sodium 25,000 units and dextrose 5% in plastic container'
p1386
aS'heparin sodium 25,000 units in dextrose 5%'
p1387
aS'heparin sodium 25,000 units in dextrose 5% in plastic container'
p1388
aS'heparin sodium 25,000 units in sodium chloride 0.45% in plastic container'
p1389
aS'heparin sodium 25,000 units in sodium chloride 0.9%'
p1390
aS'heparin sodium 25,000 units in sodium chloride 0.9% in plastic container'
p1391
aS'heparin sodium 5,000 units and sodium chloride 0.9% in plastic container'
p1392
aS'heparin sodium 5,000 units in dextrose 5% in plastic container'
p1393
aS'heparin sodium 5,000 units in sodium chloride 0.45%'
p1394
aS'heparin sodium 5,000 units in sodium chloride 0.9%'
p1395
aS'heparin sodium 5,000 units in sodium chloride 0.9% in plastic container'
p1396
aS'heparin sodium preservative free'
p1397
aS'hepatasol 8%'
p1398
aS'heptalac'
p1399
aS'hetrazan'
p1400
aS'hexa-betalin'
p1401
aS'hexa-germ'
p1402
aS'hexadrol'
p1403
aS'hexascrub'
p1404
aS'hi-cor'
p1405
aS'hibiclens'
p1406
aS'hicon'
p1407
aS'hippuran i 131'
p1408
aS'hipputope'
p1409
aS'hiserpia'
p1410
aS'hispril'
p1411
aS'histafed'
p1412
aS'histalog'
p1413
aS'histamine phosphate'
p1414
aS'hivid'
p1415
aS'hiwolfia'
p1416
aS'hms'
p1417
aS'homapin-10'
p1418
aS'homapin-5'
p1419
aS'homatroprine methylbromide and hydrocodone bitartrate'
p1420
aS'humalog mix 50/50 pen'
p1421
aS'humalog mix 75/25 pen'
p1422
aS'humalog pen'
p1423
aS'humatin'
p1424
aS'humatrope'
p1425
aS'humegon'
p1426
aS'humorsol'
p1427
aS'humulin 50/50'
p1428
aS'humulin br'
p1429
aS'humulin l'
p1430
aS'humulin u'
p1431
aS'hy-phen'
p1432
aS'hycodan'
p1433
aS'hydase'
p1434
aS'hydeltra-tba'
p1435
aS'hydeltrasol'
p1436
aS'hydergine'
p1437
aS'hydergine lc'
p1438
aS'hydra-zide'
p1439
aS'hydralazine and hydrochlorthiazide'
p1440
aS'hydralazine hydrochloride'
p1441
aS'hydralazine hydrochloride and hydrochlorothiazide'
p1442
aS'hydralazine hydrochloride w/ hydrochlorothiazide 100/50'
p1443
aS'hydralazine hydrochloride w/ hydrochlorothiazide 25/25'
p1444
aS'hydralazine hydrochloride w/ hydrochlorothiazide 50/50'
p1445
aS'hydralazine hydrochloride, hydrochlorothiazide and reserpine'
p1446
aS'hydralazine hydrochloride-hydrochlorothiazide-reserpine'
p1447
aS'hydralazine, hydrochlorothiazide w/ reserpine'
p1448
aS'hydramine'
p1449
aS'hydrap-es'
p1450
aS'hydro-d'
p1451
aS'hydro-reserp'
p1452
aS'hydro-ride'
p1453
aS'hydro-rx'
p1454
aS'hydrochlorothiazide'
p1455
aS'hydrochlorothiazide intensol'
p1456
aS'hydrochlorothiazide w/ hydralazine'
p1457
aS'hydrochlorothiazide w/ reserpine'
p1458
aS'hydrochlorothiazide w/ reserpine and hydralazine'
p1459
aS'hydrocodone bitartrate and acetaminophen'
p1460
aS'hydrocodone bitartrate and homatropine methylbromide'
p1461
aS'hydrocortisone'
p1462
aS'hydrocortisone acetate'
p1463
aS'hydrocortisone acetate 1% and pramoxine hydrochloride 1%'
p1464
aS'hydrocortisone and acetic acid'
p1465
aS'hydrocortisone sodium succinate'
p1466
aS'hydrocortisone valerate'
p1467
aS'hydrocortone'
p1468
aS'hydrodiuril'
p1469
aS'hydroflumethiazide'
p1470
aS'hydroflumethiazide and reserpine'
p1471
aS'hydrogenated ergot alkaloids'
p1472
aS'hydromorphone hydrochloride'
p1473
aS'hydromox'
p1474
aS'hydromox r'
p1475
aS'hydropane'
p1476
aS'hydropres 25'
p1477
aS'hydropres 50'
p1478
aS'hydroserpine plus (r-h-h)'
p1479
aS'hydroxocobalamin'
p1480
aS'hydroxomin'
p1481
aS'hydroxychloroquine sulfate'
p1482
aS'hydroxyprogesterone caproate'
p1483
aS'hydroxystilbamidine isethionate'
p1484
aS'hydroxyurea'
p1485
aS'hydroxyzine'
p1486
aS'hydroxyzine hydrochloride'
p1487
aS'hydroxyzine pamoate'
p1488
aS'hygroton'
p1489
aS'hylorel'
p1490
aS'hypaque'
p1491
aS'hypaque sodium 20%'
p1492
aS'hypaque-76'
p1493
aS'hypaque-cysto'
p1494
aS'hypaque-m,75%'
p1495
aS'hypaque-m,90%'
p1496
aS'hyperstat'
p1497
aS'hyprotigen 5%'
p1498
aS'hyserpin'
p1499
aS'hytone'
p1500
aS'hytrin'
p1501
aS'hyzyd'
p1502
aS'ibrin'
p1503
aS'ibu'
p1504
aS'ibu-tab'
p1505
aS'ibuprin'
p1506
aS'ibuprofen'
p1507
aS'ibuprohm'
p1508
aS'ic-green'
p1509
aS'idamycin'
p1510
aS'idarubicin hydrochloride'
p1511
aS'ifex/mesnex kit'
p1512
aS'iletin i'
p1513
aS'iletin ii'
p1514
aS'ilosone'
p1515
aS'ilosone sulfa'
p1516
aS'ilotycin'
p1517
aS'ilotycin gluceptate'
p1518
aS'imagent'
p1519
aS'imdur'
p1520
aS'imipramine hydrochloride'
p1521
aS'imitrex'
p1522
aS'imodium'
p1523
aS'imuran'
p1524
aS'incivek'
p1525
aS'indapamide'
p1526
aS'inderal'
p1527
aS'inderide la 120/50'
p1528
aS'inderide la 160/50'
p1529
aS'inderide la 80/50'
p1530
aS'inderide-80/25'
p1531
aS'indo-lemmon'
p1532
aS'indocin'
p1533
aS'indocin sr'
p1534
aS'indomethacin'
p1535
aS'inflamase forte'
p1536
aS'inflamase mild'
p1537
aS'inh'
p1538
aS'injectapap'
p1539
aS'innofem'
p1540
aS'innohep'
p1541
aS'innovar'
p1542
aS'inocor'
p1543
aS'inpersol-lc/lm w/ dextrose 1.5% in plastic container'
p1544
aS'inpersol-lc/lm w/ dextrose 2.5% in plastic container'
p1545
aS'inpersol-lc/lm w/ dextrose 3.5% in plastic container'
p1546
aS'inpersol-lc/lm w/ dextrose 4.25% in plastic container'
p1547
aS'inpersol-zm w/ dextrose 1.5% in plastic container'
p1548
aS'inpersol-zm w/ dextrose 2.5% in plastic container'
p1549
aS'inpersol-zm w/ dextrose 4.25% in plastic container'
p1550
aS'inspra'
p1551
aS'instant microspheres'
p1552
aS'insulatard nph human'
p1553
aS'insulin'
p1554
aS'insulin insulatard nph nordisk'
p1555
aS'insulin nordisk mixtard (pork)'
p1556
aS'intal'
p1557
aS'intropin'
p1558
aS'inulin and sodium chloride'
p1559
aS'invagesic'
p1560
aS'invagesic forte'
p1561
aS'invega'
p1562
aS'inversine'
p1563
aS'iobenguane sulfate i 131'
p1564
aS'iodohippurate sodium i 131'
p1565
aS'iodotope'
p1566
aS'ionamin'
p1567
aS'ionosol t and dextrose 5% in plastic container'
p1568
aS'ionsys'
p1569
aS'iontocaine'
p1570
aS'iopamidol'
p1571
aS'iopamidol-200'
p1572
aS'iopamidol-200 in plastic container'
p1573
aS'iopamidol-250'
p1574
aS'iopamidol-250 in plastic container'
p1575
aS'iopamidol-300'
p1576
aS'iopamidol-300 in plastic container'
p1577
aS'iopamidol-370'
p1578
aS'iopamidol-370 in plastic container'
p1579
aS'iplex'
p1580
aS'ipratropium bromide'
p1581
aS'iquix'
p1582
aS'irbesartan and hydrochlorothiazide'
p1583
aS'iressa'
p1584
aS'irinotecan hydrochloride'
p1585
aS'iron dextran'
p1586
aS'irrigating solution g in plastic container'
p1587
aS'ismelin'
p1588
aS'ismo'
p1589
aS'ismotic'
p1590
aS'isocaine hydrochloride w/ levonordefrin'
p1591
aS'isoclor'
p1592
aS'isoetharine hydrochloride'
p1593
aS'isoetharine hydrochloride s/f'
p1594
aS'isoetharine mesylate'
p1595
aS'isoflurane'
p1596
aS'isolyte e in dextrose 5% in plastic container'
p1597
aS'isolyte e in plastic container'
p1598
aS'isolyte e w/ dextrose 5% in plastic container'
p1599
aS'isolyte h w/ dextrose 5% in plastic container'
p1600
aS'isolyte m w/ dextrose 5% in plastic container'
p1601
aS'isolyte p w/ dextrose 5% in plastic container'
p1602
aS'isolyte r w/ dextrose 5% in plastic container'
p1603
aS'isolyte s in plastic container'
p1604
aS'isolyte s ph 7.4 in plastic container'
p1605
aS'isolyte s w/ dextrose 5% in plastic container'
p1606
aS'isoniazid'
p1607
aS'isopaque 280'
p1608
aS'isopaque 440'
p1609
aS'isoproterenol hydrochloride'
p1610
aS'isoptin'
p1611
aS'isopto cetamide'
p1612
aS'isopto cetapred'
p1613
aS'isordil'
p1614
aS'isosorbide dinitrate'
p1615
aS'isosorbide mononitrate'
p1616
aS'isovue-128'
p1617
aS'isovue-200'
p1618
aS'isuprel'
p1619
aS'iv persantine'
p1620
aS'ivadantin'
p1621
aS'jadelle'
p1622
aS'janimine'
p1623
aS'jenloga'
p1624
aS'juvisync'
p1625
aS'k+10'
p1626
aS'k+8'
p1627
aS'k-lease'
p1628
aS'kafocin'
p1629
aS'kainair'
p1630
aS'kanamycin'
p1631
aS'kanamycin sulfate'
p1632
aS'kantrex'
p1633
aS'kaon cl'
p1634
aS'kaon cl-10'
p1635
aS'kappadione'
p1636
aS'keflet'
p1637
aS'keflex'
p1638
aS'keflin'
p1639
aS'keflin in plastic container'
p1640
aS'keftab'
p1641
aS'kefurox'
p1642
aS'kefurox in plastic container'
p1643
aS'kefzol'
p1644
aS'kemadrin'
p1645
aS'kemstro'
p1646
aS'kenacort'
p1647
aS'kenalog'
p1648
aS'kenalog in orabase'
p1649
aS'kenalog-h'
p1650
aS'kerledex'
p1651
aS'kerlone'
p1652
aS'kesso-gesic'
p1653
aS'ketoconazole'
p1654
aS'ketoprofen'
p1655
aS'ketorolac tromethamine'
p1656
aS'ketotifen fumarate'
p1657
aS'kinlytic'
p1658
aS'klebcil'
p1659
aS'klonopin'
p1660
aS'klonopin rapidly disintegrating'
p1661
aS'kloromin'
p1662
aS'klotrix'
p1663
aS'koglucoid'
p1664
aS'konakion'
p1665
aS'korostatin'
p1666
aS'kwell'
p1667
aS'kytril'
p1668
aS'labetalol hydrochloride'
p1669
aS'labid'
p1670
aS"lactated ringer's in plastic container"
p1671
aS'lactulose'
p1672
aS'lamictal'
p1673
aS'lamictal cd'
p1674
aS'lamisil'
p1675
aS'lamotrigine'
p1676
aS'lamprene'
p1677
aS'lanabiotic'
p1678
aS'laniazid'
p1679
aS'lanophyllin'
p1680
aS'lanorinal'
p1681
aS'lanoxicaps'
p1682
aS'lanoxin'
p1683
aS'lansoprazole'
p1684
aS'lantrisul'
p1685
aS'largon'
p1686
aS'lariam'
p1687
aS'larodopa'
p1688
aS'larotid'
p1689
aS'laryngotracheal anesthesia kit'
p1690
aS'lasix'
p1691
aS'latanoprost'
p1692
aS'laxilose'
p1693
aS'ledercillin vk'
p1694
aS'leflunomide'
p1695
aS'lentard'
p1696
aS'lente'
p1697
aS'lente iletin ii'
p1698
aS'lente iletin ii (pork)'
p1699
aS'lente insulin'
p1700
aS'leritine'
p1701
aS'lessina-21'
p1702
aS'letrozole'
p1703
aS'leucovorin calcium'
p1704
aS'leucovorin calcium preservative free'
p1705
aS'leuprolide acetate'
p1706
aS'leustatin'
p1707
aS'levatol'
p1708
aS'levemir innolet'
p1709
aS'levemir penfill'
p1710
aS'levetiracetam'
p1711
aS'levlite'
p1712
aS'levo-dromoran'
p1713
aS'levobunolol hydrochloride'
p1714
aS'levocarnitine'
p1715
aS'levocetirizine dihydrochloride'
p1716
aS'levofloxacin'
p1717
aS'levolet'
p1718
aS'levonorgestrel'
p1719
aS'levonorgestrel and ethinyl estradiol'
p1720
aS'levoprome'
p1721
aS'levora 0.15/30-21'
p1722
aS'levothyroxine sodium'
p1723
aS'levoxyl'
p1724
aS'lexxel'
p1725
aS'librelease'
p1726
aS'libritabs'
p1727
aS'librium'
p1728
aS'lidex'
p1729
aS'lidex-e'
p1730
aS'lidocaine'
p1731
aS'lidocaine hydrochloride'
p1732
aS'lidocaine hydrochloride 0.1% and dextrose 5% in plastic container'
p1733
aS'lidocaine hydrochloride 0.2% and dextrose 5% in plastic container'
p1734
aS'lidocaine hydrochloride 0.2% in dextrose 5%'
p1735
aS'lidocaine hydrochloride 0.2% in dextrose 5% in plastic container'
p1736
aS'lidocaine hydrochloride 0.4% and dextrose 5% in plastic container'
p1737
aS'lidocaine hydrochloride 0.4% in dextrose 5%'
p1738
aS'lidocaine hydrochloride 0.8% and dextrose 5% in plastic container'
p1739
aS'lidocaine hydrochloride and epinephrine'
p1740
aS'lidocaine hydrochloride in plastic container'
p1741
aS'lidocaine hydrochloride preservative free'
p1742
aS'lidocaine hydrochloride viscous'
p1743
aS'lidocaine hydrochloride w/ epinephrine'
p1744
aS'lidocaton'
p1745
aS'lidopen'
p1746
aS'lidosite topical system kit'
p1747
aS'limbitrol'
p1748
aS'limbitrol ds'
p1749
aS'lincocin'
p1750
aS'lincomycin hydrochloride'
p1751
aS'lioresal'
p1752
aS'liothyronine sodium'
p1753
aS'lipidil'
p1754
aS'lipo gantrisin'
p1755
aS'lipo-hepin'
p1756
aS'lipofen'
p1757
aS'liposyn 10%'
p1758
aS'liposyn 20%'
p1759
aS'liposyn ii 10%'
p1760
aS'liposyn ii 20%'
p1761
aS'liposyn iii 10%'
p1762
aS'liposyn iii 20%'
p1763
aS'liposyn iii 30%'
p1764
aS'liquaemin lock flush'
p1765
aS'liquaemin sodium'
p1766
aS'liquaemin sodium preservative free'
p1767
aS'liquamar'
p1768
aS'liquid pred'
p1769
aS'lisinopril'
p1770
aS'lisinopril and hydrochlorothiazide'
p1771
aS'lithane'
p1772
aS'lithium carbonate'
p1773
aS'lithonate'
p1774
aS'lithotabs'
p1775
aS'livostin'
p1776
aS'lo-trol'
p1777
aS'lo/ovral'
p1778
aS'locholest'
p1779
aS'locholest light'
p1780
aS'locoid'
p1781
aS'locorten'
p1782
aS'lodine'
p1783
aS'lodine xl'
p1784
aS'loestrin 24 fe'
p1785
aS'logen'
p1786
aS'lomanate'
p1787
aS'lomotil'
p1788
aS'loniten'
p1789
aS'loperamide hydrochloride'
p1790
aS'lopid'
p1791
aS'lopressidone'
p1792
aS'lopressor'
p1793
aS'lopressor hct'
p1794
aS'lopurin'
p1795
aS'lorabid'
p1796
aS'loratadine'
p1797
aS'loratadine and pseudoephedrine sulfate'
p1798
aS'loraz'
p1799
aS'lorazepam'
p1800
aS'lorcet-hd'
p1801
aS'lorelco'
p1802
aS'lorfan'
p1803
aS'lortab'
p1804
aS'losartan potassium and hydrochlorothiazide'
p1805
aS'lotemax'
p1806
aS'lotrimin'
p1807
aS'lotusate'
p1808
aS'lovenox (preservative free)'
p1809
aS'low-ogestrel-21'
p1810
aS'low-quel'
p1811
aS'loxitane'
p1812
aS'loxitane c'
p1813
aS'loxitane im'
p1814
aS'lozol'
p1815
aS'lta ii kit'
p1816
aS'ludiomil'
p1817
aS'lumenhance'
p1818
aS'lumigan'
p1819
aS'lunelle'
p1820
aS'lungaggregate reagent'
p1821
aS'lupron'
p1822
aS'lupron depot'
p1823
aS'lupron depot-ped'
p1824
aS'lusedra'
p1825
aS'lutrepulse kit'
p1826
aS'luveris'
p1827
aS'luvox'
p1828
aS'lybrel'
p1829
aS'lygen'
p1830
aS'lymphazurin'
p1831
aS'lynoral'
p1832
aS'lyophilized cytoxan'
p1833
aS'm-predrol'
p1834
aS'm-zole 7 dual pack'
p1835
aS'm.v.c. 9+3'
p1836
aS'm.v.i.-12'
p1837
aS'm.v.i.-12 lyophilized'
p1838
aS'macrotec'
p1839
aS'magnacort'
p1840
aS'magnesium hydroxide and omeprazole and sodium bicarbonate'
p1841
aS'malathion'
p1842
aS'mandol'
p1843
aS'manganese sulfate'
p1844
aS'mannitol 10%'
p1845
aS'mannitol 15%'
p1846
aS'mannitol 20%'
p1847
aS'mannitol 25%'
p1848
aS'mannitol 5%'
p1849
aS'maolate'
p1850
aS'maprotiline hydrochloride'
p1851
aS'marezine'
p1852
aS'maxair'
p1853
aS'maxaquin'
p1854
aS'maxibolin'
p1855
aS'maxidex'
p1856
aS'maxolon'
p1857
aS'mazanor'
p1858
aS'md-50'
p1859
aS'md-60'
p1860
aS'md-76'
p1861
aS'measurin'
p1862
aS'meclan'
p1863
aS'meclizine hydrochloride'
p1864
aS'meclodium'
p1865
aS'meclofenamate sodium'
p1866
aS'meclomen'
p1867
aS'medigesic plus'
p1868
aS'medihaler ergotamine'
p1869
aS'medihaler-epi'
p1870
aS'medihaler-iso'
p1871
aS'medipren'
p1872
aS'medrol'
p1873
aS'medrol acetate'
p1874
aS'medroxyprogesterone acetate'
p1875
aS'mefloquine hydrochloride'
p1876
aS'mefoxin'
p1877
aS'mefoxin in dextrose 5% in plastic container'
p1878
aS'mefoxin in sodium chloride 0.9% in plastic container'
p1879
aS'megace'
p1880
aS'megatope'
p1881
aS'megestrol acetate'
p1882
aS'melfiat'
p1883
aS'melfiat-105'
p1884
aS'mellaril'
p1885
aS'mellaril-s'
p1886
aS'meloxicam'
p1887
aS'melphalan hydrochloride'
p1888
aS'memantine hydrochloride'
p1889
aS'menadione'
p1890
aS'menotropins'
p1891
aS'menrium 10-4'
p1892
aS'menrium 5-2'
p1893
aS'menrium 5-4'
p1894
aS'mentax-tc'
p1895
aS'mepergan'
p1896
aS'meperidine and atropine sulfate'
p1897
aS'meperidine hydrochloride'
p1898
aS'meperidine hydrochloride preservative free'
p1899
aS'mepivacaine hydrochloride'
p1900
aS'mepivacaine hydrochloride w/ levonordefrin'
p1901
aS'mepriam'
p1902
aS'mepro-aspirin'
p1903
aS'meprobamate'
p1904
aS'meprobamate and aspirin'
p1905
aS'mepron'
p1906
aS'meprospan'
p1907
aS'meretek ubt kit (w/ pranactin)'
p1908
aS'meridia'
p1909
aS'mersalyl-theophylline'
p1910
aS'mesantoin'
p1911
aS'metadate er'
p1912
aS'metaglip'
p1913
aS'metahydrin'
p1914
aS'metandren'
p1915
aS'metaproterenol sulfate'
p1916
aS'metaraminol bitartrate'
p1917
aS'metatensin #2'
p1918
aS'metatensin #4'
p1919
aS'metformin hydrochloride'
p1920
aS'methadone hydrochloride'
p1921
aS'methampex'
p1922
aS'methamphetamine hydrochloride'
p1923
aS'methazolamide'
p1924
aS'methdilazine hydrochloride'
p1925
aS'methimazole'
p1926
aS'methocarbamol'
p1927
aS'methocarbamol and aspirin'
p1928
aS'methotrexate lpf'
p1929
aS'methotrexate preservative free'
p1930
aS'methotrexate sodium'
p1931
aS'methotrexate sodium preservative free'
p1932
aS'methoxsalen'
p1933
aS'methscopolamine bromide'
p1934
aS'methyclothiazide'
p1935
aS'methyclothiazide and deserpidine'
p1936
aS'methyldopa'
p1937
aS'methyldopa and chlorothiazide'
p1938
aS'methyldopa and hydrochlorothiazide'
p1939
aS'methyldopate hydrochloride'
p1940
aS'methylphenidate hydrochloride'
p1941
aS'methylprednisolone'
p1942
aS'methylprednisolone acetate'
p1943
aS'methylprednisolone sodium succinate'
p1944
aS'methyltestosterone'
p1945
aS'meti-derm'
p1946
aS'meticortelone'
p1947
aS'meticorten'
p1948
aS'metimyd'
p1949
aS'metoclopramide hydrochloride'
p1950
aS'metoclopramide intensol'
p1951
aS'metolazone'
p1952
aS'metopirone'
p1953
aS'metoprolol succinate'
p1954
aS'metoprolol tartrate'
p1955
aS'metozolv odt'
p1956
aS'metra'
p1957
aS'metreton'
p1958
aS'metro i.v.'
p1959
aS'metrodin'
p1960
aS'metromidol'
p1961
aS'metronidazole'
p1962
aS'metronidazole hydrochloride'
p1963
aS'metubine iodide'
p1964
aS'metvixia'
p1965
aS'mevacor'
p1966
aS'mexate'
p1967
aS'mexate-aq'
p1968
aS'mexate-aq preserved'
p1969
aS'mexiletine hydrochloride'
p1970
aS'mexitil'
p1971
aS'mezlin'
p1972
aS'miacalcin'
p1973
aS'miconazole nitrate'
p1974
aS'micrainin'
p1975
aS'micro-k ls'
p1976
aS'microderm'
p1977
aS'microlite'
p1978
aS'micronase'
p1979
aS'microsul'
p1980
aS'midazolam hydrochloride'
p1981
aS'midol'
p1982
aS'milontin'
p1983
aS'milophene'
p1984
aS'milprem-200'
p1985
aS'milprem-400'
p1986
aS'milrinone lactate'
p1987
aS'milrinone lactate in dextrose 5% in plastic container'
p1988
aS'miltown'
p1989
aS'minipress xl'
p1990
aS'minitec'
p1991
aS'minizide'
p1992
aS'minocin'
p1993
aS'minocycline hydrochloride'
p1994
aS'minodyl'
p1995
aS'minoxidil'
p1996
aS'minoxidil (for men)'
p1997
aS'minoxidil (for women)'
p1998
aS'minoxidil extra strength (for men)'
p1999
aS'mintezol'
p2000
aS'miochol'
p2001
aS'miradon'
p2002
aS'miraluma'
p2003
aS'mirapex'
p2004
aS'mircette'
p2005
aS'mirtazapine'
p2006
aS'mithracin'
p2007
aS'mitomycin'
p2008
aS'mitoxantrone hydrochloride'
p2009
aS'mitozytrex'
p2010
aS'mivacron'
p2011
aS'mivacron in dextrose 5% in plastic container'
p2012
aS'mivacurium chloride'
p2013
aS'mixtard human 70/30'
p2014
aS'moban'
p2015
aS'moctanin'
p2016
aS'moderil'
p2017
aS'modicon 21'
p2018
aS'modrastane'
p2019
aS'moduretic 5-50'
p2020
aS'moexipril hydrochloride and hydrochlorothiazide'
p2021
aS'mometasone furoate'
p2022
aS'monistat'
p2023
aS'monistat 5'
p2024
aS'monistat-derm'
p2025
aS'monobasic sodium phosphate and dibasic sodium phosphate'
p2026
aS'monocid'
p2027
aS'monopril'
p2028
aS'monopril-hct'
p2029
aS'morphine sulfate'
p2030
aS'motofen half-strength'
p2031
aS'motrin'
p2032
aS'moviprep'
p2033
aS'moxam'
p2034
aS'mpi dtpa kit - chelate'
p2035
aS'mpi krypton 81m generator'
p2036
aS'mpi stannous diphosphonate'
p2037
aS'mucomyst'
p2038
aS'mucomyst w/ isoproterenol'
p2039
aS'mucosil-10'
p2040
aS'mucosil-20'
p2041
aS'multifuge'
p2042
aS'mutamycin'
p2043
aS'mvc plus'
p2044
aS'myambutol'
p2045
aS'mycelex'
p2046
aS'mycelex-g'
p2047
aS'mychel-s'
p2048
aS'mycifradin'
p2049
aS'mycitracin'
p2050
aS'myco-triacet ii'
p2051
aS'mycolog-ii'
p2052
aS'mycophenolate mofetil'
p2053
aS'mycostatin'
p2054
aS'mydriacyl'
p2055
aS'mydriafair'
p2056
aS'myfed'
p2057
aS'myidyl'
p2058
aS'mykinac'
p2059
aS'mykrox'
p2060
aS'mylaxen'
p2061
aS'mylotarg'
p2062
aS'mymethazine fortis'
p2063
aS'myotonachol'
p2064
aS'mysoline'
p2065
aS'mytelase'
p2066
aS'mytrex a'
p2067
aS'mytrex f'
p2068
aS'n.e.e. 1/35 21'
p2069
aS'n.e.e. 1/35 28'
p2070
aS'nabumetone'
p2071
aS'nadolol'
p2072
aS'nafazair'
p2073
aS'nafcillin sodium'
p2074
aS'nalbuphine'
p2075
aS'nalbuphine hydrochloride'
p2076
aS'nalfon'
p2077
aS'nalidixic acid'
p2078
aS'nallpen'
p2079
aS'naloxone'
p2080
aS'naloxone hydrochloride'
p2081
aS'naltrexone hydrochloride'
p2082
aS'nandrolone decanoate'
p2083
aS'nandrolone phenpropionate'
p2084
aS'naphcon forte'
p2085
aS'naproxen'
p2086
aS'naproxen sodium'
p2087
aS'naqua'
p2088
aS'naquival'
p2089
aS'narcan'
p2090
aS'nasacort'
p2091
aS'nasacort hfa'
p2092
aS'nasalcrom'
p2093
aS'nasalide'
p2094
aS'nasarel'
p2095
aS'nascobal'
p2096
aS'nateglinide'
p2097
aS'natural estrogenic substance-estrone'
p2098
aS'naturetin-10'
p2099
aS'naturetin-2.5'
p2100
aS'naturetin-5'
p2101
aS'navane'
p2102
aS'nebcin'
p2103
aS'nebivolol hydrochloride'
p2104
aS'nebupent'
p2105
aS'nefazodone hydrochloride'
p2106
aS'neggram'
p2107
aS'nembutal'
p2108
aS'nembutal sodium'
p2109
aS'neo tect kit'
p2110
aS'neo-cort-dome'
p2111
aS'neo-cortef'
p2112
aS'neo-delta-cortef'
p2113
aS'neo-hydeltrasol'
p2114
aS'neo-medrol'
p2115
aS'neo-medrol acetate'
p2116
aS'neo-polycin'
p2117
aS'neo-rx'
p2118
aS'neobiotic'
p2119
aS'neodecadron'
p2120
aS'neomycin & polymyxin b sulfates & bacitracin zinc & hydrocortisone'
p2121
aS'neomycin and polymyxin b sulfates and dexamethasone'
p2122
aS'neomycin and polymyxin b sulfates and gramicidin'
p2123
aS'neomycin sulfate'
p2124
aS'neomycin sulfate and dexamethasone sodium phosphate'
p2125
aS'neomycin sulfate and polymyxin b sulfate gramicidin'
p2126
aS'neomycin sulfate, polymyxin b sulfate & hydrocortisone'
p2127
aS'neomycin sulfate-dexamethasone sodium phosphate'
p2128
aS'neomycin sulfate-polymyxin b sulfate-hydrocortisone'
p2129
aS'neomycin sulfate-triamcinolone acetonide'
p2130
aS'neopasalate'
p2131
aS'neopham 6.4%'
p2132
aS'neoral'
p2133
aS'neosar'
p2134
aS'neoscan'
p2135
aS'neosporin'
p2136
aS'neothylline'
p2137
aS'neotrizine'
p2138
aS'nephroflow'
p2139
aS'neptazane'
p2140
aS'nesacaine-mpf'
p2141
aS'netromycin'
p2142
aS'neuramate'
p2143
aS'neutrexin'
p2144
aS'nexcede'
p2145
aS'niacin'
p2146
aS'niaspan'
p2147
aS'niaspan titration starter pack'
p2148
aS'nicardipine hydrochloride'
p2149
aS'niclocide'
p2150
aS'nicolar'
p2151
aS'nicotine polacrilex'
p2152
aS'nicotrol'
p2153
aS'nifedipine'
p2154
aS'nilandron'
p2155
aS'nilstat'
p2156
aS'nimotop'
p2157
aS'nipride'
p2158
aS'niravam'
p2159
aS'nitro iv'
p2160
aS'nitro-bid'
p2161
aS'nitrofurantoin'
p2162
aS'nitrofurantoin (monohydrate/macrocrystals)'
p2163
aS'nitrofurantoin macrocrystalline'
p2164
aS'nitrofurazone'
p2165
aS'nitroglycerin'
p2166
aS'nitroglycerin in dextrose 5%'
p2167
aS'nitrol'
p2168
aS'nitrolingual'
p2169
aS'nitronal'
p2170
aS'nitropress'
p2171
aS'nitrostat'
p2172
aS'nix'
p2173
aS'nizatidine'
p2174
aS'nizoral'
p2175
aS'nogenic hc'
p2176
aS'noludar'
p2177
aS'nolvadex'
p2178
aS'norcept-e 1/35 21'
p2179
aS'norcept-e 1/35 28'
p2180
aS'norcet'
p2181
aS'norcuron'
p2182
aS'nordette-21'
p2183
aS'norditropin'
p2184
aS'norditropin nordiflex'
p2185
aS'norepinephrine bitartrate'
p2186
aS'norethin 1/35e-21'
p2187
aS'norethin 1/35e-28'
p2188
aS'norethin 1/50m-21'
p2189
aS'norethin 1/50m-28'
p2190
aS'norethindrone acetate and ethinyl estradiol and ferrous fumarate'
p2191
aS'norethindrone and ethinyl estradiol'
p2192
aS'norethindrone and ethinyl estradiol (10/11)'
p2193
aS'norethindrone and ethinyl estradiol (7/14)'
p2194
aS'norethindrone and mestranol'
p2195
aS'norflex'
p2196
aS'norgesic'
p2197
aS'norgesic forte'
p2198
aS'norgestimate and ethinyl estradiol'
p2199
aS'norinyl'
p2200
aS'norinyl 1+50 21-day'
p2201
aS'norinyl 1+80 21-day'
p2202
aS'norinyl 1+80 28-day'
p2203
aS'norisodrine'
p2204
aS'norisodrine aerotrol'
p2205
aS'norlestrin 21 1/50'
p2206
aS'norlestrin 21 2.5/50'
p2207
aS'norlestrin 28 1/50'
p2208
aS'norlestrin fe 1/50'
p2209
aS'norlestrin fe 2.5/50'
p2210
aS'norlutate'
p2211
aS'norlutin'
p2212
aS'normiflo'
p2213
aS'normodyne'
p2214
aS'normozide'
p2215
aS'noroxin'
p2216
aS'norplant'
p2217
aS'norplant system in plastic container'
p2218
aS'norquest fe'
p2219
aS'nortrel 0.5/35-21'
p2220
aS'nortriptyline hydrochloride'
p2221
aS'norvir'
p2222
aS'novafed'
p2223
aS'novamine 11.4%'
p2224
aS'novamine 15%'
p2225
aS'novamine 15% sulfite free in plastic container'
p2226
aS'novamine 8.5%'
p2227
aS'novantrone'
p2228
aS'novocain'
p2229
aS'novolin 70/30'
p2230
aS'novolin l'
p2231
aS'novolin n'
p2232
aS'novolin r'
p2233
aS'novolog innolet'
p2234
aS'novolog mix 50/50'
p2235
aS'novolog mix 70/30 penfill'
p2236
aS'novothyrox'
p2237
aS'novrad'
p2238
aS'nph iletin i (beef-pork)'
p2239
aS'nph iletin ii'
p2240
aS'nph iletin ii (pork)'
p2241
aS'nph insulin'
p2242
aS'nph purified pork isophane insulin'
p2243
aS'nubain'
p2244
aS'numorphan'
p2245
aS'nuprin'
p2246
aS'nuromax'
p2247
aS'nutracort'
p2248
aS'nutropin depot'
p2249
aS'nuvigil'
p2250
aS'nydrazid'
p2251
aS'nysert'
p2252
aS'nystaform'
p2253
aS'nystatin'
p2254
aS'nystatin and triamcinolone acetonide'
p2255
aS'nystatin-triamcinolone acetonide'
p2256
aS'nystex'
p2257
aS'obestin-30'
p2258
aS'oby-trim'
p2259
aS'ocl'
p2260
aS'ocumycin'
p2261
aS'ocusert pilo-20'
p2262
aS'ocusert pilo-40'
p2263
aS'ocusulf-10'
p2264
aS'ocusulf-30'
p2265
aS'ofloxacin'
p2266
aS'oforta'
p2267
aS'ogen'
p2268
aS'ogestrel 0.5/50-21'
p2269
aS'oleptro'
p2270
aS'omeprazole and sodium bicarbonate'
p2271
aS'omnicef'
p2272
aS'omnipaque 210'
p2273
aS'omnipaque 70'
p2274
aS'omnipen (ampicillin)'
p2275
aS'omnipen-n'
p2276
aS'omniscan'
p2277
aS'omontys'
p2278
aS'omontys preservative free'
p2279
aS'ona-mast'
p2280
aS'oncovin'
p2281
aS'ondansetron'
p2282
aS'ondansetron hydrochloride'
p2283
aS'ondansetron hydrochloride and dextrose in plastic container'
p2284
aS'ondansetron hydrochloride and sodium chloride in plastic container'
p2285
aS'ondansetron hydrochloride preservative free'
p2286
aS'onfi'
p2287
aS'onsolis'
p2288
aS'opana'
p2289
aS'opana er'
p2290
aS'opcon'
p2291
aS'ophthaine'
p2292
aS'ophthetic'
p2293
aS'ophthochlor'
p2294
aS'ophthocort'
p2295
aS'opticrom'
p2296
aS'optimine'
p2297
aS'optiray 160'
p2298
aS'optiray 240'
p2299
aS'optiray 320'
p2300
aS'optomycin'
p2301
aS'ora-testryl'
p2302
aS'orabase hca'
p2303
aS'oragrafin calcium'
p2304
aS'oragrafin sodium'
p2305
aS'oralone'
p2306
aS'oramorph sr'
p2307
aS'orasone'
p2308
aS'oretic'
p2309
aS'oreticyl 25'
p2310
aS'oreticyl 50'
p2311
aS'oreticyl forte'
p2312
aS'oreton'
p2313
aS'oreton methyl'
p2314
aS'orgaran'
p2315
aS'orgatrax'
p2316
aS'orinase'
p2317
aS'orinase diagnostic'
p2318
aS'orlaam'
p2319
aS'orlex'
p2320
aS'orlex hc'
p2321
aS'ornidyl'
p2322
aS'orphenadrine citrate'
p2323
aS'orphenadrine citrate, aspirin, and caffeine'
p2324
aS'orphengesic'
p2325
aS'orphengesic forte'
p2326
aS'ortho cyclen-21'
p2327
aS'ortho evra'
p2328
aS'ortho tri-cyclen'
p2329
aS'ortho-cept'
p2330
aS'ortho-est'
p2331
aS'ortho-novum 1/35-21'
p2332
aS'ortho-novum 1/50 21'
p2333
aS'ortho-novum 1/50 28'
p2334
aS'ortho-novum 1/80 21'
p2335
aS'ortho-novum 1/80 28'
p2336
aS'ortho-novum 10-21'
p2337
aS'ortho-novum 10/11-21'
p2338
aS'ortho-novum 10/11-28'
p2339
aS'ortho-novum 2-21'
p2340
aS'ortho-novum 7/14-21'
p2341
aS'ortho-novum 7/14-28'
p2342
aS'ortho-novum 7/7/7-21'
p2343
aS'orudis'
p2344
aS'orudis kt'
p2345
aS'oruvail'
p2346
aS'osmovist 190'
p2347
aS'osmovist 240'
p2348
aS'osteolite'
p2349
aS'osteoscan'
p2350
aS'oticair'
p2351
aS'otobione'
p2352
aS'otobiotic'
p2353
aS'otocort'
p2354
aS'ovcon-35'
p2355
aS'ovcon-50'
p2356
aS'ovidrel'
p2357
aS'ovral'
p2358
aS'ovral-28'
p2359
aS'ovrette'
p2360
aS'ovulen'
p2361
aS'ovulen-21'
p2362
aS'ovulen-28'
p2363
aS'oxacillin sodium'
p2364
aS'oxaliplatin'
p2365
aS'oxandrolone'
p2366
aS'oxaprozin'
p2367
aS'oxazepam'
p2368
aS'oxcarbazepine'
p2369
aS'oxtriphylline'
p2370
aS'oxtriphylline pediatric'
p2371
aS'oxy-kesso-tetra'
p2372
aS'oxybutynin chloride'
p2373
aS'oxycodone 2.5/apap 500'
p2374
aS'oxycodone 5/apap 500'
p2375
aS'oxycodone and acetaminophen'
p2376
aS'oxycodone and aspirin'
p2377
aS'oxycodone and aspirin (half-strength)'
p2378
aS'oxylone'
p2379
aS'oxyphenbutazone'
p2380
aS'oxytetracycline hydrochloride'
p2381
aS'oxytocin'
p2382
aS'oxytocin 10 usp units in dextrose 5%'
p2383
aS'oxytocin 20 usp units in dextrose 5%'
p2384
aS'oxytocin 5 usp units in dextrose 5%'
p2385
aS'p.a.s. sodium'
p2386
aS'paclitaxel'
p2387
aS'pagitane'
p2388
aS'palladone'
p2389
aS'pamelor'
p2390
aS'pamidronate disodium'
p2391
aS'pancuronium bromide'
p2392
aS'panheprin'
p2393
aS'panixine disperdose'
p2394
aS'panmycin'
p2395
aS'pantopaque'
p2396
aS'panwarfin'
p2397
aS'papa-deine #3'
p2398
aS'papa-deine #4'
p2399
aS'paracaine'
p2400
aS'paracort'
p2401
aS'paradione'
p2402
aS'paraflex'
p2403
aS'paraplatin'
p2404
aS'parasal'
p2405
aS'parasal sodium'
p2406
aS'parathar'
p2407
aS'parcopa'
p2408
aS'paredrine'
p2409
aS'paroxetine hydrochloride'
p2410
aS'parsidol'
p2411
aS'paskalium'
p2412
aS'pathilon'
p2413
aS'pathocil'
p2414
aS'pavulon'
p2415
aS'paxil'
p2416
aS'paxipam'
p2417
aS'pbz'
p2418
aS'pbz-sr'
p2419
aS'pediamycin'
p2420
aS'pediatric lta kit'
p2421
aS'pediazole'
p2422
aS'peg-lyte'
p2423
aS'peganone'
p2424
aS'pemoline'
p2425
aS'pen-vee k'
p2426
aS'penapar-vk'
p2427
aS'penbritin'
p2428
aS'penbritin-s'
p2429
aS'penecort'
p2430
aS'penetrex'
p2431
aS'penicillin'
p2432
aS'penicillin g potassium'
p2433
aS'penicillin g procaine'
p2434
aS'penicillin g sodium'
p2435
aS'penicillin v potassium'
p2436
aS'penicillin-2'
p2437
aS'penntuss'
p2438
aS'pentacarinat'
p2439
aS'pentacef'
p2440
aS'pentamidine isethionate'
p2441
aS'pentetate calcium trisodium'
p2442
aS'pentetate zinc trisodium'
p2443
aS"pentids '200'"
p2444
aS"pentids '250'"
p2445
aS"pentids '400'"
p2446
aS"pentids '800'"
p2447
aS'pentobarbital sodium'
p2448
aS'pentolair'
p2449
aS'pentothal'
p2450
aS'pentoxifylline'
p2451
aS'pepcid'
p2452
aS'pepcid ac'
p2453
aS'pepcid preservative free'
p2454
aS'pepcid preservative free in plastic container'
p2455
aS'pepcid rpd'
p2456
aS'peptavlon'
p2457
aS'perchloracap'
p2458
aS'percocet'
p2459
aS'percodan'
p2460
aS'percodan-demi'
p2461
aS'percorten'
p2462
aS'pergolide mesylate'
p2463
aS'pergonal'
p2464
aS'periactin'
p2465
aS'periostat'
p2466
aS'permax'
p2467
aS'permitil'
p2468
aS'perphenazine'
p2469
aS'perphenazine and amitriptyline hydrochloride'
p2470
aS'pertofrane'
p2471
aS'pfizer-e'
p2472
aS'pfizerpen'
p2473
aS'pfizerpen g'
p2474
aS'pfizerpen vk'
p2475
aS'pfizerpen-a'
p2476
aS'pfizerpen-as'
p2477
aS'phenaphen w/ codeine no. 2'
p2478
aS'phenaphen w/ codeine no. 3'
p2479
aS'phenaphen w/ codeine no. 4'
p2480
aS'phenaphen-650 w/ codeine'
p2481
aS'phenazine'
p2482
aS'phenazine-35'
p2483
aS'phendimetrazine tartrate'
p2484
aS'phenergan'
p2485
aS'phenergan vc'
p2486
aS'phenergan vc w/ codeine'
p2487
aS'phenergan w/ codeine'
p2488
aS'phenetron'
p2489
aS'phentermine hydrochloride'
p2490
aS'phentermine resin 30'
p2491
aS'phenurone'
p2492
aS'pheny-pas-tebamin'
p2493
aS'phenylbutazone'
p2494
aS'phenytex'
p2495
aS'phenytoin'
p2496
aS'phenytoin sodium'
p2497
aS'pherazine dm'
p2498
aS'pherazine vc'
p2499
aS'pherazine vc w/ codeine'
p2500
aS'pherazine w/ codeine'
p2501
aS'phiso-scrub'
p2502
aS'phisohex'
p2503
aS'phoslo'
p2504
aS'phosphocol p32'
p2505
aS'phospholine iodide'
p2506
aS'phosphotec'
p2507
aS'phosphotope'
p2508
aS'phrenilin'
p2509
aS'phrenilin forte'
p2510
aS'phrenilin with caffeine and codeine'
p2511
aS'phyllocontin'
p2512
aS'physiosol in plastic container'
p2513
aS'physiosol ph 7.4 in plastic container'
p2514
aS'phytonadione'
p2515
aS'pindac'
p2516
aS'pindolol'
p2517
aS'piperazine citrate'
p2518
aS'pipracil'
p2519
aS'piroxicam'
p2520
aS'pitressin tannate'
p2521
aS'placidyl'
p2522
aS'plan b'
p2523
aS'plasma-lyte 148 and dextrose 5% in plastic container'
p2524
aS'plasma-lyte 56 in plastic container'
p2525
aS'plasma-lyte m and dextrose 5% in plastic container'
p2526
aS'plasma-lyte r in plastic container'
p2527
aS'platinol'
p2528
aS'platinol-aq'
p2529
aS'plegine'
p2530
aS'plenaxis'
p2531
aS'pmb 200'
p2532
aS'pmb 400'
p2533
aS'polaramine'
p2534
aS'polocaine'
p2535
aS'polocaine w/ levonordefrin'
p2536
aS'poly-pred'
p2537
aS'poly-rx'
p2538
aS'polycillin'
p2539
aS'polycillin-n'
p2540
aS'polycillin-prb'
p2541
aS'polyethylene glycol 3350'
p2542
aS'polyethylene glycol 3350 and electrolytes'
p2543
aS'polymox'
p2544
aS'polymyxin b sulfate'
p2545
aS'polysporin'
p2546
aS'portalac'
p2547
aS'portia-21'
p2548
aS'potassium aminosalicylate'
p2549
aS'potassium chloride'
p2550
aS'potassium chloride 0.037% in dextrose 5% in plastic container'
p2551
aS'potassium chloride 0.037% in sodium chloride 0.9% in plastic container'
p2552
aS'potassium chloride 0.075% in dextrose 5% in plastic container'
p2553
aS'potassium chloride 0.075% in sodium chloride 0.9% in plastic container'
p2554
aS'potassium chloride 0.11% in dextrose 5% in plastic container'
p2555
aS'potassium chloride 0.11% in sodium chloride 0.9% in plastic container'
p2556
aS'potassium chloride 0.22% in dextrose 5% in plastic container'
p2557
aS'potassium chloride 0.22% in sodium chloride 0.9% in plastic container'
p2558
aS'potassium chloride 0.3% in sodium chloride 0.9% in plastic container'
p2559
aS"potassium chloride 10meq in dextrose 5% and lactated ringer's in plastic container"
p2560
aS"potassium chloride 15meq in dextrose 5% and lactated ringer's in plastic container"
p2561
aS"potassium chloride 30meq in dextrose 5% and lactated ringer's in plastic container"
p2562
aS"potassium chloride 5meq in dextrose 5% and lactated ringer's in plastic container"
p2563
aS'potassium citrate'
p2564
aS'potassium iodide'
p2565
aS'povan'
p2566
aS'pralidoxime chloride'
p2567
aS'pramine'
p2568
aS'pramipexole dihydrochloride'
p2569
aS'pramosone'
p2570
aS'prantal'
p2571
aS'pravachol'
p2572
aS'pravastatin sodium'
p2573
aS'pravigard pac (copackaged)'
p2574
aS'prazepam'
p2575
aS'prazosin hydrochloride'
p2576
aS'pre-sate'
p2577
aS'precef'
p2578
aS'predair'
p2579
aS'predair forte'
p2580
aS'predamide'
p2581
aS'prednicen-m'
p2582
aS'prednisolone'
p2583
aS'prednisolone acetate'
p2584
aS'prednisolone sodium phosphate'
p2585
aS'prednisolone tebutate'
p2586
aS'prednisone'
p2587
aS'predsulfair'
p2588
aS'predsulfair ii'
p2589
aS'prefest'
p2590
aS'prefrin-a'
p2591
aS'prelay'
p2592
aS'prelone'
p2593
aS'preludin'
p2594
aS'premarin'
p2595
aS'premphase (premarin;cycrin 14/14)'
p2596
aS'prempro (premarin;cycrin)'
p2597
aS'presamine'
p2598
aS'prevacare r'
p2599
aS'prevacid'
p2600
aS'prevacid iv'
p2601
aS'prevacid naprapac 250 (copackaged)'
p2602
aS'prevacid naprapac 375 (copackaged)'
p2603
aS'prevacid naprapac 500 (copackaged)'
p2604
aS'preven emergency contraceptive kit'
p2605
aS'prezista'
p2606
aS'prialt'
p2607
aS'primacor'
p2608
aS'primacor in dextrose 5% in plastic container'
p2609
aS'primatene mist'
p2610
aS'primaxin'
p2611
aS'primidone'
p2612
aS'primsol'
p2613
aS'principen'
p2614
aS"principen '125'"
p2615
aS"principen '250'"
p2616
aS"principen '500'"
p2617
aS'principen w/ probenecid'
p2618
aS'prinivil'
p2619
aS'prinzide'
p2620
aS'priscoline'
p2621
aS'prismasol b22gk 2/2.5 in plastic container'
p2622
aS'prismasol bgk 4/0 in plastic container'
p2623
aS'prismasol bgk 4/3.5 in plastic container'
p2624
aS'prismasol bk 0/0 in plastic container'
p2625
aS'prismasol bk 4/2.5 in plastic container'
p2626
aS'pro-banthine'
p2627
aS'proamatine'
p2628
aS'probampacin'
p2629
aS'proben-c'
p2630
aS'probenecid'
p2631
aS'probenecid and colchicine'
p2632
aS'probenecid w/ colchicine'
p2633
aS'procainamide hydrochloride'
p2634
aS'procaine hydrochloride'
p2635
aS'procaine hydrochloride w/ epinephrine'
p2636
aS'procan'
p2637
aS'procan sr'
p2638
aS'procanbid'
p2639
aS'procapan'
p2640
aS'procardia'
p2641
aS'prochlorperazine'
p2642
aS'prochlorperazine edisylate'
p2643
aS'prochlorperazine maleate'
p2644
aS'proctocort'
p2645
aS'profenal'
p2646
aS'progestasert'
p2647
aS'progesterone'
p2648
aS'proglycem'
p2649
aS'proketazine'
p2650
aS'proklar'
p2651
aS'prolixin'
p2652
aS'prolixin decanoate'
p2653
aS'prolixin enanthate'
p2654
aS'proloid'
p2655
aS'proloprim'
p2656
aS'promapar'
p2657
aS'promazine hydrochloride'
p2658
aS'prometa'
p2659
aS'prometh fortis'
p2660
aS'prometh plain'
p2661
aS'prometh w/ dextromethorphan'
p2662
aS'promethacon'
p2663
aS'promethazine'
p2664
aS'promethazine hydrochloride'
p2665
aS'promethazine hydrochloride and codeine phosphate'
p2666
aS'promethazine hydrochloride and destromethorphan hydrobromide'
p2667
aS'promethazine hydrochloride and dextromethorphan hydrobromide'
p2668
aS'promethazine hydrochloride plain'
p2669
aS'promethazine vc plain'
p2670
aS'promethazine vc w/ codeine'
p2671
aS'promethazine w/ codeine'
p2672
aS'prometrium'
p2673
aS'prompt phenytoin sodium'
p2674
aS'pronestyl'
p2675
aS'pronestyl-sr'
p2676
aS'propacet 100'
p2677
aS'propafenone hydrochloride'
p2678
aS'propantheline bromide'
p2679
aS'proparacaine hydrochloride'
p2680
aS'prophene 65'
p2681
aS'propine'
p2682
aS'propofol'
p2683
aS'propoxyphene compound 65'
p2684
aS'propoxyphene compound-65'
p2685
aS'propoxyphene hydrochloride'
p2686
aS'propoxyphene hydrochloride 65'
p2687
aS'propoxyphene hydrochloride and acetaminophen'
p2688
aS'propoxyphene hydrochloride w/ aspirin and caffeine'
p2689
aS'propoxyphene napsylate and acetaminophen'
p2690
aS'propranolol hydrochloride'
p2691
aS'propranolol hydrochloride & hydrochlorothiazide'
p2692
aS'propranolol hydrochloride and hydrochlorothiazide'
p2693
aS'propranolol hydrochloride intensol'
p2694
aS'propulsid'
p2695
aS'propulsid quicksolv'
p2696
aS'propylthiouracil'
p2697
aS'proquin xr'
p2698
aS'prosom'
p2699
aS'prostaphlin'
p2700
aS'prostep'
p2701
aS'prostin f2 alpha'
p2702
aS'protamine sulfate'
p2703
aS'protamine zinc & iletin i (beef-pork)'
p2704
aS'protamine zinc and iletin ii'
p2705
aS'protamine zinc and iletin ii (pork)'
p2706
aS'protamine zinc insulin'
p2707
aS'protopam chloride'
p2708
aS'protostat'
p2709
aS'protropin'
p2710
aS'proval #3'
p2711
aS'proventil'
p2712
aS'prozac'
p2713
aS'pseudo-12'
p2714
aS'pseudoephedrine hydrochloride and chlorpheniramine maleate'
p2715
aS'pseudoephedrine hydrochloride and triprolidine hydrochloride'
p2716
aS'psorcon'
p2717
aS'psorcon e'
p2718
aS'pulmicort'
p2719
aS'purified cortrophin gel'
p2720
aS'purinethol'
p2721
aS'pylori-chek breath test'
p2722
aS'pyocidin'
p2723
aS'pyopen'
p2724
aS'pyridamal 100'
p2725
aS'pyridostigmine bromide'
p2726
aS'pyridoxine hydrochloride'
p2727
aS'pyrilamine maleate'
p2728
aS'pyrolite'
p2729
aS'q-gesic'
p2730
aS'q-pam'
p2731
aS'quarzan'
p2732
aS'quelicin preservative free'
p2733
aS'questran'
p2734
aS'questran light'
p2735
aS'quibron-t'
p2736
aS'quibron-t/sr'
p2737
aS'quide'
p2738
aS'quinact'
p2739
aS'quinaglute'
p2740
aS'quinalan'
p2741
aS'quinapril hydrochloride'
p2742
aS'quinatime'
p2743
aS'quinidex'
p2744
aS'quinidine gluconate'
p2745
aS'quinidine sulfate'
p2746
aS'quinora'
p2747
aS'r-p mycin'
p2748
aS'radio-iodinated (i 125) serum albumin (human)'
p2749
aS'radioiodinated serum albumin (human) ihsa i 125'
p2750
aS'radionuclide-labeled (125 i) fibrinogen (human) sensor'
p2751
aS'ramipril'
p2752
aS'raniclor'
p2753
aS'ranitidine hydrochloride'
p2754
aS'rapamune'
p2755
aS'raplon'
p2756
aS'rasagiline mesylate'
p2757
aS'rau-sed'
p2758
aS'raudixin'
p2759
aS'rauserpin'
p2760
aS'rautensin'
p2761
aS'rauval'
p2762
aS'rauwiloid'
p2763
aS'rauwolfia serpentina'
p2764
aS'ravocaine and novocain w/ levophed'
p2765
aS'ravocaine and novocain w/ neo-cobefrin'
p2766
aS'raxar'
p2767
aS'rbc-scan'
p2768
aS'redisol'
p2769
aS'refludan'
p2770
aS'reglan'
p2771
aS'reglan odt'
p2772
aS'regroton'
p2773
aS'regular iletin ii'
p2774
aS'regular iletin ii (pork)'
p2775
aS'regular insulin'
p2776
aS'regular purified pork insulin'
p2777
aS'rela'
p2778
aS'relafen'
p2779
aS'remsed'
p2780
aS'renagel'
p2781
aS'renamin w/o electrolytes'
p2782
aS'renese'
p2783
aS'renese-r'
p2784
aS'reno-30'
p2785
aS'reno-60'
p2786
aS'reno-dip'
p2787
aS'renocal-76'
p2788
aS'renografin-60'
p2789
aS'renoquid'
p2790
aS'renormax'
p2791
aS'renotec'
p2792
aS'renovist'
p2793
aS'renovist ii'
p2794
aS'renovue-65'
p2795
aS'renovue-dip'
p2796
aS'repronex'
p2797
aS'requip xl'
p2798
aS'resectisol'
p2799
aS'reserpine'
p2800
aS'reserpine and hydrochlorothiazide'
p2801
aS'reserpine and hydrochlorothiazide-50'
p2802
aS'reserpine and hydroflumethiazide'
p2803
aS'reserpine, hydralazine hydrochloride and hydrochlorothiazide'
p2804
aS'reserpine, hydrochlorothiazide, and hydralazine hydrochloride'
p2805
aS'resporal'
p2806
aS'retet'
p2807
aS'retin-a'
p2808
aS'retrovir'
p2809
aS'reversol'
p2810
aS'revex'
p2811
aS'reyataz'
p2812
aS'rezipas'
p2813
aS'rezulin'
p2814
aS'rhinocort'
p2815
aS'rid mousse'
p2816
aS'rifampin and isoniazid'
p2817
aS'rimadyl'
p2818
aS'rimantadine hydrochloride'
p2819
aS'rimifon'
p2820
aS"ringer's in plastic container"
p2821
aS'risperdal'
p2822
aS'risperidone'
p2823
aS'ritodrine hydrochloride'
p2824
aS'ritodrine hydrochloride in dextrose 5% in plastic container'
p2825
aS'robaxisal'
p2826
aS'robengatope'
p2827
aS'robimycin'
p2828
aS'robinul'
p2829
aS'robitet'
p2830
aS'rocephin'
p2831
aS'rocephin kit'
p2832
aS'rocephin w/ dextrose in plastic container'
p2833
aS'romazicon'
p2834
aS'rondomycin'
p2835
aS'ropinirole hydrochloride'
p2836
aS'rowasa'
p2837
aS'roxicet 5/500'
p2838
aS'roxicodone'
p2839
aS'roxilox'
p2840
aS'roxiprin'
p2841
aS'rubex'
p2842
aS'rubivite'
p2843
aS'rubramin pc'
p2844
aS'rubratope-57'
p2845
aS'rubratope-57 kit'
p2846
aS'rubratope-60'
p2847
aS'rubratope-60 kit'
p2848
aS'rufen'
p2849
aS'ruvite'
p2850
aS'rybix odt'
p2851
aS'ryzolt'
p2852
aS's.a.s.-500'
p2853
aS'saizen'
p2854
aS'salpix'
p2855
aS'salutensin'
p2856
aS'salutensin-demi'
p2857
aS'samsca'
p2858
aS'sandril'
p2859
aS'sanorex'
p2860
aS'sansac'
p2861
aS'sansert'
p2862
aS'sarafem'
p2863
aS'sarenin'
p2864
aS'sarisol'
p2865
aS'sarisol no. 1'
p2866
aS'sarisol no. 2'
p2867
aS'satric'
p2868
aS'scabene'
p2869
aS'scrubteam surgical spongebrush'
p2870
aS'secobarbital sodium'
p2871
aS'seconal sodium'
p2872
aS'secreflo'
p2873
aS'secretin-ferring'
p2874
aS'sedapap'
p2875
aS'seffin'
p2876
aS'selegiline hydrochloride'
p2877
aS'selenium sulfide'
p2878
aS'selenomethionine se 75'
p2879
aS'semilente'
p2880
aS'semilente insulin'
p2881
aS'septi-soft'
p2882
aS'septisol'
p2883
aS'septra'
p2884
aS'septra grape'
p2885
aS'ser-a-gen'
p2886
aS'ser-ap-es'
p2887
aS'serax'
p2888
aS'serentil'
p2889
aS'serevent'
p2890
aS'seroquel'
p2891
aS'serostim'
p2892
aS'serostim lq'
p2893
aS'serpalan'
p2894
aS'serpanray'
p2895
aS'serpasil'
p2896
aS'serpasil-apresoline'
p2897
aS'serpasil-esidrix #1'
p2898
aS'serpasil-esidrix #2'
p2899
aS'serpate'
p2900
aS'serpivite'
p2901
aS'sertraline hydrochloride'
p2902
aS'servisone'
p2903
aS'serzone'
p2904
aS'sethotope'
p2905
aS'sildaflo'
p2906
aS'silphen'
p2907
aS'simvastatin'
p2908
aS'sinequan'
p2909
aS'skelaxin'
p2910
aS'skelid'
p2911
aS'skin exposure reduction paste against chemical warfare agents'
p2912
aS'slo-bid'
p2913
aS'slo-phyllin'
p2914
aS'slow-k'
p2915
aS'sodium aminosalicylate'
p2916
aS'sodium bicarbonate in plastic container'
p2917
aS'sodium butabarbital'
p2918
aS'sodium chloride'
p2919
aS'sodium chloride 0.45% in plastic container'
p2920
aS'sodium chloride 0.9%'
p2921
aS'sodium chloride 0.9% and potassium chloride 0.075% in plastic container'
p2922
aS'sodium chloride 0.9% and potassium chloride 0.15% in plastic container'
p2923
aS'sodium chloride 0.9% and potassium chloride 0.22% in plastic container'
p2924
aS'sodium chloride 0.9% and potassium chloride 0.3% in plastic container'
p2925
aS'sodium chloride 0.9% in plastic container'
p2926
aS'sodium chloride 23.4% in plastic container'
p2927
aS'sodium chloride 3% in plastic container'
p2928
aS'sodium chloride 5% in plastic container'
p2929
aS'sodium chloride in plastic container'
p2930
aS'sodium chromate cr 51'
p2931
aS'sodium fluoride f 18'
p2932
aS'sodium heparin'
p2933
aS'sodium iodide i 123'
p2934
aS'sodium iodide i 131'
p2935
aS'sodium iodide i-131'
p2936
aS'sodium lactate 0.167 molar in plastic container'
p2937
aS'sodium nitroprusside'
p2938
aS'sodium p.a.s.'
p2939
aS'sodium pentobarbital'
p2940
aS'sodium pertechnetate tc 99m'
p2941
aS'sodium phosphate p 32'
p2942
aS'sodium polyphosphate-tin kit'
p2943
aS'sodium polystyrene sulfonate'
p2944
aS'sodium rose bengal i 131'
p2945
aS'sodium succinate'
p2946
aS'sodium sulamyd'
p2947
aS'sodium sulfacetamide'
p2948
aS'sodium thiosulfate'
p2949
aS'solage'
p2950
aS'solatene'
p2951
aS'solodyn'
p2952
aS'soma'
p2953
aS'somophyllin'
p2954
aS'somophyllin-crt'
p2955
aS'somophyllin-df'
p2956
aS'somophyllin-t'
p2957
aS'sonazine'
p2958
aS'sonorx'
p2959
aS'sorbitol 3% in plastic container'
p2960
aS'sorbitol-mannitol'
p2961
aS'sorbitol-mannitol in plastic container'
p2962
aS'sorbitrate'
p2963
aS'sosol'
p2964
aS'sotalol hydrochloride'
p2965
aS'sotradecol'
p2966
aS'soxazole'
p2967
aS'soy-dome'
p2968
aS'soyacal 10%'
p2969
aS'soyacal 20%'
p2970
aS'sparine'
p2971
aS'spectamine'
p2972
aS'spectazole'
p2973
aS'spectrobid'
p2974
aS'spironolactone'
p2975
aS'spironolactone and hydrochlorothiazide'
p2976
aS'spironolactone w/ hydrochlorothiazide'
p2977
aS'sporanox'
p2978
aS'sprx-105'
p2979
aS'sprx-3'
p2980
aS'stadol'
p2981
aS'stadol preservative free'
p2982
aS'stanozide'
p2983
aS'staphcillin'
p2984
aS'staticin'
p2985
aS'statobex'
p2986
aS'statobex-g'
p2987
aS'statrol'
p2988
aS'stavzor'
p2989
aS'stelazine'
p2990
aS'sterane'
p2991
aS'steri-stat'
p2992
aS'sterile urea'
p2993
aS'sterile water for injection in plastic container'
p2994
aS'sterile water in plastic container'
p2995
aS'stie-cort'
p2996
aS'stilbestrol'
p2997
aS'stilbetin'
p2998
aS'stilphostrol'
p2999
aS'stimate'
p3000
aS'stoxil'
p3001
aS'strattera'
p3002
aS'streptomycin sulfate'
p3003
aS'strifon forte dsc'
p3004
aS'stromectol'
p3005
aS'suboxone'
p3006
aS'subutex'
p3007
aS'succinylcholine chloride'
p3008
aS'sucostrin'
p3009
aS'sudafed 12 hour'
p3010
aS'sufentanil citrate'
p3011
aS'sular'
p3012
aS'sulf-10'
p3013
aS'sulf-15'
p3014
aS'sulfa-triple #2'
p3015
aS'sulfabid'
p3016
aS'sulfacel-15'
p3017
aS'sulfacetamide sodium'
p3018
aS'sulfadiazine'
p3019
aS'sulfadiazine sodium'
p3020
aS'sulfair 10'
p3021
aS'sulfair forte'
p3022
aS'sulfair-15'
p3023
aS'sulfalar'
p3024
aS'sulfaloid'
p3025
aS'sulfamethoprim'
p3026
aS'sulfamethoprim-ds'
p3027
aS'sulfamethoxazole'
p3028
aS'sulfamethoxazole and trimethoprim'
p3029
aS'sulfamethoxazole and trimethoprim and penazopyridine hydrochloride'
p3030
aS'sulfamethoxazole and trimethoprim double strength'
p3031
aS'sulfanilamide'
p3032
aS'sulfapyridine'
p3033
aS'sulfasalazine'
p3034
aS'sulfatrim'
p3035
aS'sulfatrim-ds'
p3036
aS'sulfatrim-ss'
p3037
aS'sulfinpyrazone'
p3038
aS'sulfisoxazole'
p3039
aS'sulfisoxazole diolamine'
p3040
aS'sulfonamides duplex'
p3041
aS'sulfose'
p3042
aS'sulindac'
p3043
aS'sulla'
p3044
aS'sulmeprim'
p3045
aS'sulmeprim pediatric'
p3046
aS'sulphrin'
p3047
aS'sulsoxin'
p3048
aS'sulster'
p3049
aS'sulten-10'
p3050
aS'sultrin'
p3051
aS'sumatriptan succinate'
p3052
aS'sumycin'
p3053
aS'supprelin'
p3054
aS'suprax'
p3055
aS'surital'
p3056
aS'sus-phrine sulfite-free'
p3057
aS'sustaire'
p3058
aS'sustiva'
p3059
aS'symadine'
p3060
aS'symlin'
p3061
aS'symmetrel'
p3062
aS'synacort'
p3063
aS'synalar-hp'
p3064
aS'synalgos-dc-a'
p3065
aS'syncurine'
p3066
aS'synercid'
p3067
aS'synkayvite'
p3068
aS'synophylate'
p3069
aS'synovalyte in plastic container'
p3070
aS'synthetic conjugated estrogens a'
p3071
aS'syntocinon'
p3072
aS't-phyl'
p3073
aS't-stat'
p3074
aS'tacaryl'
p3075
aS'tace'
p3076
aS'tacrolimus'
p3077
aS'tagamet'
p3078
aS'tagamet hb'
p3079
aS'tagamet hb 200'
p3080
aS'tagamet hydrochloride in sodium chloride 0.9% in plastic container'
p3081
aS'talacen'
p3082
aS'talwin 50'
p3083
aS'talwin compound'
p3084
aS'talwin nx'
p3085
aS'tambocor'
p3086
aS'tamiflu'
p3087
aS'tamoxifen citrate'
p3088
aS'tandearil'
p3089
aS'tao'
p3090
aS'tapazole'
p3091
aS'taractan'
p3092
aS'targiniq'
p3093
aS'tasmar'
p3094
aS'tatum-t'
p3095
aS'tavist'
p3096
aS'tavist allergy/sinus/headache'
p3097
aS'tavist-1'
p3098
aS'taxotere'
p3099
aS'tazidime'
p3100
aS'tazidime in plastic container'
p3101
aS'tc 99m-lungaggregate'
p3102
aS'technecoll'
p3103
aS'technelite'
p3104
aS'technescan gluceptate'
p3105
aS'technescan hida'
p3106
aS'technescan maa'
p3107
aS'technetium tc 99m diphosphonate-tin kit'
p3108
aS'technetium tc 99m generator'
p3109
aS'technetium tc 99m hsa'
p3110
aS'technetium tc 99m maa'
p3111
aS'technetium tc 99m mpi mdp'
p3112
aS'technetium tc 99m sulfur colloid'
p3113
aS'technetium tc 99m tsc'
p3114
aS'technetium tc-99m pentetate kit'
p3115
aS'teczem'
p3116
aS'teebacin'
p3117
aS'tegison'
p3118
aS'tegopen'
p3119
aS'teldrin'
p3120
aS'telepaque'
p3121
aS'temaril'
p3122
aS'temaz'
p3123
aS'temazepam'
p3124
aS'temovate'
p3125
aS'ten-k'
p3126
aS'tenathan'
p3127
aS'tencon'
p3128
aS'tenex'
p3129
aS'tenormin'
p3130
aS'tensilon'
p3131
aS'tensilon preservative free'
p3132
aS'tenuate'
p3133
aS'tepanil'
p3134
aS'tepanil ten-tab'
p3135
aS'terazosin hydrochloride'
p3136
aS'terbinafine hydrochloride'
p3137
aS'terbutaline sulfate'
p3138
aS'terconazole'
p3139
aS'terfonyl'
p3140
aS'teril'
p3141
aS'terra-cortril'
p3142
aS'terramycin'
p3143
aS'terramycin w/ polymyxin'
p3144
aS'terramycin-polymyxin'
p3145
aS'teslac'
p3146
aS'teslascan'
p3147
aS'tessalon'
p3148
aS'testoderm'
p3149
aS'testoderm tts'
p3150
aS'testosterone'
p3151
aS'testosterone cypionate'
p3152
aS'testosterone cypionate-estradiol cypionate'
p3153
aS'testosterone enanthate'
p3154
aS'testosterone enanthate and estradiol valerate'
p3155
aS'testosterone propionate'
p3156
aS'tesuloid'
p3157
aS'tetrachel'
p3158
aS'tetracycline hydrochloride'
p3159
aS'tetracyn'
p3160
aS'tetramed'
p3161
aS'tetrex'
p3162
aS'teveten'
p3163
aS'texacort'
p3164
aS'thalitone'
p3165
aS'thallous chloride tl 201'
p3166
aS'tham-e'
p3167
aS'theelin'
p3168
aS'theo-dur'
p3169
aS'theobid'
p3170
aS'theobid jr.'
p3171
aS'theochron'
p3172
aS'theoclear l.a.-130'
p3173
aS'theoclear l.a.-260'
p3174
aS'theoclear-100'
p3175
aS'theoclear-200'
p3176
aS'theoclear-80'
p3177
aS'theolair'
p3178
aS'theolair-sr'
p3179
aS'theolixir'
p3180
aS'theophyl'
p3181
aS'theophyl-225'
p3182
aS'theophyl-sr'
p3183
aS'theophylline'
p3184
aS'theophylline 0.04% and dextrose 5% in plastic container'
p3185
aS'theophylline 0.08% and dextrose 5% in plastic container'
p3186
aS'theophylline 0.16% and dextrose 5% in plastic container'
p3187
aS'theophylline 0.2% and dextrose 5% in plastic container'
p3188
aS'theophylline 0.4% and dextrose 5% in plastic container'
p3189
aS'theophylline and dextrose 5% in plastic container'
p3190
aS'theophylline in dextrose 5% in plastic container'
p3191
aS'theophylline-sr'
p3192
aS'theovent'
p3193
aS'thiamine hydrochloride'
p3194
aS'thioplex'
p3195
aS'thioridazine hydrochloride'
p3196
aS'thioridazine hydrochloride intensol'
p3197
aS'thiosulfil'
p3198
aS'thiotepa'
p3199
aS'thiothixene'
p3200
aS'thiothixene hydrochloride'
p3201
aS'thiothixene hydrochloride intensol'
p3202
aS'thorazine'
p3203
aS'thypinone'
p3204
aS'thyrel trh'
p3205
aS'thyro-block'
p3206
aS'thyroglobulin'
p3207
aS'thyrolar-5'
p3208
aS'thytropar'
p3209
aS'tiamate'
p3210
aS'ticar'
p3211
aS'ticlid'
p3212
aS'ticlopidine hydrochloride'
p3213
aS'tilade'
p3214
aS'timolide 10-25'
p3215
aS'timolol maleate'
p3216
aS'tindal'
p3217
aS'tizanidine hydrochloride'
p3218
aS'tobramycin'
p3219
aS'tobramycin sulfate'
p3220
aS'tobrasone'
p3221
aS'tofranil'
p3222
aS'tolazamide'
p3223
aS'tolbutamide'
p3224
aS'tolectin'
p3225
aS'tolectin 600'
p3226
aS'tolectin ds'
p3227
aS'tolinase'
p3228
aS'tolmetin sodium'
p3229
aS'tonocard'
p3230
aS'topamax'
p3231
aS'topamax sprinkle'
p3232
aS'topicort'
p3233
aS'topicort lp'
p3234
aS'topicycline'
p3235
aS'topiramate'
p3236
aS'toposar'
p3237
aS'topotecan'
p3238
aS'topotecan hydrochloride'
p3239
aS'tora'
p3240
aS'toradol'
p3241
aS'torecan'
p3242
aS'tornalate'
p3243
aS'torsemide'
p3244
aS'totacillin'
p3245
aS'totacillin-n'
p3246
aS'tovalt odt'
p3247
aS'tpn'
p3248
aS'tpn electrolytes in plastic container'
p3249
aS'tracrium'
p3250
aS'tracrium preservative free'
p3251
aS'tral'
p3252
aS'tramadol hydrochloride'
p3253
aS'tramadol hydrochloride and acetaminophen'
p3254
aS'trancopal'
p3255
aS'trandate'
p3256
aS'trandate hct'
p3257
aS'trandolapril'
p3258
aS'tranmep'
p3259
aS'transderm-nitro'
p3260
aS'tranxene'
p3261
aS'tranxene sd'
p3262
aS'trasicor'
p3263
aS'trasylol'
p3264
aS'travamulsion 10%'
p3265
aS'travamulsion 20%'
p3266
aS'travase'
p3267
aS'travasol 10% w/o electrolytes'
p3268
aS'travasol 2.75% in dextrose 10% in plastic container'
p3269
aS'travasol 2.75% in dextrose 15% in plastic container'
p3270
aS'travasol 2.75% in dextrose 20% in plastic container'
p3271
aS'travasol 2.75% in dextrose 25% in plastic container'
p3272
aS'travasol 2.75% in dextrose 5% in plastic container'
p3273
aS'travasol 2.75% sulfite free w/ electrolytes in dextrose 10% in plastic container'
p3274
aS'travasol 2.75% sulfite free w/ electrolytes in dextrose 15% in plastic container'
p3275
aS'travasol 2.75% sulfite free w/ electrolytes in dextrose 20% in plastic container'
p3276
aS'travasol 2.75% sulfite free w/ electrolytes in dextrose 25% in plastic container'
p3277
aS'travasol 2.75% sulfite free w/ electrolytes in dextrose 5% in plastic container'
p3278
aS'travasol 3.5% sulfite free w/ electrolytes in plastic container'
p3279
aS'travasol 3.5% w/ electrolytes'
p3280
aS'travasol 4.25% in dextrose 10% in plastic container'
p3281
aS'travasol 4.25% in dextrose 15% in plastic container'
p3282
aS'travasol 4.25% in dextrose 20% in plastic container'
p3283
aS'travasol 4.25% in dextrose 25% in plastic container'
p3284
aS'travasol 4.25% in dextrose 5% in plastic container'
p3285
aS'travasol 4.25% sulfite free w/ electrolytes in dextrose 10% in plastic container'
p3286
aS'travasol 4.25% sulfite free w/ electrolytes in dextrose 15% in plastic container'
p3287
aS'travasol 4.25% sulfite free w/ electrolytes in dextrose 20% in plastic container'
p3288
aS'travasol 4.25% sulfite free w/ electrolytes in dextrose 25% in plastic container'
p3289
aS'travasol 4.25% sulfite free w/ electrolytes in dextrose 5% in plastic container'
p3290
aS'travasol 5.5% w/ electrolytes'
p3291
aS'travasol 5.5% w/o electrolytes'
p3292
aS'travasol 8.5% w/ electrolytes'
p3293
aS'travasol 8.5% w/o electrolytes'
p3294
aS'travatan'
p3295
aS'travert 10% in plastic container'
p3296
aS'trazodone hydrochloride'
p3297
aS'tremin'
p3298
aS'trental'
p3299
aS'trest'
p3300
aS'tretinoin'
p3301
aS'tri lo sprintec'
p3302
aS'tri-norinyl 21-day'
p3303
aS'triacet'
p3304
aS'triacort'
p3305
aS'triad'
p3306
aS'trialodine'
p3307
aS'triamcinolone'
p3308
aS'triamcinolone acetonide'
p3309
aS'triamcinolone diacetate'
p3310
aS'triaminic-12'
p3311
aS'triamterene and hydrochlorothiazide'
p3312
aS'triaprin'
p3313
aS'triatex'
p3314
aS'triavil 2-10'
p3315
aS'triavil 2-25'
p3316
aS'triavil 4-10'
p3317
aS'triavil 4-25'
p3318
aS'triavil 4-50'
p3319
aS'triazolam'
p3320
aS'trichlorex'
p3321
aS'trichlormas'
p3322
aS'trichlormethiazide'
p3323
aS'trichlormethiazide w/ reserpine'
p3324
aS'triclos'
p3325
aS'tricor'
p3326
aS'tricor (micronized)'
p3327
aS'tridesilon'
p3328
aS'tridil'
p3329
aS'tridione'
p3330
aS'trifluoperazine hydrochloride'
p3331
aS'triglide'
p3332
aS'trihexyphenidyl hydrochloride'
p3333
aS'trilafon'
p3334
aS'trilitron'
p3335
aS'trimeprazine tartrate'
p3336
aS'trimeth/sulfa'
p3337
aS'trimethobenzamide hydrochloride'
p3338
aS'trimethoprim'
p3339
aS'trimipramine maleate'
p3340
aS'trimox'
p3341
aS'trimpex'
p3342
aS'trimpex 200'
p3343
aS'trinalin'
p3344
aS'tripelennamine hydrochloride'
p3345
aS'triphasil-21'
p3346
aS'triphasil-28'
p3347
aS'triphed'
p3348
aS'triple sulfa'
p3349
aS'triple sulfas'
p3350
aS'triple sulfoid'
p3351
aS'triprolidine and pseudoephedrine'
p3352
aS'triprolidine and pseudoephedrine hydrochlorides'
p3353
aS'triprolidine and pseudoephedrine hydrochlorides w/ codeine'
p3354
aS'triprolidine hcl, pseudoephedrine hcl and codeine phosphate'
p3355
aS'triprolidine hydrochloride'
p3356
aS'triprolidine hydrochloride and pseudoephedrine hydrochloride'
p3357
aS'trisoralen'
p3358
aS'tritec'
p3359
aS'trivaris'
p3360
aS'trivora-21'
p3361
aS'trobicin'
p3362
aS'tropicamide'
p3363
aS'trovan'
p3364
aS'trovan preservative free'
p3365
aS'trovan/zithromax compliance pak'
p3366
aS'truphylline'
p3367
aS'trymex'
p3368
aS'trysul'
p3369
aS'tubocurarine chloride'
p3370
aS'turgex'
p3371
aS'tycolet'
p3372
aS'tylenol'
p3373
aS'tylenol w/ codeine'
p3374
aS'tylenol w/ codeine no. 1'
p3375
aS'tylenol w/ codeine no. 2'
p3376
aS'tylenol w/ codeine no. 3'
p3377
aS'tylenol w/ codeine no. 4'
p3378
aS'tylox'
p3379
aS'tylox-325'
p3380
aS'tymtran'
p3381
aS'tyzeka'
p3382
aS'tz-3'
p3383
aS'u-gencin'
p3384
aS'ucephan'
p3385
aS'ulo'
p3386
aS'ultra-technekow fm'
p3387
aS'ultracef'
p3388
aS'ultragris-165'
p3389
aS'ultragris-330'
p3390
aS'ultralente'
p3391
aS'ultralente insulin'
p3392
aS'ultram'
p3393
aS'unasyn'
p3394
aS'uni-dur'
p3395
aS'unipen'
p3396
aS'unipen in plastic container'
p3397
aS'unipres'
p3398
aS'unisom'
p3399
aS'unitensen'
p3400
aS'uracil mustard'
p3401
aS'ureaphil'
p3402
aS'urecholine'
p3403
aS'urese'
p3404
aS'urispas'
p3405
aS'urobak'
p3406
aS'urologic g in plastic container'
p3407
aS'uroplus ds'
p3408
aS'uroplus ss'
p3409
aS'urovist cysto'
p3410
aS'urovist cysto pediatric'
p3411
aS'urovist meglumine diu/ct'
p3412
aS'urovist sodium 300'
p3413
aS'ursodiol'
p3414
aS'uticillin vk'
p3415
aS'uticort'
p3416
aS'utimox'
p3417
aS'v-cillin'
p3418
aS'v-cillin k'
p3419
aS'vagifem'
p3420
aS'vagilia'
p3421
aS'valisone'
p3422
aS'valium'
p3423
aS'valmid'
p3424
aS'valpin 50'
p3425
aS'valproic acid'
p3426
aS'valrelease'
p3427
aS'valturna'
p3428
aS'vancenase'
p3429
aS'vancenase aq'
p3430
aS'vanceril'
p3431
aS'vanceril double strength'
p3432
aS'vancocin hydrochloride'
p3433
aS'vancoled'
p3434
aS'vancomycin hydrochloride'
p3435
aS'vancor'
p3436
aS'vanobid'
p3437
aS'vansil'
p3438
aS'vantin'
p3439
aS'vapo-iso'
p3440
aS'vaprisol'
p3441
aS'vascor'
p3442
aS'vascoray'
p3443
aS'vasocidin'
p3444
aS'vasocon'
p3445
aS'vasocon-a'
p3446
aS'vasotec'
p3447
aS'vasoxyl'
p3448
aS'vecuronium bromide'
p3449
aS'veetids'
p3450
aS"veetids '125'"
p3451
aS"veetids '250'"
p3452
aS"veetids '500'"
p3453
aS'veinamine 8%'
p3454
aS'velban'
p3455
aS'velosef'
p3456
aS"velosef '125'"
p3457
aS"velosef '250'"
p3458
aS"velosef '500'"
p3459
aS'velosulin'
p3460
aS'velosulin br'
p3461
aS'velosulin br human'
p3462
aS'venlafaxine hydrochloride'
p3463
aS'venofer'
p3464
aS'ventaire'
p3465
aS'ventavis'
p3466
aS'ventolin'
p3467
aS'ventolin rotacaps'
p3468
aS'vepesid'
p3469
aS'verapamil hydrochloride'
p3470
aS'vercyte'
p3471
aS'veriloid'
p3472
aS'vermidol'
p3473
aS'vermox'
p3474
aS'versapen'
p3475
aS'versapen-k'
p3476
aS'versed'
p3477
aS'vertavis'
p3478
aS'vesanoid'
p3479
aS'vesprin'
p3480
aS'vi-dom-a'
p3481
aS'vi-twel'
p3482
aS'viadur'
p3483
aS'vibra-tabs'
p3484
aS'vibramycin'
p3485
aS'vicks formula 44'
p3486
aS'vicodin'
p3487
aS'vicodin es'
p3488
aS'vicodin hp'
p3489
aS'vicoprin'
p3490
aS'videx'
p3491
aS'vinblastine sulfate'
p3492
aS'vincasar pfs'
p3493
aS'vincrex'
p3494
aS'vincristine sulfate'
p3495
aS'vinorelbine tartrate'
p3496
aS'viocin sulfate'
p3497
aS'vioxx'
p3498
aS'vira-a'
p3499
aS'virac rex'
p3500
aS'viracept'
p3501
aS'virilon'
p3502
aS'visicol'
p3503
aS'viskazide'
p3504
aS'visken'
p3505
aS'vistaril'
p3506
aS'vitamin a'
p3507
aS'vitamin a palmitate'
p3508
aS'vitamin a solubilized'
p3509
aS'vitamin d'
p3510
aS'vitamin k1'
p3511
aS'vitaped'
p3512
aS'vitrase'
p3513
aS'vitrasert'
p3514
aS'vitravene preservative free'
p3515
aS'vivactil'
p3516
aS'vivelle'
p3517
aS'volmax'
p3518
aS'voltaren'
p3519
aS'vontrol'
p3520
aS'vpriv'
p3521
aS'wampocap'
p3522
aS'warfarin sodium'
p3523
aS'welchol'
p3524
aS'wellbutrin'
p3525
aS'wellbutrin sr'
p3526
aS'wellcovorin'
p3527
aS'westadone'
p3528
aS'westcort'
p3529
aS'wigraine'
p3530
aS'wigrettes'
p3531
aS'wilpo'
p3532
aS'winstrol'
p3533
aS'wolfina'
p3534
aS'wyamine sulfate'
p3535
aS'wyamycin e'
p3536
aS'wyamycin s'
p3537
aS'wydase'
p3538
aS'wygesic'
p3539
aS'wymox'
p3540
aS'wytensin'
p3541
aS'x-trozine'
p3542
aS'x-trozine l.a.'
p3543
aS'xeneisol'
p3544
aS'xenon xe 127'
p3545
aS'xenon xe 133'
p3546
aS'xenon xe 133-v.s.s.'
p3547
aS'xibrom'
p3548
aS'ximino'
p3549
aS'xylo-pfan'
p3550
aS'xylocaine'
p3551
aS'xylocaine 1.5% w/ dextrose 7.5%'
p3552
aS'xylocaine 5% w/ glucose 7.5%'
p3553
aS'xylocaine dental'
p3554
aS'xylocaine dental with epinephrine'
p3555
aS'xylocaine preservative free'
p3556
aS'xylocaine w/ epinephrine'
p3557
aS'xylose'
p3558
aS'ytterbium yb 169 dtpa'
p3559
aS'yutopar'
p3560
aS'zagam'
p3561
aS'zaleplon'
p3562
aS'zanaflex'
p3563
aS'zantac 150'
p3564
aS'zantac 25'
p3565
aS'zantac 300'
p3566
aS'zantac 75'
p3567
aS'zantac in plastic container'
p3568
aS'zaxopam'
p3569
aS'zefazone'
p3570
aS'zefazone in plastic container'
p3571
aS'zegerid'
p3572
aS'zelnorm'
p3573
aS'zemuron'
p3574
aS'zerit'
p3575
aS'zerit xr'
p3576
aS'ziba-rx'
p3577
aS'zide'
p3578
aS'zidovudine'
p3579
aS'zinacef in plastic container'
p3580
aS'zinc bacitracin,neomycin sulfate,polymyxin b sulfate & hydrocortisone'
p3581
aS'zinc sulfate'
p3582
aS'zipan-25'
p3583
aS'zipan-50'
p3584
aS'zithromax'
p3585
aS'zofran and dextrose in plastic container'
p3586
aS'zoloft'
p3587
aS'zolpidem tartrate'
p3588
aS'zolyse'
p3589
aS'zometa'
p3590
aS'zonisamide'
p3591
aS'zorbtive'
p3592
aS'zovia 1/35e-21'
p3593
aS'zovia 1/50e-21'
p3594
aS'zovirax'
p3595
aS'zyban'
p3596
aS'zydone'
p3597
aS'zyflo'
p3598
aS'zyvox'
p3599
a.