(lp0
S'abreva'
p1
aS'acephen'
p2
aS'acetaminophen'
p3
aS'acetaminophen, aspirin and caffeine'
p4
aS'advil'
p5
aS'advil allergy and congestion relief'
p6
aS'advil allergy sinus'
p7
aS'advil cold and sinus'
p8
aS'advil congestion relief'
p9
aS'advil liqui-gels'
p10
aS'advil migraine liqui-gels'
p11
aS'advil pm'
p12
aS'afrinol'
p13
aS'alavert'
p14
aS'alaway'
p15
aS'aleve'
p16
aS'aleve pm'
p17
aS'aleve-d sinus & cold'
p18
aS'allegra allergy'
p19
aS'allegra hives'
p20
aS'allegra-d 12 hour allergy and congestion'
p21
aS'allegra-d 24 hour allergy and congestion'
p22
aS'alli'
p23
aS'anthelios 20'
p24
aS'anthelios 40'
p25
aS'anthelios sx'
p26
aS'aspirin'
p27
aS'avagard'
p28
aS'axid ar'
p29
aS'bioscrub'
p30
aS'brian care'
p31
aS'broncho saline'
p32
aS'calcium carbonate, famotidine and magnesium hydroxide'
p33
aS'capital soleil 15'
p34
aS'cetirizine hydrochloride allergy'
p35
aS'cetirizine hydrochloride and pseudoephedrine hydrochloride'
p36
aS'cetirizine hydrochloride hives'
p37
aS'cetirizine hydrochloride hives relief'
p38
aS'chg scrub'
p39
aS"children's advil"
p40
aS"children's advil allergy sinus"
p41
aS"children's advil cold"
p42
aS"children's advil-flavored"
p43
aS"children's allegra allergy"
p44
aS"children's allegra hives"
p45
aS"children's cetirizine hydrochloride allergy"
p46
aS"children's cetirizine hydrochloride hives relief"
p47
aS"children's claritin"
p48
aS"children's elixsure"
p49
aS"children's fexofenadine hydrochloride allergy"
p50
aS"children's fexofenadine hydrochloride hives"
p51
aS"children's ibuprofen"
p52
aS"children's motrin"
p53
aS"children's motrin cold"
p54
aS"children's zyrtec allergy"
p55
aS"children's zyrtec hives relief"
p56
aS'chlor-trimeton'
p57
aS'chloraprep one-step'
p58
aS'chloraprep one-step frepp'
p59
aS'chloraprep one-step sepp'
p60
aS'chloraprep single swabstick'
p61
aS'chloraprep triple swabstick'
p62
aS'chloraprep with tint'
p63
aS'chlorhexidine gluconate'
p64
aS'chlorpheniramine maleate'
p65
aS'cida-stat'
p66
aS'cimetidine'
p67
aS'claritin'
p68
aS'claritin hives relief'
p69
aS'claritin hives relief reditab'
p70
aS'claritin reditabs'
p71
aS'claritin-d'
p72
aS'claritin-d 24 hour'
p73
aS'clemastine fumarate'
p74
aS'clotrimazole'
p75
aS'colgate total'
p76
aS'commit'
p77
aS'cromolyn sodium'
p78
aS'delsym'
p79
aS'dexbrompheniramine maleate and pseudoephedrine sulfate'
p80
aS'dextromethorphan polistirex'
p81
aS'doxylamine succinate'
p82
aS'duraprep'
p83
aS'dyna-hex'
p84
aS'e-z scrub 201'
p85
aS'e-z scrub 241'
p86
aS'excedrin (migraine)'
p87
aS'exidine'
p88
aS'fallback solo'
p89
aS'famotidine'
p90
aS'femstat 3'
p91
aS'fexofenadine hydrochloride allergy'
p92
aS'fexofenadine hydrochloride and pseudoephedrine hydrochloride'
p93
aS'fexofenadine hydrochloride hives'
p94
aS'flonase allergy relief'
p95
aS'foamcoat'
p96
aS'gaviscon'
p97
aS'glycolax'
p98
aS'guaifenesin'
p99
aS'gyne-lotrimin'
p100
aS'gyne-lotrimin 3'
p101
aS'gyne-lotrimin 3 combination pack'
p102
aS'gyne-lotrimin combination pack'
p103
aS'habitrol'
p104
aS'hibiclens'
p105
aS'hibistat'
p106
aS'humulin 70/30'
p107
aS'humulin 70/30 pen'
p108
aS'humulin n'
p109
aS'humulin r'
p110
aS'humulin r pen'
p111
aS'ibu-tab 200'
p112
aS'ibuprofen'
p113
aS'ibuprofen and diphenhydramine citrate'
p114
aS'ibuprofen and diphenhydramine hydrochloride'
p115
aS'ibuprofen and phenylephrine hydrochloride'
p116
aS'ibuprofen and pseudoephedrine hydrochloride'
p117
aS'ibuprohm'
p118
aS'ibuprohm cold and sinus'
p119
aS'imodium a-d'
p120
aS'imodium a-d ez chews'
p121
aS'imodium multi-symptom relief'
p122
aS"infants' feverall"
p123
aS'iosat'
p124
aS'ivy block'
p125
aS'junior strength advil'
p126
aS'junior strength ibuprofen'
p127
aS'junior strength motrin'
p128
aS'ketotifen fumarate'
p129
aS'lamisil'
p130
aS'lamisil at'
p131
aS'lansoprazole'
p132
aS'levonorgestrel'
p133
aS'loperamide hydrochloride'
p134
aS'loperamide hydrochloride and simethicone'
p135
aS'loratadine'
p136
aS'loratadine and pseudoephedrine sulfate'
p137
aS'loratadine redidose'
p138
aS'lotrimin ultra'
p139
aS'm-zole 3 combination pack'
p140
aS"men's rogaine"
p141
aS'miconazole 3'
p142
aS'miconazole 3 combination pack'
p143
aS'miconazole 7'
p144
aS'miconazole 7 combination pack'
p145
aS'miconazole nitrate'
p146
aS'miconazole nitrate combination pack'
p147
aS'midol liquid gels'
p148
aS'minoxidil'
p149
aS'minoxidil (for men)'
p150
aS'minoxidil (for women)'
p151
aS'minoxidil extra strength (for men)'
p152
aS'miralax'
p153
aS'monistat 1 combination pack'
p154
aS'monistat 3'
p155
aS'monistat 3 combination pack'
p156
aS'monistat 3 combination pack (prefilled)'
p157
aS'monistat 7'
p158
aS'monistat 7 combination pack'
p159
aS'monistat-3 combination pack'
p160
aS'motrin ib'
p161
aS'motrin migraine pain'
p162
aS'mucinex'
p163
aS'mucinex d'
p164
aS'mucinex dm'
p165
aS'mycelex-7'
p166
aS'mycelex-7 combination pack'
p167
aS'naphazoline hydrochloride and pheniramine maleate'
p168
aS'naphcon-a'
p169
aS'naproxen sodium'
p170
aS'naproxen sodium and pseudoephedrine hydrochloride'
p171
aS'nasacort allergy 24 hour'
p172
aS'neopap'
p173
aS'nexium 24hr'
p174
aS'nicoderm cq'
p175
aS'nicorette'
p176
aS'nicorette (mint)'
p177
aS'nicotine'
p178
aS'nicotine polacrilex'
p179
aS'nix'
p180
aS'nizoral a-d'
p181
aS'novolin 70/30'
p182
aS'novolin n'
p183
aS'novolin r'
p184
aS'ocuclear'
p185
aS'omeprazole'
p186
aS'omeprazole magnesium'
p187
aS'opcicon one-step'
p188
aS'opcon-a'
p189
aS'oxytrol for women'
p190
aS'pediatric advil'
p191
aS'pepcid ac'
p192
aS'pepcid ac '
p193
aS'pepcid complete'
p194
aS'permethrin'
p195
aS'pharmaseal scrub care'
p196
aS'plan b'
p197
aS'plan b one-step'
p198
aS'polyethylene glycol 3350'
p199
aS'povidone iodine'
p200
aS'prevacid 24 hr'
p201
aS'prevantics maxi swabstick'
p202
aS'prevantics swab'
p203
aS'prevantics swabstick'
p204
aS'prilosec otc'
p205
aS'profen'
p206
aS'pseudoephedrine hydrochloride'
p207
aS'pur-wash'
p208
aS'ranitidine hydrochloride'
p209
aS'rhinocort allergy'
p210
aS'rogaine (for men)'
p211
aS'rogaine (for women)'
p212
aS'rogaine extra strength (for men)'
p213
aS'salonpas'
p214
aS'shade uvaguard'
p215
aS'sine-aid ib'
p216
aS'sudafed 12 hour'
p217
aS'sudafed 24 hour'
p218
aS'tab-profen'
p219
aS'tagamet hb'
p220
aS'tavist-1'
p221
aS'terbinafine hydrochloride'
p222
aS'theroxidil'
p223
aS'thrive'
p224
aS'thyrosafe'
p225
aS'thyroshield'
p226
aS'tioconazole'
p227
aS'today'
p228
aS'trivagizole 3'
p229
aS'tylenol '
p230
aS'unisom'
p231
aS'vagistat-1'
p232
aS'visine l.r.'
p233
aS'visine-a'
p234
aS"women's rogaine"
p235
aS'zaditor'
p236
aS'zantac 150'
p237
aS'zantac 75'
p238
aS'zegerid otc'
p239
aS'zyrtec allergy'
p240
aS'zyrtec hives relief'
p241
aS'zyrtec-d 12 hour'
p242
a.