(lp0
S'8-mop'
p1
aS'a-hydrocort'
p2
aS'a-methapred'
p3
aS'abacavir sulfate'
p4
aS'abacavir sulfate, lamivudine and zidovudine'
p5
aS'abelcet'
p6
aS'abilify'
p7
aS'abilify maintena kit'
p8
aS'ablavar'
p9
aS'abraxane'
p10
aS'absorica'
p11
aS'abstral'
p12
aS'acamprosate calcium'
p13
aS'acanya'
p14
aS'acarbose'
p15
aS'accolate'
p16
aS'accuneb'
p17
aS'accupril'
p18
aS'accuretic'
p19
aS'acebutolol hydrochloride'
p20
aS'aceon'
p21
aS'acetadote'
p22
aS'acetaminophen and codeine phosphate'
p23
aS'acetasol hc'
p24
aS'acetazolamide'
p25
aS'acetazolamide sodium'
p26
aS'acetazolamide sodium '
p27
aS'acetic acid'
p28
aS'acetic acid 0.25% in plastic container'
p29
aS'acetic acid 2% in aqueous aluminum acetate'
p30
aS'acetylcysteine'
p31
aS'achromycin v'
p32
aS'aciphex'
p33
aS'aciphex sprinkle'
p34
aS'acitretin'
p35
aS'acova'
p36
aS'acthrel'
p37
aS'acticlate'
p38
aS'actigall'
p39
aS'actiq'
p40
aS'activella'
p41
aS'actonel'
p42
aS'actoplus met'
p43
aS'actoplus met xr'
p44
aS'actos'
p45
aS'acular'
p46
aS'acular ls'
p47
aS'acuvail'
p48
aS'acyclovir'
p49
aS'acyclovir in sodium chloride 0.9% preservative free'
p50
aS'acyclovir sodium'
p51
aS'aczone'
p52
aS'adagen'
p53
aS'adalat cc'
p54
aS'adapalene'
p55
aS'adasuve'
p56
aS'adcirca'
p57
aS'adderall xr 10'
p58
aS'adderall xr 15'
p59
aS'adderall xr 20'
p60
aS'adderall xr 25'
p61
aS'adderall xr 30'
p62
aS'adderall xr 5'
p63
aS'adefovir dipivoxil'
p64
aS'adempas'
p65
aS'adenocard'
p66
aS'adenoscan'
p67
aS'adenosine'
p68
aS'adipex-p'
p69
aS'adrenaclick'
p70
aS'adrenalin'
p71
aS'adreview'
p72
aS'advair diskus 100/50'
p73
aS'advair diskus 250/50'
p74
aS'advair diskus 500/50'
p75
aS'advair hfa'
p76
aS'advicor'
p77
aS'aerospan hfa'
p78
aS'afeditab cr'
p79
aS'afinitor'
p80
aS'afinitor disperz'
p81
aS'afrezza'
p82
aS'aggrastat'
p83
aS'aggrenox'
p84
aS'agrylin'
p85
aS'ak-fluor 10%'
p86
aS'ak-fluor 25%'
p87
aS'akbeta'
p88
aS'akineton'
p89
aS'akne-mycin'
p90
aS'akpentolate'
p91
aS'akten'
p92
aS'aktob'
p93
aS'akynzeo'
p94
aS'ala-cort'
p95
aS'ala-scalp'
p96
aS'albenza'
p97
aS'albuterol sulfate'
p98
aS'albuterol sulfate and ipratropium bromide'
p99
aS'alcaine'
p100
aS'alclometasone dipropionate'
p101
aS'alcohol 10% and dextrose 5%'
p102
aS'alcohol 5% and dextrose 5%'
p103
aS'aldactazide'
p104
aS'aldactone'
p105
aS'aldara'
p106
aS'alendronate sodium'
p107
aS'alfenta'
p108
aS'alfentanil'
p109
aS'alfuzosin hydrochloride'
p110
aS'alimta'
p111
aS'alinia'
p112
aS'alkeran'
p113
aS'allegra'
p114
aS'allopurinol'
p115
aS'allopurinol sodium'
p116
aS'alocril'
p117
aS'alomide'
p118
aS'aloprim'
p119
aS'alora'
p120
aS'alosetron hydrochloride'
p121
aS'aloxi'
p122
aS'alphagan p'
p123
aS'alprazolam'
p124
aS'alprostadil'
p125
aS'alrex'
p126
aS'alsuma'
p127
aS'altabax'
p128
aS'altace'
p129
aS'altavera'
p130
aS'altoprev'
p131
aS'alvesco'
p132
aS'alyacen 1/35'
p133
aS'alyacen 7/7/7'
p134
aS'amantadine hydrochloride'
p135
aS'amaryl'
p136
aS'ambien'
p137
aS'ambien cr'
p138
aS'ambisome'
p139
aS'amcinonide'
p140
aS'amerge'
p141
aS'amicar'
p142
aS'amidate'
p143
aS'amifostine'
p144
aS'amikacin sulfate'
p145
aS'amiloride hydrochloride'
p146
aS'amiloride hydrochloride and hydrochlorothiazide'
p147
aS'amino acids'
p148
aS'aminoacetic acid 1.5% in plastic container'
p149
aS'aminocaproic'
p150
aS'aminocaproic acid'
p151
aS'aminocaproic acid in plastic container'
p152
aS'aminophylline'
p153
aS'aminosyn 10%'
p154
aS'aminosyn 10% (ph6)'
p155
aS'aminosyn 3.5%'
p156
aS'aminosyn 3.5% m'
p157
aS'aminosyn 5%'
p158
aS'aminosyn 7%'
p159
aS'aminosyn 7% (ph6)'
p160
aS'aminosyn 7% w/ electrolytes'
p161
aS'aminosyn 8.5%'
p162
aS'aminosyn 8.5% (ph6)'
p163
aS'aminosyn 8.5% w/ electrolytes'
p164
aS'aminosyn ii 10%'
p165
aS'aminosyn ii 10% in plastic container'
p166
aS'aminosyn ii 10% w/ electrolytes'
p167
aS'aminosyn ii 15% in plastic container'
p168
aS'aminosyn ii 7%'
p169
aS'aminosyn ii 8.5%'
p170
aS'aminosyn ii 8.5% w/ electrolytes'
p171
aS'aminosyn-hbc 7%'
p172
aS'aminosyn-hf 8%'
p173
aS'aminosyn-pf 10%'
p174
aS'aminosyn-pf 7%'
p175
aS'aminosyn-rf 5.2%'
p176
aS'amiodarone hydrochloride'
p177
aS'amitiza'
p178
aS'amitriptyline hydrochloride'
p179
aS'amlodipine besylate'
p180
aS'amlodipine besylate and atorvastatin calcium'
p181
aS'amlodipine besylate and benazepril hydrochloride'
p182
aS'amlodipine besylate and valsartan'
p183
aS'amlodipine,valsartan and hydrochlorothiazide'
p184
aS'ammonia n 13'
p185
aS'ammonium chloride in plastic container'
p186
aS'ammonium lactate'
p187
aS'ammonul'
p188
aS'amnesteem'
p189
aS'amoxapine'
p190
aS'amoxicillin'
p191
aS'amoxicillin and clavulanate potassium'
p192
aS'amoxicillin pediatric'
p193
aS'amoxil'
p194
aS'amphadase'
p195
aS'amphetamine asp amphetamine sulf dextroamphet saccharate & dextr sulf'
p196
aS'amphotec'
p197
aS'amphotericin b'
p198
aS'ampicillin and sulbactam'
p199
aS'ampicillin sodium'
p200
aS'ampicillin trihydrate'
p201
aS'ampyra'
p202
aS'amrinone lactate'
p203
aS'amrix'
p204
aS'amturnide'
p205
aS'amyvid'
p206
aS'an-dtpa'
p207
aS'an-sulfur colloid'
p208
aS'anadrol-50'
p209
aS'anafranil'
p210
aS'anagrelide hydrochloride'
p211
aS'anaprox'
p212
aS'anaprox ds'
p213
aS'anastrozole'
p214
aS'ancef in plastic container'
p215
aS'ancobon'
p216
aS'androderm'
p217
aS'androgel'
p218
aS'android 10'
p219
aS'android 25'
p220
aS'anectine'
p221
aS'anexsia 5/325'
p222
aS'anexsia 7.5/325'
p223
aS'angeliq'
p224
aS'angiomax'
p225
aS'anoro ellipta'
p226
aS'ansaid'
p227
aS'antabuse'
p228
aS'antara (micronized)'
p229
aS'antizol'
p230
aS'anusol hc'
p231
aS'anzemet'
p232
aS'apidra'
p233
aS'apidra solostar'
p234
aS'aplenzin'
p235
aS'apokyn'
p236
aS'apraclonidine hydrochloride'
p237
aS'aprepitant'
p238
aS'apriso'
p239
aS'aptensio xr'
p240
aS'aptiom'
p241
aS'aptivus'
p242
aS'aquasol a'
p243
aS'aralen'
p244
aS'aranelle'
p245
aS'arava'
p246
aS'arcapta neohaler'
p247
aS'arestin'
p248
aS'argatroban'
p249
aS'argatroban in 0.9% sodium chloride'
p250
aS'argatroban in sodium chloride'
p251
aS'aricept'
p252
aS'aricept odt'
p253
aS'arimidex'
p254
aS'aripiprazole'
p255
aS'aristospan'
p256
aS'arixtra'
p257
aS'arnuity ellipta'
p258
aS'aromasin'
p259
aS'arranon'
p260
aS'arthrotec'
p261
aS'articaine hydrochloride and epinephrine bitartrate'
p262
aS'asacol'
p263
aS'asacol hd'
p264
aS'asclera'
p265
aS'ashlyna'
p266
aS'asmanex hfa'
p267
aS'asmanex twisthaler'
p268
aS'aspirin and dipyridamole'
p269
aS'astagraf xl'
p270
aS'astelin'
p271
aS'astepro'
p272
aS'astramorph pf'
p273
aS'atacand'
p274
aS'atacand hct'
p275
aS'atazanavir sulfate'
p276
aS'atelvia'
p277
aS'atenolol'
p278
aS'atenolol and chlorthalidone'
p279
aS'ativan'
p280
aS'atorvastatin calcium'
p281
aS'atovaquone'
p282
aS'atovaquone and proguanil hydrochloride'
p283
aS'atracurium besylate'
p284
aS'atracurium besylate preservative free'
p285
aS'atralin'
p286
aS'atridox'
p287
aS'atripla'
p288
aS'atropen'
p289
aS'atropine sulfate'
p290
aS'atropine sulfate ansyr plastic syringe'
p291
aS'atrovent'
p292
aS'atrovent hfa'
p293
aS'aubagio'
p294
aS"augmentin '125'"
p295
aS"augmentin '200'"
p296
aS"augmentin '250'"
p297
aS"augmentin '400'"
p298
aS"augmentin '500'"
p299
aS"augmentin '875'"
p300
aS'augmentin es-600'
p301
aS'augmentin xr'
p302
aS'auryxia'
p303
aS'auvi-q'
p304
aS'avage'
p305
aS'avalide'
p306
aS'avandamet'
p307
aS'avandaryl'
p308
aS'avandia'
p309
aS'avapro'
p310
aS'avc'
p311
aS'aveed'
p312
aS'avelox'
p313
aS'avelox in sodium chloride 0.8% in plastic container'
p314
aS'aviane-28'
p315
aS'avinza'
p316
aS'avita'
p317
aS'avodart'
p318
aS'avycaz'
p319
aS'axert'
p320
aS'axid'
p321
aS'axiron'
p322
aS'aygestin'
p323
aS'azacitidine'
p324
aS'azactam'
p325
aS'azactam in plastic container'
p326
aS'azasan'
p327
aS'azasite'
p328
aS'azathioprine'
p329
aS'azathioprine sodium'
p330
aS'azelastine hydrochloride'
p331
aS'azelex'
p332
aS'azilect'
p333
aS'azithromycin'
p334
aS'azopt'
p335
aS'azor'
p336
aS'aztreonam'
p337
aS'azulfidine'
p338
aS'azulfidine en-tabs'
p339
aS'baciim'
p340
aS'bacitracin'
p341
aS'bacitracin zinc and polymyxin b sulfate'
p342
aS'bacitracin-neomycin-polymyxin w/ hydrocortisone acetate'
p343
aS'baclofen'
p344
aS'bacteriostatic sodium chloride 0.9% in plastic container'
p345
aS'bacteriostatic water for injection in plastic container'
p346
aS'bactocill in plastic container'
p347
aS'bactrim'
p348
aS'bactrim ds'
p349
aS'bactroban'
p350
aS'bal'
p351
aS'balanced salt'
p352
aS'balsalazide disodium'
p353
aS'balziva-28'
p354
aS'banzel'
p355
aS'baraclude'
p356
aS'beconase aq'
p357
aS'beleodaq'
p358
aS'belsomra'
p359
aS'belviq'
p360
aS'benazepril hydrochloride'
p361
aS'benazepril hydrochloride and hydrochlorothiazide'
p362
aS'benicar'
p363
aS'benicar hct'
p364
aS'bentyl'
p365
aS'bentyl preservative free'
p366
aS'benzaclin'
p367
aS'benzamycin'
p368
aS'benzamycin pak'
p369
aS'benzonatate'
p370
aS'benzphetamine hydrochloride'
p371
aS'benztropine mesylate'
p372
aS'bepreve'
p373
aS'besivance'
p374
aS'beta-val'
p375
aS'betadine'
p376
aS'betagan'
p377
aS'betamethasone acetate and betamethasone sodium phosphate'
p378
aS'betamethasone dipropionate'
p379
aS'betamethasone valerate'
p380
aS'betapace'
p381
aS'betapace af'
p382
aS'betaxolol hydrochloride'
p383
aS'bethanechol chloride'
p384
aS'bethkis'
p385
aS'betimol'
p386
aS'betoptic'
p387
aS'betoptic s'
p388
aS'beyaz'
p389
aS'biaxin'
p390
aS'bicalutamide'
p391
aS'bicillin c-r'
p392
aS'bicillin c-r 900/300'
p393
aS'bicillin l-a'
p394
aS'bicnu'
p395
aS'bidil'
p396
aS'biltricide'
p397
aS'bimatoprost'
p398
aS'binosto'
p399
aS'bisoprolol fumarate'
p400
aS'bisoprolol fumarate and hydrochlorothiazide'
p401
aS'bleomycin sulfate'
p402
aS'bleph-10'
p403
aS'blephamide'
p404
aS'blephamide s.o.p.'
p405
aS'bloxiverz'
p406
aS'boniva'
p407
aS'bontril pdm'
p408
aS'bosulif'
p409
aS'bravelle'
p410
aS'breo ellipta'
p411
aS'bretylium tosylate in dextrose 5% in plastic container'
p412
aS'brevibloc'
p413
aS'brevibloc double strength in plastic container'
p414
aS'brevibloc in plastic container'
p415
aS'brevicon 28-day'
p416
aS'brevital sodium'
p417
aS'briellyn'
p418
aS'brilinta'
p419
aS'brimonidine tartrate'
p420
aS'brintellix'
p421
aS'brisdelle'
p422
aS'bromday'
p423
aS'bromfed-dm'
p424
aS'bromfenac sodium'
p425
aS'bromocriptine mesylate'
p426
aS'brompheniramine maleate, pseudoephedrine hydrochloride and dextromethorphan hydrobromide'
p427
aS'brovana'
p428
aS'bss'
p429
aS'bss plus'
p430
aS'budesonide'
p431
aS'bumetanide'
p432
aS'bunavail'
p433
aS'buphenyl'
p434
aS'bupivacaine hydrochloride'
p435
aS'bupivacaine hydrochloride and epinephrine'
p436
aS'bupivacaine hydrochloride preservative free'
p437
aS'bupivacaine hydrochloride w/epinephrine'
p438
aS'buprenex'
p439
aS'buprenorphine hydrochloride'
p440
aS'buprenorphine hydrochloride and naloxone hydrochloride'
p441
aS'buprenorphine hydrochloride and naloxone hydrochloride '
p442
aS'bupropion hydrochloride'
p443
aS'buspirone hydrochloride'
p444
aS'busulfex'
p445
aS'butalbital and acetaminophen'
p446
aS'butalbital, acetaminophen and caffeine'
p447
aS'butalbital, acetaminophen, caffeine and codeine phosphate'
p448
aS'butalbital, aspirin and caffeine'
p449
aS'butalbital, aspirin, caffeine, and codeine phosphate'
p450
aS'butapap'
p451
aS'butisol sodium'
p452
aS'butoconazole nitrate'
p453
aS'butorphanol tartrate'
p454
aS'butorphanol tartrate preservative free'
p455
aS'butrans'
p456
aS'bydureon'
p457
aS'byetta'
p458
aS'bystolic'
p459
aS'c-solve-2'
p460
aS'cabergoline'
p461
aS'caduet'
p462
aS'cafcit'
p463
aS'cafergot'
p464
aS'caffeine citrate'
p465
aS'calan'
p466
aS'calan sr'
p467
aS'calcijex'
p468
aS'calcipotriene'
p469
aS'calcipotriene and betamethasone dipropionate'
p470
aS'calcitonin-salmon'
p471
aS'calcitriol'
p472
aS'calcium acetate'
p473
aS'calcium chloride 10% in plastic container'
p474
aS'calcium disodium versenate'
p475
aS'caldolor'
p476
aS'cambia'
p477
aS'camila'
p478
aS'campral'
p479
aS'camptosar'
p480
aS'canasa'
p481
aS'cancidas'
p482
aS'candesartan cilexetil'
p483
aS'candesartan cilexetil and hydrochlorothiazide'
p484
aS'cantil'
p485
aS'capastat sulfate'
p486
aS'capecitabine'
p487
aS'capex'
p488
aS'capital and codeine'
p489
aS'capoten'
p490
aS'caprelsa'
p491
aS'captopril'
p492
aS'captopril and hydrochlorothiazide'
p493
aS'carac'
p494
aS'carafate'
p495
aS'carbaglu'
p496
aS'carbamazepine'
p497
aS'carbatrol'
p498
aS'carbidopa'
p499
aS'carbidopa and levodopa'
p500
aS'carbidopa, levodopa and entacapone'
p501
aS'carbinoxamine maleate'
p502
aS'carbocaine'
p503
aS'carboplatin'
p504
aS'cardene'
p505
aS'cardene in 0.83% sodium chloride in plastic container'
p506
aS'cardene in 0.86% sodium chloride in plastic container'
p507
aS'cardene in 4.8% dextrose in plastic container'
p508
aS'cardene in 5.0% dextrose in plastic container'
p509
aS'cardiogen-82'
p510
aS'cardiolite'
p511
aS'cardioplegic in plastic container'
p512
aS'cardizem'
p513
aS'cardizem cd'
p514
aS'cardizem la'
p515
aS'cardura'
p516
aS'cardura xl'
p517
aS'carisoprodol'
p518
aS'carisoprodol and aspirin'
p519
aS'carisoprodol, aspirin and codeine phosphate'
p520
aS'carnitor'
p521
aS'carnitor sf'
p522
aS'carteolol hydrochloride'
p523
aS'cartia xt'
p524
aS'carvedilol'
p525
aS'casodex'
p526
aS'cataflam'
p527
aS'catapres'
p528
aS'catapres-tts-1'
p529
aS'catapres-tts-2'
p530
aS'catapres-tts-3'
p531
aS'caverject'
p532
aS'caverject impulse'
p533
aS'cayston'
p534
aS'cedax'
p535
aS'cefaclor'
p536
aS'cefadroxil'
p537
aS'cefazolin and dextrose'
p538
aS'cefazolin sodium'
p539
aS'cefdinir'
p540
aS'cefepime and dextrose in duplex container'
p541
aS'cefepime hydrochloride'
p542
aS'cefepime in plastic container'
p543
aS'cefixime'
p544
aS'cefotaxime'
p545
aS'cefotaxime sodium'
p546
aS'cefotetan'
p547
aS'cefotetan and dextrose in duplex container'
p548
aS'cefoxitin'
p549
aS'cefoxitin and dextrose in duplex container'
p550
aS'cefpodoxime proxetil'
p551
aS'cefprozil'
p552
aS'ceftazidime'
p553
aS'ceftazidime in dextrose container'
p554
aS'ceftin'
p555
aS'ceftriaxone'
p556
aS'ceftriaxone and dextrose in duplex container'
p557
aS'ceftriaxone in plastic container'
p558
aS'cefuroxime and dextrose in duplex container'
p559
aS'cefuroxime axetil'
p560
aS'cefuroxime sodium'
p561
aS'celebrex'
p562
aS'celecoxib'
p563
aS'celestone soluspan'
p564
aS'celexa'
p565
aS'cellcept'
p566
aS'celontin'
p567
aS'cenestin'
p568
aS'centany'
p569
aS'cephalexin'
p570
aS'cerdelga'
p571
aS'cerebyx'
p572
aS'ceretec'
p573
aS'cerezyme'
p574
aS'cerubidine'
p575
aS'cervidil'
p576
aS'cesamet'
p577
aS'cetamide'
p578
aS'cetirizine hydrochloride'
p579
aS'cetraxal'
p580
aS'cetrotide'
p581
aS'cevimeline'
p582
aS'cevimeline hydrochloride'
p583
aS'chantix'
p584
aS'chemet'
p585
aS'chenodiol'
p586
aS'chirhostim'
p587
aS'chloramphenicol sodium succinate'
p588
aS'chlordiazepoxide and amitriptyline hydrochloride'
p589
aS'chlordiazepoxide hydrochloride'
p590
aS'chlorhexidine gluconate'
p591
aS'chloroprocaine hydrochloride'
p592
aS'chloroquine phosphate'
p593
aS'chlorothiazide'
p594
aS'chlorothiazide sodium'
p595
aS'chlorpromazine hydrochloride'
p596
aS'chlorpropamide'
p597
aS'chlorthalidone'
p598
aS'chlorzoxazone'
p599
aS'cholac'
p600
aS'cholbam'
p601
aS'choledyl sa'
p602
aS'cholestyramine'
p603
aS'cholestyramine light'
p604
aS'choletec'
p605
aS'choline c-11'
p606
aS'cholografin meglumine'
p607
aS'chorionic gonadotropin'
p608
aS'chromic chloride in plastic container'
p609
aS'cialis'
p610
aS'ciclopirox'
p611
aS'cidofovir'
p612
aS'cilostazol'
p613
aS'ciloxan'
p614
aS'cimetidine'
p615
aS'cimetidine hydrochloride'
p616
aS'cipro'
p617
aS'cipro hc'
p618
aS'cipro in dextrose 5% in plastic container'
p619
aS'ciprodex'
p620
aS'ciprofloxacin'
p621
aS'ciprofloxacin extended release'
p622
aS'ciprofloxacin hydrochloride'
p623
aS'ciprofloxacin in dextrose 5% in plastic container'
p624
aS'cis-mdp'
p625
aS'cis-pyro'
p626
aS'cisatracurium besylate'
p627
aS'cisatracurium besylate preservative free'
p628
aS'cisplatin'
p629
aS'citalopram hydrobromide'
p630
aS'citanest forte dental'
p631
aS'cladribine'
p632
aS'claforan'
p633
aS'claforan in dextrose 5% in plastic container'
p634
aS'claravis'
p635
aS'clarinex'
p636
aS'clarinex d 24 hour'
p637
aS'clarinex-d 12 hour'
p638
aS'clarithromycin'
p639
aS'clemastine fumarate'
p640
aS'cleocin'
p641
aS'cleocin hydrochloride'
p642
aS'cleocin phosphate'
p643
aS'cleocin phosphate in dextrose 5% in plastic container'
p644
aS'cleocin t'
p645
aS'cleviprex'
p646
aS'climara'
p647
aS'climara pro'
p648
aS'clinda-derm'
p649
aS'clindagel'
p650
aS'clindamycin hydrochloride'
p651
aS'clindamycin palmitate hydrochloride'
p652
aS'clindamycin phosphate'
p653
aS'clindamycin phosphate and benzoyl peroxide'
p654
aS'clindamycin phosphate in 5% dextrose in plastic container'
p655
aS'clindamycin phosphate in dextrose 5%'
p656
aS'clindesse'
p657
aS'clindets'
p658
aS'clinimix 2.75/10 sulfite free in dextrose 10% in plastic container'
p659
aS'clinimix 2.75/25 sulfite free in dextrose 25% in plastic container'
p660
aS'clinimix 2.75/5 sulfite free in dextrose 5% in plastic container'
p661
aS'clinimix 4.25/10 sulfite free in dextrose 10% in plastic container'
p662
aS'clinimix 4.25/20 sulfite free in dextrose 20% in plastic container'
p663
aS'clinimix 4.25/25 sulfite free in dextrose 25% in plastic container'
p664
aS'clinimix 4.25/5 sulfite free in dextrose 5% in plastic container'
p665
aS'clinimix 5/10 sulfite free in dextrose 10% in plastic container'
p666
aS'clinimix 5/15 sulfite free in dextrose 15% in plastic container'
p667
aS'clinimix 5/20 sulfite free in dextrose 20% in plastic container'
p668
aS'clinimix 5/25 sulfite free in dextrose 25% in plastic container'
p669
aS'clinimix 5/35 sulfite free in dextrose 35% in plastic container'
p670
aS'clinimix e 2.75/10 sulfite-free w/ elect in dextrose 10% w/ calcium in plastic container'
p671
aS'clinimix e 2.75/25 sulfite-free w/ elect in dextrose 25% w/ calcium in plastic container'
p672
aS'clinimix e 2.75/5 sulfite-free w/ elect in dextrose 5% w/ calcium in plastic container'
p673
aS'clinimix e 4.25/10 sulfite-free w/ elect in dextrose 10% w/ calcium in plastic container'
p674
aS'clinimix e 4.25/20 sulfite-free w/ elect in dextrose 20% w/ calcium in plastic container'
p675
aS'clinimix e 4.25/25 sulfite-free w/ elect in dextrose 25% w/ calcium in plastic container'
p676
aS'clinimix e 4.25/5 sulfite-free w/ elect in dextrose 5% w/ calcium in plastic container'
p677
aS'clinimix e 5/10 sulfite-free w/ elect in dextrose 10% w/ calcium in plastic container'
p678
aS'clinimix e 5/15 sulfite-free w/ elect in dextrose 15% w/ calcium in plastic container'
p679
aS'clinimix e 5/20 sulfite-free w/ elect in 20% dextrose w/ calcium in plastic container'
p680
aS'clinimix e 5/25 sulfite-free w/ elect in dextrose 25% w/ calcium in plastic container'
p681
aS'clinimix e 5/35 sulfite-free w/ elect in dextrose 35% w/ calcium in plastic container'
p682
aS'clinisol 15% sulfite free in plastic container'
p683
aS'clinolipid 20%'
p684
aS'clinoril'
p685
aS'clobetasol propionate'
p686
aS'clobetasol propionate (emollient)'
p687
aS'clobex'
p688
aS'cloderm'
p689
aS'clolar'
p690
aS'clomid'
p691
aS'clomiphene citrate'
p692
aS'clomipramine hydrochloride'
p693
aS'clonazepam'
p694
aS'clonidine'
p695
aS'clonidine hydrochloride'
p696
aS'clonidine hydrochloride '
p697
aS'clopidogrel'
p698
aS'clopidogrel bisulfate'
p699
aS'clorazepate dipotassium'
p700
aS'clorpres'
p701
aS'clotrimazole'
p702
aS'clotrimazole and betamethasone dipropionate'
p703
aS'clozapine'
p704
aS'clozaril'
p705
aS'coartem'
p706
aS'codeine sulfate'
p707
aS'cogentin'
p708
aS'col-probenecid'
p709
aS'colazal'
p710
aS'colcrys'
p711
aS'colestid'
p712
aS'colestipol hydrochloride'
p713
aS'colistimethate sodium'
p714
aS'colocort'
p715
aS'coly-mycin m'
p716
aS'coly-mycin s'
p717
aS'colyte'
p718
aS'colyte with flavor packs'
p719
aS'combigan'
p720
aS'combipatch'
p721
aS'combivent'
p722
aS'combivent respimat'
p723
aS'combivir'
p724
aS'cometriq'
p725
aS'complera'
p726
aS'compro'
p727
aS'comtan'
p728
aS'concerta'
p729
aS'condylox'
p730
aS'conray'
p731
aS'conray 30'
p732
aS'conray 43'
p733
aS'constilac'
p734
aS'constulose'
p735
aS'contrave'
p736
aS'conzip'
p737
aS'copaxone'
p738
aS'copegus'
p739
aS'cordarone'
p740
aS'cordran'
p741
aS'cordran sp'
p742
aS'coreg'
p743
aS'coreg cr'
p744
aS'corgard'
p745
aS'corlanor'
p746
aS'corlopam'
p747
aS'cormax'
p748
aS'cortef'
p749
aS'cortenema'
p750
aS'cortifoam'
p751
aS'cortisone acetate'
p752
aS'cortisporin'
p753
aS'cortrosyn'
p754
aS'corvert'
p755
aS'corzide'
p756
aS'cosmegen'
p757
aS'cosopt'
p758
aS'cosopt pf'
p759
aS'cosyntropin'
p760
aS'coumadin'
p761
aS'covera-hs'
p762
aS'cozaar'
p763
aS'creon'
p764
aS'cresemba'
p765
aS'crestor'
p766
aS'crinone'
p767
aS'crixivan'
p768
aS'crolom'
p769
aS'cromolyn sodium'
p770
aS'crotan'
p771
aS'cryselle'
p772
aS'cubicin'
p773
aS'cupric chloride in plastic container'
p774
aS'cuprimine'
p775
aS'curosurf'
p776
aS'cutivate'
p777
aS'cuvposa'
p778
aS'cyanocobalamin'
p779
aS'cyanokit'
p780
aS'cyclafem 1/35'
p781
aS'cyclafem 7/7/7'
p782
aS'cyclessa'
p783
aS'cyclobenzaprine hydrochloride'
p784
aS'cyclogyl'
p785
aS'cyclomydril'
p786
aS'cyclophosphamide'
p787
aS'cycloset'
p788
aS'cyclosporine'
p789
aS'cyklokapron'
p790
aS'cymbalta'
p791
aS'cyproheptadine hydrochloride'
p792
aS'cystadane'
p793
aS'cystagon'
p794
aS'cystaran'
p795
aS'cysto-conray ii'
p796
aS'cystografin'
p797
aS'cystografin dilute'
p798
aS'cysview kit'
p799
aS'cytarabine'
p800
aS'cytomel'
p801
aS'cytosar-u'
p802
aS'cytotec'
p803
aS'cytovene'
p804
aS'cytoxan (lyophilized)'
p805
aS'd.h.e. 45'
p806
aS'dacarbazine'
p807
aS'dacogen'
p808
aS'dactinomycin'
p809
aS'daliresp'
p810
aS'dalvance'
p811
aS'danazol'
p812
aS'dantrium'
p813
aS'dantrolene sodium'
p814
aS'dapsone'
p815
aS'daptomycin'
p816
aS'daraprim'
p817
aS'darifenacin hydrobromide'
p818
aS'dasetta 1/35'
p819
aS'dasetta 7/7/7'
p820
aS'datscan'
p821
aS'daunorubicin hydrochloride'
p822
aS'daunoxome'
p823
aS'daypro'
p824
aS'daysee'
p825
aS'daytrana'
p826
aS'ddavp'
p827
aS'ddavp (needs no refrigeration)'
p828
aS'decitabine'
p829
aS'deferoxamine mesylate'
p830
aS'definity'
p831
aS'delatestryl'
p832
aS'delestrogen'
p833
aS'delflex w/ dextrose 1.5% in plastic container'
p834
aS'delflex w/ dextrose 1.5% low magnesium in plastic container'
p835
aS'delflex w/ dextrose 1.5% low magnesium low calcium in plastic container'
p836
aS'delflex w/ dextrose 2.5% in plastic container'
p837
aS'delflex w/ dextrose 2.5% low magnesium in plastic container'
p838
aS'delflex w/ dextrose 2.5% low magnesium low calcium in plastic container'
p839
aS'delflex w/ dextrose 3.5% in plastic container'
p840
aS'delflex w/ dextrose 4.25% in plastic container'
p841
aS'delflex w/ dextrose 4.25% low magnesium in plastic container'
p842
aS'delflex w/ dextrose 4.25% low magnesium low calcium in plastic container'
p843
aS'delflex-lm w/ dextrose 1.5% in plastic container'
p844
aS'delflex-lm w/ dextrose 2.5% in plastic container'
p845
aS'delflex-lm w/ dextrose 3.5% in plastic container'
p846
aS'delflex-lm w/ dextrose 4.25% in plastic container'
p847
aS'delzicol'
p848
aS'demadex'
p849
aS'demeclocycline hydrochloride'
p850
aS'demerol'
p851
aS'demser'
p852
aS'denavir'
p853
aS'dendrid'
p854
aS'depacon'
p855
aS'depakene'
p856
aS'depakote'
p857
aS'depakote er'
p858
aS'depen'
p859
aS'depo-estradiol'
p860
aS'depo-medrol'
p861
aS'depo-provera'
p862
aS'depo-subq provera 104'
p863
aS'depo-testosterone'
p864
aS'depocyt'
p865
aS'derma-smoothe/fs'
p866
aS'dermabet'
p867
aS'dermatop'
p868
aS'dermatop e emollient'
p869
aS'dermotic'
p870
aS'desferal'
p871
aS'desipramine hydrochloride'
p872
aS'desloratadine'
p873
aS'desloratadine and pseudoephedrine sulfate 24 hour'
p874
aS'desmopressin acetate'
p875
aS'desmopressin acetate (needs no refrigeration)'
p876
aS'desogen'
p877
aS'desogestrel and ethinyl estradiol'
p878
aS'desonate'
p879
aS'desonide'
p880
aS'desowen'
p881
aS'desoximetasone'
p882
aS'desoxyn'
p883
aS'desvenlafaxine'
p884
aS'detrol'
p885
aS'detrol la'
p886
aS'dexamethasone'
p887
aS'dexamethasone intensol'
p888
aS'dexamethasone sodium phosphate'
p889
aS'dexasporin'
p890
aS'dexchlorpheniramine maleate'
p891
aS'dexedrine'
p892
aS'dexferrum'
p893
aS'dexilant'
p894
aS'dexmedetomidine hydrochloride'
p895
aS'dexmethylphenidate hydrochloride'
p896
aS'dexrazoxane hydrochloride'
p897
aS'dextroamp saccharate, amp aspartate, dextroamp sulfate and amp sulfate'
p898
aS'dextroamp saccharate,amp aspartate,dextroamp sulfate and amp sulfate'
p899
aS'dextroamphetamine sulfate'
p900
aS'dextrose 10% and sodium chloride 0.11% in plastic container'
p901
aS'dextrose 10% and sodium chloride 0.2% in plastic container'
p902
aS'dextrose 10% and sodium chloride 0.33% in plastic container'
p903
aS'dextrose 10% and sodium chloride 0.45% in plastic container'
p904
aS'dextrose 10% and sodium chloride 0.9% in plastic container'
p905
aS'dextrose 10% in plastic container'
p906
aS'dextrose 2.5% and sodium chloride 0.11% in plastic container'
p907
aS'dextrose 2.5% and sodium chloride 0.2% in plastic container'
p908
aS'dextrose 2.5% and sodium chloride 0.33% in plastic container'
p909
aS'dextrose 2.5% and sodium chloride 0.45% in plastic container'
p910
aS'dextrose 2.5% and sodium chloride 0.9% in plastic container'
p911
aS"dextrose 2.5% in half-strength lactated ringer's in plastic container"
p912
aS'dextrose 20% in plastic container'
p913
aS'dextrose 25%'
p914
aS'dextrose 3.3% and sodium chloride 0.3% in plastic container'
p915
aS'dextrose 30% in plastic container'
p916
aS'dextrose 40% in plastic container'
p917
aS'dextrose 5% and electrolyte no 75 in plastic container'
p918
aS'dextrose 5% and electrolyte no.48 in plastic container'
p919
aS"dextrose 5% and lactated ringer's in plastic container"
p920
aS'dextrose 5% and potassium chloride 0.075% in plastic container'
p921
aS'dextrose 5% and potassium chloride 0.15% in plastic container'
p922
aS'dextrose 5% and potassium chloride 0.224% in plastic container'
p923
aS'dextrose 5% and potassium chloride 0.3% in plastic container'
p924
aS"dextrose 5% and ringer's in plastic container"
p925
aS'dextrose 5% and sodium chloride 0.11% in plastic container'
p926
aS'dextrose 5% and sodium chloride 0.2% in plastic container'
p927
aS'dextrose 5% and sodium chloride 0.225% in plastic container'
p928
aS'dextrose 5% and sodium chloride 0.3% in plastic container'
p929
aS'dextrose 5% and sodium chloride 0.33% in plastic container'
p930
aS'dextrose 5% and sodium chloride 0.45% in plastic container'
p931
aS'dextrose 5% and sodium chloride 0.9% in plastic container'
p932
aS"dextrose 5% in acetated ringer's in plastic container"
p933
aS"dextrose 5% in lactated ringer's in plastic container"
p934
aS'dextrose 5% in plastic container'
p935
aS"dextrose 5% in ringer's in plastic container"
p936
aS'dextrose 5% in sodium chloride 0.2% in plastic container'
p937
aS'dextrose 5% in sodium chloride 0.33% in plastic container'
p938
aS'dextrose 5% in sodium chloride 0.45% in plastic container'
p939
aS'dextrose 5% in sodium chloride 0.9% in plastic container'
p940
aS'dextrose 5%, sodium chloride 0.2% and potassium chloride 10meq'
p941
aS'dextrose 5%, sodium chloride 0.2% and potassium chloride 15meq (k)'
p942
aS'dextrose 5%, sodium chloride 0.2% and potassium chloride 20meq'
p943
aS'dextrose 5%, sodium chloride 0.2% and potassium chloride 20meq (k)'
p944
aS'dextrose 5%, sodium chloride 0.2% and potassium chloride 30meq'
p945
aS'dextrose 5%, sodium chloride 0.2% and potassium chloride 40meq'
p946
aS'dextrose 5%, sodium chloride 0.2% and potassium chloride 5meq'
p947
aS'dextrose 5%, sodium chloride 0.2% and potassium chloride 5meq (k)'
p948
aS'dextrose 5%, sodium chloride 0.33% and potassium chloride 10meq in plastic container'
p949
aS'dextrose 5%, sodium chloride 0.33% and potassium chloride 15meq in plastic container'
p950
aS'dextrose 5%, sodium chloride 0.33% and potassium chloride 20meq in plastic container'
p951
aS'dextrose 5%, sodium chloride 0.33% and potassium chloride 30meq in plastic container'
p952
aS'dextrose 5%, sodium chloride 0.33% and potassium chloride 40meq in plastic container'
p953
aS'dextrose 5%, sodium chloride 0.33% and potassium chloride 5meq in plastic container'
p954
aS'dextrose 5%, sodium chloride 0.45% and potassium chloride 20meq (k) in plastic container'
p955
aS'dextrose 50% in plastic container'
p956
aS'dextrose 60% in plastic container'
p957
aS'dextrose 70% in plastic container'
p958
aS'diabeta'
p959
aS'diabinese'
p960
aS'dialyte concentrate w/ dextrose 30% in plastic container'
p961
aS'dialyte concentrate w/ dextrose 50% in plastic container'
p962
aS'dialyte lm/ dextrose 1.5% in plastic container'
p963
aS'dialyte lm/ dextrose 2.5% in plastic container'
p964
aS'dialyte lm/ dextrose 4.25% in plastic container'
p965
aS'diamox'
p966
aS'dianeal 137 w/ dextrose 1.5% in plastic container'
p967
aS'dianeal 137 w/ dextrose 2.5% in plastic container'
p968
aS'dianeal 137 w/ dextrose 4.25% in plastic container'
p969
aS'dianeal low calcium w/ dextrose 1.5% in plastic container'
p970
aS'dianeal low calcium w/ dextrose 2.5% in plastic container'
p971
aS'dianeal low calcium w/ dextrose 3.5% in plastic container'
p972
aS'dianeal low calcium w/ dextrose 4.25% in plastic container'
p973
aS'dianeal pd-1 w/ dextrose 1.5% in plastic container'
p974
aS'dianeal pd-1 w/ dextrose 2.5% in plastic container'
p975
aS'dianeal pd-1 w/ dextrose 3.5% in plastic container'
p976
aS'dianeal pd-1 w/ dextrose 4.25% in plastic container'
p977
aS'dianeal pd-2 w/ dextrose 1.5% in plastic container'
p978
aS'dianeal pd-2 w/ dextrose 2.5% in plastic container'
p979
aS'dianeal pd-2 w/ dextrose 3.5% in plastic container'
p980
aS'dianeal pd-2 w/ dextrose 4.25% in plastic container'
p981
aS'diastat'
p982
aS'diastat acudial'
p983
aS'diazepam'
p984
aS'diazepam intensol'
p985
aS'dibenzyline'
p986
aS'diclegis'
p987
aS'diclofenac potassium'
p988
aS'diclofenac sodium'
p989
aS'diclofenac sodium '
p990
aS'diclofenac sodium and misoprostol'
p991
aS'dicloxacillin sodium'
p992
aS'dicyclomine hydrochloride'
p993
aS'dicyclomine hydrochloride (preservative-free)'
p994
aS'didanosine'
p995
aS'didrex'
p996
aS'didronel'
p997
aS'diethylpropion hydrochloride'
p998
aS'differin'
p999
aS'dificid'
p1000
aS'diflorasone diacetate'
p1001
aS'diflucan'
p1002
aS'diflucan in dextrose 5% in plastic container'
p1003
aS'diflucan in sodium chloride 0.9%'
p1004
aS'diflucan in sodium chloride 0.9% in plastic container'
p1005
aS'diflunisal'
p1006
aS'digoxin'
p1007
aS'dihydroergotamine mesylate'
p1008
aS'dilantin'
p1009
aS'dilantin-125'
p1010
aS'dilatrate-sr'
p1011
aS'dilaudid'
p1012
aS'dilaudid-hp'
p1013
aS'dilt-cd'
p1014
aS'diltiazem hydrochloride'
p1015
aS'diltzac'
p1016
aS'dimenhydrinate'
p1017
aS'dimethyl sulfoxide'
p1018
aS'diovan'
p1019
aS'diovan hct'
p1020
aS'dipentum'
p1021
aS'diphenhydramine hydrochloride'
p1022
aS'diphenhydramine hydrochloride preservative free'
p1023
aS'diphenoxylate hydrochloride and atropine sulfate'
p1024
aS'diprivan'
p1025
aS'diprolene'
p1026
aS'diprolene af'
p1027
aS'dipyridamole'
p1028
aS'disopyramide phosphate'
p1029
aS'disulfiram'
p1030
aS'disulfiram '
p1031
aS'ditropan xl'
p1032
aS'diuril'
p1033
aS'divalproex sodium'
p1034
aS'divigel'
p1035
aS'dobutamine hydrochloride'
p1036
aS'dobutamine hydrochloride in dextrose 5% in plastic container'
p1037
aS'docefrez'
p1038
aS'docetaxel'
p1039
aS'dolophine hydrochloride'
p1040
aS'donepezil hydrochloride'
p1041
aS'dopamine hydrochloride'
p1042
aS'dopamine hydrochloride and dextrose 5%'
p1043
aS'dopamine hydrochloride and dextrose 5% in plastic container'
p1044
aS'dopamine hydrochloride in dextrose 5% in plastic container'
p1045
aS'dopram'
p1046
aS'doral'
p1047
aS'doribax'
p1048
aS'doryx'
p1049
aS'dorzolamide hydrochloride'
p1050
aS'dorzolamide hydrochloride and timolol maleate'
p1051
aS'dotarem'
p1052
aS'dovonex'
p1053
aS'doxapram hydrochloride'
p1054
aS'doxazosin mesylate'
p1055
aS'doxepin hydrochloride'
p1056
aS'doxercalciferol'
p1057
aS'doxil (liposomal)'
p1058
aS'doxorubicin hydrochloride'
p1059
aS'doxorubicin hydrochloride (liposomal)'
p1060
aS'doxteric'
p1061
aS'doxy 100'
p1062
aS'doxy 200'
p1063
aS'doxycycline'
p1064
aS'doxycycline hyclate'
p1065
aS'draximage mdp-25'
p1066
aS'drisdol'
p1067
aS'dronabinol'
p1068
aS'droperidol'
p1069
aS'drospirenone and ethinyl estradiol'
p1070
aS'droxia'
p1071
aS'dtic-dome'
p1072
aS'dtpa'
p1073
aS'duac'
p1074
aS'duavee'
p1075
aS'duetact'
p1076
aS'duexis'
p1077
aS'dulera'
p1078
aS'duloxetine hydrochloride'
p1079
aS'duodote'
p1080
aS'duoneb'
p1081
aS'duopa'
p1082
aS'duraclon'
p1083
aS'duragesic-100'
p1084
aS'duragesic-12'
p1085
aS'duragesic-25'
p1086
aS'duragesic-50'
p1087
aS'duragesic-75'
p1088
aS'duramorph pf'
p1089
aS'durezol'
p1090
aS'dutasteride'
p1091
aS'dutasteride and tamsulosin hydrochloride'
p1092
aS'dutoprol'
p1093
aS'dutrebis'
p1094
aS'duvoid'
p1095
aS'dyazide'
p1096
aS'dyloject'
p1097
aS'dymista'
p1098
aS'dynacin'
p1099
aS'dyrenium'
p1100
aS'e.e.s.'
p1101
aS'e.e.s. 200'
p1102
aS'e.e.s. 400'
p1103
aS'ec-naprosyn'
p1104
aS'econazole nitrate'
p1105
aS'ecoza'
p1106
aS'edarbi'
p1107
aS'edarbyclor'
p1108
aS'edecrin'
p1109
aS'edex'
p1110
aS'edluar'
p1111
aS'edurant'
p1112
aS'effexor xr'
p1113
aS'effient'
p1114
aS'efudex'
p1115
aS'egrifta'
p1116
aS'eldepryl'
p1117
aS'elelyso'
p1118
aS'elepsia xr'
p1119
aS'elestat'
p1120
aS'elestrin'
p1121
aS'elidel'
p1122
aS'eligard'
p1123
aS'elimite'
p1124
aS'elinest'
p1125
aS'eliphos'
p1126
aS'eliquis'
p1127
aS'elixophyllin'
p1128
aS'ella'
p1129
aS'ellence'
p1130
aS'elliotts b solution'
p1131
aS'elmiron'
p1132
aS'elocon'
p1133
aS'eloxatin'
p1134
aS'emadine'
p1135
aS'embeda'
p1136
aS'embeline'
p1137
aS'embeline e'
p1138
aS'emcyt'
p1139
aS'emend'
p1140
aS'emla'
p1141
aS'emoquette'
p1142
aS'emsam'
p1143
aS'emtriva'
p1144
aS'enablex'
p1145
aS'enalapril maleate'
p1146
aS'enalapril maleate and hydrochlorothiazide'
p1147
aS'enalaprilat'
p1148
aS'endometrin'
p1149
aS'endosol extra'
p1150
aS'enflurane'
p1151
aS'enjuvia'
p1152
aS'enlon'
p1153
aS'enlon-plus'
p1154
aS'enoxaparin sodium'
p1155
aS'enoxaparin sodium (preservative free)'
p1156
aS'enpresse-28'
p1157
aS'enskyce'
p1158
aS'entacapone'
p1159
aS'entecavir'
p1160
aS'entereg'
p1161
aS'entocort ec'
p1162
aS'enulose'
p1163
aS'eovist'
p1164
aS'epaned kit'
p1165
aS'epanova'
p1166
aS'epiduo'
p1167
aS'epifoam'
p1168
aS'epinastine hydrochloride'
p1169
aS'epinephrine'
p1170
aS'epipen'
p1171
aS'epipen jr.'
p1172
aS'epirubicin hydrochloride'
p1173
aS'epitol'
p1174
aS'epivir'
p1175
aS'epivir-hbv'
p1176
aS'eplerenone'
p1177
aS'epoprostenol sodium'
p1178
aS'eprosartan mesylate'
p1179
aS'epzicom'
p1180
aS'equetro'
p1181
aS'eraxis'
p1182
aS'ergocalciferol'
p1183
aS'ergoloid mesylates'
p1184
aS'ergomar'
p1185
aS'ergotamine tartrate and caffeine'
p1186
aS'erivedge'
p1187
aS'erlotinib hydrochloride'
p1188
aS'errin'
p1189
aS'ertaczo'
p1190
aS'ery-tab'
p1191
aS'eryc'
p1192
aS'erygel'
p1193
aS'eryped'
p1194
aS'erythra-derm'
p1195
aS'erythro-statin'
p1196
aS'erythrocin'
p1197
aS'erythrocin stearate'
p1198
aS'erythromycin'
p1199
aS'erythromycin and benzoyl peroxide'
p1200
aS'erythromycin ethylsuccinate'
p1201
aS'erythromycin ethylsuccinate and sulfisoxazole acetyl'
p1202
aS'esbriet'
p1203
aS'escitalopram oxalate'
p1204
aS'esmolol hydrochloride'
p1205
aS'esomeprazole magnesium'
p1206
aS'esomeprazole sodium'
p1207
aS'esomeprazole strontium'
p1208
aS'estarylla'
p1209
aS'estazolam'
p1210
aS'estrace'
p1211
aS'estraderm'
p1212
aS'estradiol'
p1213
aS'estradiol and norethindrone acetate'
p1214
aS'estradiol and norgestimate'
p1215
aS'estradiol valerate'
p1216
aS'estrasorb'
p1217
aS'estring'
p1218
aS'estrogel'
p1219
aS'estropipate'
p1220
aS'estrostep fe'
p1221
aS'eszopiclone'
p1222
aS'ethambutol hydrochloride'
p1223
aS'ethamolin'
p1224
aS'ethosuximide'
p1225
aS'ethrane'
p1226
aS'ethyol'
p1227
aS'etidronate disodium'
p1228
aS'etodolac'
p1229
aS'etomidate'
p1230
aS'etopophos preservative free'
p1231
aS'etoposide'
p1232
aS'eurax'
p1233
aS'evamist'
p1234
aS'evekeo'
p1235
aS'evista'
p1236
aS'evoclin'
p1237
aS'evotaz'
p1238
aS'evoxac'
p1239
aS'evzio'
p1240
aS'exalgo'
p1241
aS'exelderm'
p1242
aS'exelon'
p1243
aS'exemestane'
p1244
aS'exforge'
p1245
aS'exforge hct'
p1246
aS'exjade'
p1247
aS'exparel'
p1248
aS'extended phenytoin sodium'
p1249
aS'extina'
p1250
aS'extraneal'
p1251
aS'fabior'
p1252
aS'factive'
p1253
aS'falmina'
p1254
aS'famciclovir'
p1255
aS'famotidine'
p1256
aS'famotidine preservative free'
p1257
aS'famotidine preservative free in plastic container'
p1258
aS'famvir'
p1259
aS'fanapt'
p1260
aS'fareston'
p1261
aS'farxiga'
p1262
aS'farydak'
p1263
aS'faslodex'
p1264
aS'fazaclo odt'
p1265
aS'felbamate'
p1266
aS'felbatol'
p1267
aS'feldene'
p1268
aS'felodipine'
p1269
aS'femara'
p1270
aS'femcon fe'
p1271
aS'femhrt'
p1272
aS'femring'
p1273
aS'femtrace'
p1274
aS'fenofibrate'
p1275
aS'fenofibrate (micronized)'
p1276
aS'fenofibric acid'
p1277
aS'fenoglide'
p1278
aS'fenoldopam mesylate'
p1279
aS'fenoprofen calcium'
p1280
aS'fentanyl citrate'
p1281
aS'fentanyl citrate preservative free'
p1282
aS'fentanyl-100'
p1283
aS'fentanyl-12'
p1284
aS'fentanyl-25'
p1285
aS'fentanyl-37'
p1286
aS'fentanyl-50'
p1287
aS'fentanyl-62'
p1288
aS'fentanyl-75'
p1289
aS'fentanyl-87'
p1290
aS'fentora'
p1291
aS'feraheme'
p1292
aS'ferriprox'
p1293
aS'ferrlecit'
p1294
aS'fetzima'
p1295
aS'fexofenadine hydrochloride'
p1296
aS'fexofenadine hydrochloride and pseudoephedrine hydrochloride'
p1297
aS'fibricor'
p1298
aS'finacea'
p1299
aS'finasteride'
p1300
aS'fioricet w/ codeine'
p1301
aS'fiorinal'
p1302
aS'fiorinal w/codeine'
p1303
aS'firazyr'
p1304
aS'firmagon'
p1305
aS'flagyl'
p1306
aS'flagyl er'
p1307
aS'flagyl i.v. rtu in plastic container'
p1308
aS'flarex'
p1309
aS'flavored colestid'
p1310
aS'flavoxate hydrochloride'
p1311
aS'flecainide acetate'
p1312
aS'flector'
p1313
aS'flo-pred'
p1314
aS'flolan'
p1315
aS'flomax'
p1316
aS'flonase'
p1317
aS'flovent diskus 100'
p1318
aS'flovent diskus 250'
p1319
aS'flovent diskus 50'
p1320
aS'flovent hfa'
p1321
aS'floxin otic'
p1322
aS'floxuridine'
p1323
aS'flucanazole in sodium chloride 0.9% in plastic container'
p1324
aS'fluconazole'
p1325
aS'fluconazole in dextrose 5% in plastic container'
p1326
aS'fluconazole in sodium chloride 0.9%'
p1327
aS'fluconazole in sodium chloride 0.9% in plastic container'
p1328
aS'flucytosine'
p1329
aS'fludarabine phosphate'
p1330
aS'fludeoxyglucose f 18'
p1331
aS'fludeoxyglucose f18'
p1332
aS'fludrocortisone acetate'
p1333
aS'flumadine'
p1334
aS'flumazenil'
p1335
aS'flunisolide'
p1336
aS'fluocinolone acetonide'
p1337
aS'fluocinonide'
p1338
aS'fluocinonide emulsified base'
p1339
aS'fluorescite'
p1340
aS'fluoroplex'
p1341
aS'fluorouracil'
p1342
aS'fluoxetine hydrochloride'
p1343
aS'fluoxymesterone'
p1344
aS'fluphenazine decanoate'
p1345
aS'fluphenazine hydrochloride'
p1346
aS'flurazepam hydrochloride'
p1347
aS'flurbiprofen'
p1348
aS'flurbiprofen sodium'
p1349
aS'flutamide'
p1350
aS'fluticasone propionate'
p1351
aS'fluvastatin sodium'
p1352
aS'fluvoxamine maleate'
p1353
aS'fml'
p1354
aS'fml forte'
p1355
aS'focalin'
p1356
aS'focalin xr'
p1357
aS'folic acid'
p1358
aS'follistim aq'
p1359
aS'folotyn'
p1360
aS'fomepizole'
p1361
aS'fondaparinux sodium'
p1362
aS'foradil'
p1363
aS'forane'
p1364
aS'forfivo xl'
p1365
aS'fortamet'
p1366
aS'fortaz'
p1367
aS'fortaz in plastic container'
p1368
aS'forteo'
p1369
aS'fortesta'
p1370
aS'fortical'
p1371
aS'fosamax'
p1372
aS'fosamax plus d'
p1373
aS'foscarnet sodium'
p1374
aS'foscavir'
p1375
aS'fosinopril sodium'
p1376
aS'fosinopril sodium and hydrochlorothiazide'
p1377
aS'fosphenytoin sodium'
p1378
aS'fosrenol'
p1379
aS'fragmin'
p1380
aS'freamine hbc 6.9%'
p1381
aS'freamine iii 10%'
p1382
aS'freamine iii 3% w/ electrolytes'
p1383
aS'freamine iii 8.5%'
p1384
aS'freamine iii 8.5% w/ electrolytes'
p1385
aS'frova'
p1386
aS'frovatriptan succinate'
p1387
aS'fulyzaq'
p1388
aS'furadantin'
p1389
aS'furosemide'
p1390
aS'fusilev'
p1391
aS'fuzeon'
p1392
aS'fycompa'
p1393
aS'gabapentin'
p1394
aS'gabitril'
p1395
aS'gablofen'
p1396
aS'gadavist'
p1397
aS'galantamine hydrobromide'
p1398
aS'gallium citrate ga 67'
p1399
aS'galzin'
p1400
aS'ganciclovir'
p1401
aS'ganirelix acetate'
p1402
aS'gastrocrom'
p1403
aS'gastrografin'
p1404
aS'gatifloxacin'
p1405
aS'gattex kit'
p1406
aS'gelnique'
p1407
aS'gelnique 3%'
p1408
aS'gemcitabine hydrochloride'
p1409
aS'gemfibrozil'
p1410
aS'gemzar'
p1411
aS'gen-xene'
p1412
aS'generlac'
p1413
aS'gengraf'
p1414
aS'genoptic'
p1415
aS'genotropin'
p1416
aS'genotropin preservative free'
p1417
aS'gentak'
p1418
aS'gentamicin sulfate'
p1419
aS'gentamicin sulfate in sodium chloride 0.9% in plastic container'
p1420
aS'geodon'
p1421
aS'giazo'
p1422
aS'gildagia'
p1423
aS'gildess 1.5/30'
p1424
aS'gildess 1/20'
p1425
aS'gildess 24 fe'
p1426
aS'gildess fe 1.5/30'
p1427
aS'gildess fe 1/20'
p1428
aS'gilenya'
p1429
aS'gilotrif'
p1430
aS'glatopa'
p1431
aS'gleevec'
p1432
aS'gleostine'
p1433
aS'gliadel'
p1434
aS'glimepiride'
p1435
aS'glipizide'
p1436
aS'glipizide and metformin hydrochloride'
p1437
aS'glofil-125'
p1438
aS'glucagen'
p1439
aS'glucagon'
p1440
aS'glucophage'
p1441
aS'glucophage xr'
p1442
aS'glucotrol'
p1443
aS'glucotrol xl'
p1444
aS'glucovance'
p1445
aS'glumetza'
p1446
aS'glyburide'
p1447
aS'glyburide (micronized)'
p1448
aS'glyburide and metformin hydrochloride'
p1449
aS'glycine 1.5% in plastic container'
p1450
aS'glycolax'
p1451
aS'glycopyrrolate'
p1452
aS'glydo'
p1453
aS'glynase'
p1454
aS'glyset'
p1455
aS'glyxambi'
p1456
aS'golytely'
p1457
aS'gonal-f'
p1458
aS'gonal-f rff'
p1459
aS'gonal-f rff redi-ject'
p1460
aS'gralise'
p1461
aS'granisetron hydrochloride'
p1462
aS'granisetron hydrochloride preservative free'
p1463
aS'granisteron hydrochloride'
p1464
aS'grifulvin v'
p1465
aS'gris-peg'
p1466
aS'griseofulvin'
p1467
aS'griseofulvin, ultramicrosize'
p1468
aS'griseofulvin,ultramicrosize'
p1469
aS'guanabenz acetate'
p1470
aS'guanfacine hydrochloride'
p1471
aS'guanidine hydrochloride'
p1472
aS'h.p. acthar gel'
p1473
aS'halaven'
p1474
aS'halcion'
p1475
aS'haldol'
p1476
aS'halobetasol propionate'
p1477
aS'halog'
p1478
aS'haloperidol'
p1479
aS'haloperidol decanoate'
p1480
aS'harvoni'
p1481
aS'heather'
p1482
aS'hectorol'
p1483
aS'hemabate'
p1484
aS'hemangeol'
p1485
aS'heparin sodium'
p1486
aS'heparin sodium 1,000 units and sodium chloride 0.9% in plastic container'
p1487
aS'heparin sodium 1,000 units in sodium chloride 0.9% in plastic container'
p1488
aS'heparin sodium 10,000 units in dextrose 5% in plastic container'
p1489
aS'heparin sodium 12,500 units in dextrose 5% in plastic container'
p1490
aS'heparin sodium 12,500 units in sodium chloride 0.45% in plastic container'
p1491
aS'heparin sodium 2,000 units and sodium chloride 0.9% in plastic container'
p1492
aS'heparin sodium 2,000 units in sodium chloride 0.9% in plastic container'
p1493
aS'heparin sodium 20,000 units in dextrose 5% in plastic container'
p1494
aS'heparin sodium 25,000 units in dextrose 5% in plastic container'
p1495
aS'heparin sodium 25,000 units in sodium chloride 0.45% in plastic container'
p1496
aS'heparin sodium in plastic container'
p1497
aS'heparin sodium preservative free'
p1498
aS'hepatamine 8%'
p1499
aS'hepatolite'
p1500
aS'hepsera'
p1501
aS'herplex'
p1502
aS'hetlioz'
p1503
aS'hexabrix'
p1504
aS'hexalen'
p1505
aS'hicon'
p1506
aS'hiprex'
p1507
aS'homatropine methylbromide and hydrocodone bitartrate'
p1508
aS'horizant'
p1509
aS'humalog'
p1510
aS'humalog kwikpen'
p1511
aS'humalog mix 50/50'
p1512
aS'humalog mix 50/50 kwikpen'
p1513
aS'humalog mix 75/25'
p1514
aS'humalog mix 75/25 kwikpen'
p1515
aS'humatrope'
p1516
aS'humulin r'
p1517
aS'hycamtin'
p1518
aS'hydergine'
p1519
aS'hydra-zide'
p1520
aS'hydralazine hydrochloride'
p1521
aS'hydrea'
p1522
aS'hydrochlorothiazide'
p1523
aS'hydrocodone bitartrate and acetaminophen'
p1524
aS'hydrocodone bitartrate and chlorpheniramine maleate'
p1525
aS'hydrocodone bitartrate and homatropine methylbromide'
p1526
aS'hydrocodone bitartrate and ibuprofen'
p1527
aS'hydrocodone bitartrate and pseudoephedrine hydrochloride'
p1528
aS'hydrocodone bitartrate, chlorpheniramine maleate and pseudoephedrine hydrochloride'
p1529
aS'hydrocodone bitartrate, chlorpheniramine maleate and pseudoephedrine hydrochloride '
p1530
aS'hydrocodone polistirex and chlorpheniramine polistirex'
p1531
aS'hydrocodone polistirex and chlorpheniramne polistirex'
p1532
aS'hydrocortisone'
p1533
aS'hydrocortisone acetate'
p1534
aS'hydrocortisone and acetic acid'
p1535
aS'hydrocortisone butyrate'
p1536
aS'hydrocortisone in absorbase'
p1537
aS'hydrocortisone valerate'
p1538
aS'hydromorphone hydrochloride'
p1539
aS'hydroxocobalamin'
p1540
aS'hydroxychloroquine sulfate'
p1541
aS'hydroxyurea'
p1542
aS'hydroxyzine hydrochloride'
p1543
aS'hydroxyzine pamoate'
p1544
aS'hylenex recombinant'
p1545
aS'hysingla'
p1546
aS'hyzaar'
p1547
aS'ibandronate sodium'
p1548
aS'ibrance'
p1549
aS'ibu-tab'
p1550
aS'ibuprofen'
p1551
aS'ibutilide fumarate'
p1552
aS'ic-green'
p1553
aS'iclusig'
p1554
aS'idamycin pfs'
p1555
aS'idarubicin hydrochloride'
p1556
aS'idarubicin hydrochloride pfs'
p1557
aS'idkit:hp'
p1558
aS'ifex'
p1559
aS'ifosfamide'
p1560
aS'ifosfamide/mesna kit'
p1561
aS'ilevro'
p1562
aS'iluvien'
p1563
aS'imbruvica'
p1564
aS'imipenem and cilastatin'
p1565
aS'imipramine hydrochloride'
p1566
aS'imipramine pamoate'
p1567
aS'imiquimod'
p1568
aS'imitrex'
p1569
aS'imitrex statdose'
p1570
aS'imodium'
p1571
aS'impavido'
p1572
aS'implanon'
p1573
aS'imuran'
p1574
aS'inapsine'
p1575
aS'increlex'
p1576
aS'incruse ellipta '
p1577
aS'indapamide'
p1578
aS'inderal la'
p1579
aS'inderide-40/25'
p1580
aS'indiclor'
p1581
aS'indium in 111 chloride'
p1582
aS'indium in-111 oxyquinoline'
p1583
aS'indocin'
p1584
aS'indocyanine green'
p1585
aS'indomethacin'
p1586
aS'indomethacin sodium'
p1587
aS'infasurf preservative free'
p1588
aS'infed'
p1589
aS'infumorph'
p1590
aS'infuvite adult'
p1591
aS'infuvite pediatric'
p1592
aS'infuvite pediatric (pharmacy bulk package)'
p1593
aS'injectafer'
p1594
aS'inlyta'
p1595
aS'innopran xl'
p1596
aS'inomax'
p1597
aS'inspra'
p1598
aS'integrilin'
p1599
aS'intelence'
p1600
aS'intermezzo'
p1601
aS'intralipid 10%'
p1602
aS'intralipid 20%'
p1603
aS'intralipid 30%'
p1604
aS'introvale'
p1605
aS'intuniv'
p1606
aS'invanz'
p1607
aS'invega'
p1608
aS'invega sustenna'
p1609
aS'invirase'
p1610
aS'invokamet'
p1611
aS'invokana'
p1612
aS'ionosol b and dextrose 5% in plastic container'
p1613
aS'ionosol mb and dextrose 5% in plastic container'
p1614
aS'iopidine'
p1615
aS'ipratropium bromide'
p1616
aS'iprivask'
p1617
aS'irbesartan'
p1618
aS'irbesartan and hydrochlorothiazide'
p1619
aS'irinotecan hydrochloride'
p1620
aS'isentress'
p1621
aS'isocaine hydrochloride'
p1622
aS'isoflurane'
p1623
aS'isolyte e in plastic container'
p1624
aS'isolyte h in dextrose 5% in plastic container'
p1625
aS'isolyte m in dextrose 5% in plastic container'
p1626
aS'isolyte p in dextrose 5% in plastic container'
p1627
aS'isolyte r in dextrose 5% in plastic container'
p1628
aS'isolyte s in dextrose 5% in plastic container'
p1629
aS'isolyte s in plastic container'
p1630
aS'isolyte s ph 7.4 in plastic container'
p1631
aS'isoniazid'
p1632
aS'isopto carpine'
p1633
aS'isordil'
p1634
aS'isosorbide dinitrate'
p1635
aS'isosorbide mononitrate'
p1636
aS'isosulfan blue'
p1637
aS'isotonic gentamicin sulfate in plastic container'
p1638
aS'isovue-200'
p1639
aS'isovue-250'
p1640
aS'isovue-300'
p1641
aS'isovue-370'
p1642
aS'isovue-m 200'
p1643
aS'isovue-m 300'
p1644
aS'isradipine'
p1645
aS'istalol'
p1646
aS'istodax'
p1647
aS'isuprel'
p1648
aS'itraconazole'
p1649
aS'ivermectin'
p1650
aS'ixempra kit'
p1651
aS'izba'
p1652
aS'jadenu'
p1653
aS'jakafi'
p1654
aS'jalyn'
p1655
aS'jantoven'
p1656
aS'janumet'
p1657
aS'janumet xr'
p1658
aS'januvia'
p1659
aS'jardiance'
p1660
aS'jeanatope'
p1661
aS'jencycla'
p1662
aS'jentadueto'
p1663
aS'jevtana kit'
p1664
aS'jublia'
p1665
aS'junel 1.5/30'
p1666
aS'junel 1/20'
p1667
aS'junel fe 1.5/30'
p1668
aS'junel fe 1/20'
p1669
aS'juxtapid'
p1670
aS'k-tab'
p1671
aS'kabiven in plastic container'
p1672
aS'kadian'
p1673
aS'kaletra'
p1674
aS'kalexate'
p1675
aS'kalydeco'
p1676
aS'kanamycin sulfate'
p1677
aS'kapvay'
p1678
aS'karbinal er'
p1679
aS'kariva'
p1680
aS'kayexalate'
p1681
aS'kazano'
p1682
aS'keflex'
p1683
aS'kefzol'
p1684
aS'kelnor'
p1685
aS'kenalog'
p1686
aS'kenalog-10'
p1687
aS'kenalog-40'
p1688
aS'keppra'
p1689
aS'keppra xr'
p1690
aS'kerydin'
p1691
aS'ketalar'
p1692
aS'ketamine hydrochloride'
p1693
aS'ketek'
p1694
aS'ketoconazole'
p1695
aS'ketoprofen'
p1696
aS'ketorolac tromethamine'
p1697
aS'ketozole'
p1698
aS'khedezla'
p1699
aS'kimidess'
p1700
aS'kinevac'
p1701
aS'kionex'
p1702
aS'kitabis pak'
p1703
aS'klaron'
p1704
aS'klonopin'
p1705
aS'klor-con'
p1706
aS'klor-con m10'
p1707
aS'klor-con m15'
p1708
aS'klor-con m20'
p1709
aS'kombiglyze xr'
p1710
aS'korlym'
p1711
aS'kurvelo'
p1712
aS'kuvan'
p1713
aS'kybella'
p1714
aS'kynamro'
p1715
aS'kyprolis'
p1716
aS'labetalol hydrochloride'
p1717
aS'labetalol hydrocloride'
p1718
aS'lac-hydrin'
p1719
aS'lacrisert'
p1720
aS"lactated ringer's and dextrose 5% in plastic container"
p1721
aS"lactated ringer's in plastic container"
p1722
aS'lactulose'
p1723
aS'lamictal'
p1724
aS'lamictal cd'
p1725
aS'lamictal odt'
p1726
aS'lamictal xr'
p1727
aS'lamisil'
p1728
aS'lamivudine'
p1729
aS'lamivudine and zidovudine'
p1730
aS'lamotrigine'
p1731
aS'lamprene'
p1732
aS'laniazid'
p1733
aS'lanorinal'
p1734
aS'lanoxin'
p1735
aS'lanoxin pediatric'
p1736
aS'lansoprazole'
p1737
aS'lansoprazole '
p1738
aS'lansoprazole, amoxicillin and clarithromycin'
p1739
aS'lantus'
p1740
aS'lantus solostar'
p1741
aS'larin 1.5/30'
p1742
aS'larin 1/20'
p1743
aS'larin 24 fe'
p1744
aS'larin fe 1.5/30'
p1745
aS'larin fe 1/20'
p1746
aS'larotid'
p1747
aS'laryng-o-jet kit'
p1748
aS'lasix'
p1749
aS'lastacaft'
p1750
aS'latanoprost'
p1751
aS'latisse'
p1752
aS'latuda'
p1753
aS'lax-lyte with flavor packs'
p1754
aS'lazanda'
p1755
aS'leflunomide'
p1756
aS'lenvima'
p1757
aS'lescol'
p1758
aS'lescol xl'
p1759
aS'lessina-28'
p1760
aS'letairis'
p1761
aS'letrozole'
p1762
aS'leucovorin calcium'
p1763
aS'leucovorin calcium preservative free'
p1764
aS'leukeran'
p1765
aS'leuprolide acetate'
p1766
aS'levalbuterol hydrochloride'
p1767
aS'levaquin'
p1768
aS'levaquin in dextrose 5% in plastic container'
p1769
aS'levemir'
p1770
aS'levemir flexpen'
p1771
aS'levemir flextouch'
p1772
aS'levetiracetam'
p1773
aS'levetiracetam in sodium chloride'
p1774
aS'levitra'
p1775
aS'levo-t'
p1776
aS'levobunolol hydrochloride'
p1777
aS'levocarnitine'
p1778
aS'levocetirizine dihydrochloride'
p1779
aS'levofloxacin'
p1780
aS'levofloxacin in dextrose 5% in plastic container'
p1781
aS'levoleucovorin calcium'
p1782
aS'levonest'
p1783
aS'levonorgestrel'
p1784
aS'levonorgestrel and ethinyl estradiol'
p1785
aS'levonorgestrel and ethinyl estradiol and ethinyl estradiol'
p1786
aS'levophed'
p1787
aS'levora 0.15/30-28'
p1788
aS'levorphanol tartrate'
p1789
aS'levothroid'
p1790
aS'levothyroxine sodium'
p1791
aS'levoxyl'
p1792
aS'levulan'
p1793
aS'lexapro'
p1794
aS'lexiscan'
p1795
aS'lexiva'
p1796
aS'lialda'
p1797
aS'librium'
p1798
aS'lidex'
p1799
aS'lidocaine'
p1800
aS'lidocaine and prilocaine'
p1801
aS'lidocaine hydrochloride'
p1802
aS'lidocaine hydrochloride 0.2% and dextrose 5% in plastic container'
p1803
aS'lidocaine hydrochloride 0.4% and dextrose 5% in plastic container'
p1804
aS'lidocaine hydrochloride 0.4% in dextrose 5% in plastic container'
p1805
aS'lidocaine hydrochloride 0.8% and dextrose 5% in plastic container'
p1806
aS'lidocaine hydrochloride 0.8% in dextrose 5% in plastic container'
p1807
aS'lidocaine hydrochloride 5% and dextrose 7.5%'
p1808
aS'lidocaine hydrochloride and epinephrine'
p1809
aS'lidocaine hydrochloride in plastic container'
p1810
aS'lidocaine hydrochloride preservative free'
p1811
aS'lidocaine hydrochloride preservative free in plastic container'
p1812
aS'lidocaine hydrochloride viscous'
p1813
aS'lidocaine viscous'
p1814
aS'lidoderm'
p1815
aS'lignospan forte'
p1816
aS'lignospan standard'
p1817
aS'liletta'
p1818
aS'lincocin'
p1819
aS'lindane'
p1820
aS'linezolid'
p1821
aS'linzess'
p1822
aS'lioresal'
p1823
aS'liothyronine sodium'
p1824
aS'lipiodol'
p1825
aS'lipitor'
p1826
aS'lipofen'
p1827
aS'liptruzet'
p1828
aS'lisinopril'
p1829
aS'lisinopril and hydrochlorothiazide'
p1830
aS'lithium carbonate'
p1831
aS'lithium citrate'
p1832
aS'lithobid'
p1833
aS'lithostat'
p1834
aS'livalo'
p1835
aS'lo loestrin fe'
p1836
aS'lo minastrin fe'
p1837
aS'lo/ovral-28'
p1838
aS'locoid'
p1839
aS'locoid lipocream'
p1840
aS'lodosyn'
p1841
aS'loestrin 21 1.5/30'
p1842
aS'loestrin 21 1/20'
p1843
aS'loestrin fe 1.5/30'
p1844
aS'loestrin fe 1/20'
p1845
aS'lomotil'
p1846
aS'lonox'
p1847
aS'loperamide hydrochloride'
p1848
aS'lopid'
p1849
aS'lopressor'
p1850
aS'lopressor hct'
p1851
aS'loprox'
p1852
aS'lopurin'
p1853
aS'lorazepam'
p1854
aS'lorazepam intensol'
p1855
aS'lorazepam preservative free'
p1856
aS'loryna'
p1857
aS'losartan potassium'
p1858
aS'losartan potassium and hydrochlorothiazide'
p1859
aS'loseasonique'
p1860
aS'lotemax'
p1861
aS'lotensin'
p1862
aS'lotensin hct'
p1863
aS'lotrel'
p1864
aS'lotrisone'
p1865
aS'lotronex'
p1866
aS'lovastatin'
p1867
aS'lovaza'
p1868
aS'lovenox'
p1869
aS'lovenox (preservative free)'
p1870
aS'low-ogestrel-28'
p1871
aS'loxapine succinate'
p1872
aS'lta ii kit'
p1873
aS'lufyllin'
p1874
aS'lumason'
p1875
aS'lumigan'
p1876
aS'lunesta'
p1877
aS'lupaneta pack'
p1878
aS'lupron depot'
p1879
aS'lupron depot-ped'
p1880
aS'luvox'
p1881
aS'luvox cr'
p1882
aS'luxiq'
p1883
aS'luzu'
p1884
aS'lymphoseek kit'
p1885
aS'lynparza'
p1886
aS'lyrica'
p1887
aS'lysodren'
p1888
aS'lysteda'
p1889
aS'm.v.i. adult'
p1890
aS'm.v.i. adult (pharmacy bulk package)'
p1891
aS'm.v.i. pediatric'
p1892
aS'm.v.i.-12 (without vitamin k)'
p1893
aS'macrobid'
p1894
aS'macrodantin'
p1895
aS'macugen'
p1896
aS'mafenide acetate'
p1897
aS'magnesium sulfate'
p1898
aS'magnesium sulfate in dextrose 5% in plastic container'
p1899
aS'magnesium sulfate in plastic container'
p1900
aS'magnevist'
p1901
aS'makena'
p1902
aS'malarone'
p1903
aS'malarone pediatric'
p1904
aS'malathion'
p1905
aS'manganese chloride in plastic container'
p1906
aS'mannitol 10%'
p1907
aS'mannitol 10% in plastic container'
p1908
aS'mannitol 10% w/ dextrose 5% in distilled water'
p1909
aS'mannitol 15%'
p1910
aS'mannitol 15% in plastic container'
p1911
aS'mannitol 15% w/ dextrose 5% in sodium chloride 0.45%'
p1912
aS'mannitol 20%'
p1913
aS'mannitol 20% in plastic container'
p1914
aS'mannitol 25%'
p1915
aS'mannitol 5%'
p1916
aS'mannitol 5% in plastic container'
p1917
aS'mannitol 5% w/ dextrose 5% in sodium chloride 0.12%'
p1918
aS'maprotiline hydrochloride'
p1919
aS'marcaine'
p1920
aS'marcaine hydrochloride'
p1921
aS'marcaine hydrochloride preservative free'
p1922
aS'marcaine hydrochloride w/ epinephrine'
p1923
aS'marcaine hydrochloride w/ epinephrine preservative free'
p1924
aS'marinol'
p1925
aS'marlissa'
p1926
aS'marplan'
p1927
aS'marqibo kit'
p1928
aS'matulane'
p1929
aS'mavik'
p1930
aS'maxalt'
p1931
aS'maxalt-mlt'
p1932
aS'maxidex'
p1933
aS'maxipime'
p1934
aS'maxitrol'
p1935
aS'maxzide'
p1936
aS'maxzide-25'
p1937
aS'md-76r'
p1938
aS'md-gastroview'
p1939
aS'mdp-bracco'
p1940
aS'mebendazole'
p1941
aS'mecamylamine hydrochloride'
p1942
aS'meclizine hydrochloride'
p1943
aS'meclofenamate sodium'
p1944
aS'medrol'
p1945
aS'medroxyprogesterone acetate'
p1946
aS'mefenamic acid'
p1947
aS'mefloquine hydrochloride'
p1948
aS'mefoxin in plastic container'
p1949
aS'megace'
p1950
aS'megace es'
p1951
aS'megatope'
p1952
aS'megestrol acetate'
p1953
aS'mekinist'
p1954
aS'meloxicam'
p1955
aS'melphalan hydrochloride'
p1956
aS'memantine'
p1957
aS'memantine hydrochloride'
p1958
aS'membraneblue'
p1959
aS'menest'
p1960
aS'menopur'
p1961
aS'menostar'
p1962
aS'mentax'
p1963
aS'meperidine hydrochloride'
p1964
aS'meperidine hydrochloride preservative free'
p1965
aS'mephyton'
p1966
aS'mepivacaine hydrochloride'
p1967
aS'meprobamate'
p1968
aS'mepron'
p1969
aS'mercaptopurine'
p1970
aS'meropenem'
p1971
aS'meropenem and sodium chloride in duplex container'
p1972
aS'merrem'
p1973
aS'mesalamine'
p1974
aS'mesna'
p1975
aS'mesnex'
p1976
aS'mestinon'
p1977
aS'metadate cd'
p1978
aS'metadate er'
p1979
aS'metaproterenol sulfate'
p1980
aS'metaraminol bitartrate'
p1981
aS'metastron'
p1982
aS'metaxalone'
p1983
aS'metformin hydrochloride'
p1984
aS'methadone hydrochloride'
p1985
aS'methadone hydrochloride intensol'
p1986
aS'methadose'
p1987
aS'methamphetamine hydrochloride'
p1988
aS'methazolamide'
p1989
aS'methenamine hippurate'
p1990
aS'methergine'
p1991
aS'methimazole'
p1992
aS'methocarbamol'
p1993
aS'methocarbamol and aspirin'
p1994
aS'methotrexate preservative free'
p1995
aS'methotrexate sodium'
p1996
aS'methotrexate sodium preservative free'
p1997
aS'methoxsalen'
p1998
aS'methscopolamine bromide'
p1999
aS'methyclothiazide'
p2000
aS'methyldopa'
p2001
aS'methyldopa and hydrochlorothiazide'
p2002
aS'methyldopate hydrochloride'
p2003
aS'methylergonovine maleate'
p2004
aS'methylin'
p2005
aS'methylin er'
p2006
aS'methylphenidate hydrochloride'
p2007
aS'methylprednisolone'
p2008
aS'methylprednisolone acetate'
p2009
aS'methylprednisolone sodium succinate'
p2010
aS'methyltestosterone'
p2011
aS'metipranolol'
p2012
aS'metoclopramide'
p2013
aS'metoclopramide hydrochloride'
p2014
aS'metolazone'
p2015
aS'metopirone'
p2016
aS'metoprolol succinate'
p2017
aS'metoprolol tartrate'
p2018
aS'metoprolol tartrate and hydrochlorothiazide'
p2019
aS'metozolv odt'
p2020
aS'metro i.v. in plastic container'
p2021
aS'metrocream'
p2022
aS'metrogel'
p2023
aS'metrogel-vaginal'
p2024
aS'metrolotion'
p2025
aS'metronidazole'
p2026
aS'metronidazole in plastic container'
p2027
aS'mexiletine hydrochloride'
p2028
aS'miacalcin'
p2029
aS'micardis'
p2030
aS'micardis hct'
p2031
aS'miconazole nitrate'
p2032
aS'micort-hc'
p2033
aS'micro-k'
p2034
aS'micro-k 10'
p2035
aS'microgestin 1.5/30'
p2036
aS'microgestin 1/20'
p2037
aS'microgestin fe 1.5/30'
p2038
aS'microgestin fe 1/20'
p2039
aS'micronor'
p2040
aS'microzide'
p2041
aS'midamor'
p2042
aS'midazolam hydrochloride'
p2043
aS'midazolam hydrochloride preservative free'
p2044
aS'midodrine hydrochloride'
p2045
aS'midozalam hydrochloride'
p2046
aS'mifeprex'
p2047
aS'migergot'
p2048
aS'miglitol'
p2049
aS'migranal'
p2050
aS'milrinone lactate'
p2051
aS'milrinone lactate in dextrose 5%'
p2052
aS'milrinone lactate in dextrose 5% in plastic container'
p2053
aS'milrinone lactate in plastic container'
p2054
aS'minastrin 24 fe'
p2055
aS'minipress'
p2056
aS'minirin'
p2057
aS'minitran'
p2058
aS'minivelle'
p2059
aS'minocin'
p2060
aS'minocycline hydrochloride'
p2061
aS'minoxidil'
p2062
aS'miochol-e'
p2063
aS'miostat'
p2064
aS'mirapex'
p2065
aS'mirapex er'
p2066
aS'mirena'
p2067
aS'mirtazapine'
p2068
aS'mirvaso'
p2069
aS'misoprostol'
p2070
aS'mitigare'
p2071
aS'mitomycin'
p2072
aS'mitosol'
p2073
aS'mitoxantrone hydrochloride'
p2074
aS'mivacron'
p2075
aS'mobic'
p2076
aS'modafinil'
p2077
aS'modicon 28'
p2078
aS'moexipril hydrochloride'
p2079
aS'moexipril hydrochloride and hydrochlorothiazide'
p2080
aS'moexipril hydrochloride and hydrocholrothiazide'
p2081
aS'molindone hydrochloride'
p2082
aS'mometasone furoate'
p2083
aS'monistat 3'
p2084
aS'mono-linyah'
p2085
aS'monodox'
p2086
aS'monoket'
p2087
aS'montelukast sodium'
p2088
aS'monurol'
p2089
aS'morphine sulfate'
p2090
aS'motofen'
p2091
aS'movantik'
p2092
aS'moviprep'
p2093
aS'moxatag'
p2094
aS'moxeza'
p2095
aS'moxifloxacin hydrochloride'
p2096
aS'mozobil'
p2097
aS'mpi dmsa kidney reagent'
p2098
aS'mpi indium dtpa in 111'
p2099
aS'ms contin'
p2100
aS'multaq'
p2101
aS'multihance'
p2102
aS'multihance multipack'
p2103
aS'mupirocin'
p2104
aS'muse'
p2105
aS'mustargen'
p2106
aS'myambutol'
p2107
aS'mycamine'
p2108
aS'mycobutin'
p2109
aS'mycophenolate mofetil'
p2110
aS'mycophenolic acid'
p2111
aS'mydriacyl'
p2112
aS'myfortic'
p2113
aS'mykacet'
p2114
aS'myleran'
p2115
aS'myorisan'
p2116
aS'myoview'
p2117
aS'myoview 30ml'
p2118
aS'myrbetriq'
p2119
aS'mysoline'
p2120
aS'myzilra'
p2121
aS'nabumetone'
p2122
aS'nadolol'
p2123
aS'nadolol and bendroflumethiazide'
p2124
aS'nafcillin sodium'
p2125
aS'naftin'
p2126
aS'nalbuphine hydrochloride'
p2127
aS'nalfon'
p2128
aS'nallpen in plastic container'
p2129
aS'naloxone hydrochloride'
p2130
aS'naloxone hydrochloride and pentazocine hydrochloride'
p2131
aS'naltrexone hydrochloride'
p2132
aS'namenda'
p2133
aS'namenda xr'
p2134
aS'namzaric'
p2135
aS'nandrolone decanoate'
p2136
aS'naphazoline hydrochloride'
p2137
aS'naprelan'
p2138
aS'naprosyn'
p2139
aS'naproxen'
p2140
aS'naproxen and esomeprazole magnesium'
p2141
aS'naproxen sodium'
p2142
aS'naratriptan'
p2143
aS'nardil'
p2144
aS'naropin'
p2145
aS'nascobal'
p2146
aS'nasonex'
p2147
aS'natacyn'
p2148
aS'natazia'
p2149
aS'nateglinide'
p2150
aS'natesto'
p2151
aS'natrecor'
p2152
aS'natroba'
p2153
aS'navane'
p2154
aS'navelbine'
p2155
aS'navstel'
p2156
aS'nebupent'
p2157
aS'nedocromil sodium'
p2158
aS'nefazodone hydrochloride'
p2159
aS'nembutal sodium'
p2160
aS'neo-fradin'
p2161
aS'neo-synalar'
p2162
aS'neomycin and polymyxin b sulfate'
p2163
aS'neomycin and polymyxin b sulfates and bacitracin zinc'
p2164
aS'neomycin and polymyxin b sulfates and dexamethasone'
p2165
aS'neomycin and polymyxin b sulfates and gramicidin'
p2166
aS'neomycin and polymyxin b sulfates and hydrocortisone'
p2167
aS'neomycin and polymyxin b sulfates, bacitracin zinc and hydrocortisone'
p2168
aS'neomycin sulfate'
p2169
aS'neoprofen'
p2170
aS'neoral'
p2171
aS'neosporin'
p2172
aS'neosporin g.u. irrigant'
p2173
aS'neostigmine methylsulfate'
p2174
aS'nephramine 5.4%'
p2175
aS'nesacaine'
p2176
aS'nesacaine-mpf'
p2177
aS'nesina'
p2178
aS'neupro'
p2179
aS'neuraceq'
p2180
aS'neurolite'
p2181
aS'neurontin'
p2182
aS'nevanac'
p2183
aS'nevirapine'
p2184
aS'nexavar'
p2185
aS'nexium'
p2186
aS'nexium iv'
p2187
aS'nexplanon'
p2188
aS'nexterone'
p2189
aS'niacin'
p2190
aS'niacor'
p2191
aS'niaspan'
p2192
aS'nicardipine hydrochloride'
p2193
aS'nicotrol'
p2194
aS'nifedipine'
p2195
aS'nikki'
p2196
aS'nilandron'
p2197
aS'nimbex'
p2198
aS'nimbex preservative free'
p2199
aS'nimodipine'
p2200
aS'nipent'
p2201
aS'nisoldipine'
p2202
aS'nithiodote'
p2203
aS'nitro-dur'
p2204
aS'nitrofurantoin'
p2205
aS'nitrofurantoin (monohydrate/macrocrystals)'
p2206
aS'nitroglycerin'
p2207
aS'nitroglycerin in dextrose 5%'
p2208
aS'nitrolingual pumpspray'
p2209
aS'nitromist'
p2210
aS'nitropress'
p2211
aS'nitrostat'
p2212
aS'nizatidine'
p2213
aS'nizoral'
p2214
aS'nor-qd'
p2215
aS'norco'
p2216
aS'nordette-28'
p2217
aS'norditropin flexpro'
p2218
aS'norditropin nordiflex'
p2219
aS'norepinephrine bitartrate'
p2220
aS'norethindrone'
p2221
aS'norethindrone acetate'
p2222
aS'norethindrone acetate and ethinyl estradiol'
p2223
aS'norethindrone acetate and ethinyl estradiol and ferrous fumarate'
p2224
aS'norethindrone and ethinyl estradiol'
p2225
aS'norethindrone and ethinyl estradiol (10/11)'
p2226
aS'norethindrone and ethinyl estradiol and ferrous fumarate'
p2227
aS'norgestimate and ethinyl estradiol'
p2228
aS'norinyl 1+35 21-day'
p2229
aS'norinyl 1+35 28-day'
p2230
aS'norinyl 1+50 28-day'
p2231
aS'noritate'
p2232
aS'normocarb hf 25'
p2233
aS'normocarb hf 35'
p2234
aS'normosol-m and dextrose 5% in plastic container'
p2235
aS'normosol-r and dextrose 5% in plastic container'
p2236
aS'normosol-r in plastic container'
p2237
aS'norpace'
p2238
aS'norpace cr'
p2239
aS'norpramin'
p2240
aS'northera'
p2241
aS'nortrel 0.5/35-28'
p2242
aS'nortrel 1/35-21'
p2243
aS'nortrel 1/35-28'
p2244
aS'nortrel 7/7/7'
p2245
aS'nortriptyline hydrochloride'
p2246
aS'norvasc'
p2247
aS'norvir'
p2248
aS'novolog'
p2249
aS'novolog flexpen'
p2250
aS'novolog flextouch'
p2251
aS'novolog mix 70/30'
p2252
aS'novolog mix 70/30 flexpen'
p2253
aS'novolog penfill'
p2254
aS'noxafil'
p2255
aS'nucynta'
p2256
aS'nucynta er'
p2257
aS'nuedexta'
p2258
aS'nulytely'
p2259
aS'nulytely-flavored'
p2260
aS'nutracort'
p2261
aS'nutrestore'
p2262
aS'nutrilipid 10%'
p2263
aS'nutrilipid 20%'
p2264
aS'nutropin'
p2265
aS'nutropin aq'
p2266
aS'nutropin aq pen'
p2267
aS'nuvaring'
p2268
aS'nuvessa'
p2269
aS'nuvigil'
p2270
aS'nymalize'
p2271
aS'nystatin'
p2272
aS'nystatin and triamcinolone acetonide'
p2273
aS'nystop'
p2274
aS'obredon'
p2275
aS'octocaine'
p2276
aS'octreoscan'
p2277
aS'octreotide acetate'
p2278
aS'octreotide acetate (preservative free)'
p2279
aS'ocufen'
p2280
aS'ocuflox'
p2281
aS'ocupress'
p2282
aS'ofev'
p2283
aS'ofirmev'
p2284
aS'ofloxacin'
p2285
aS'ogen .625'
p2286
aS'ogen 1.25'
p2287
aS'ogen 2.5'
p2288
aS'ogen 5'
p2289
aS'ogestrel 0.5/50-28'
p2290
aS'olanzapine'
p2291
aS'olanzapine and fluoxetine hydrochloride'
p2292
aS'olopatadine hydrochloride'
p2293
aS'olux'
p2294
aS'olux e'
p2295
aS'olysio'
p2296
aS'omega-3-acid ethyl esters'
p2297
aS'omeprazole'
p2298
aS'omeprazole and clarithromycin and amoxicillin'
p2299
aS'omeprazole and sodium bicarbonate'
p2300
aS'omidria'
p2301
aS'omnaris'
p2302
aS'omnipaque 140'
p2303
aS'omnipaque 180'
p2304
aS'omnipaque 240'
p2305
aS'omnipaque 300'
p2306
aS'omnipaque 350'
p2307
aS'omnipred'
p2308
aS'omniscan'
p2309
aS'omnitrope'
p2310
aS'omtryg'
p2311
aS'ondansetron'
p2312
aS'ondansetron hydrochloride'
p2313
aS'ondansetron hydrochloride preservative free'
p2314
aS'onexton'
p2315
aS'onfi'
p2316
aS'onglyza'
p2317
aS'onmel'
p2318
aS'opana'
p2319
aS'opana er'
p2320
aS'opsumit'
p2321
aS'optimark'
p2322
aS'optimark in plastic container'
p2323
aS'optipranolol'
p2324
aS'optiray 240'
p2325
aS'optiray 300'
p2326
aS'optiray 320'
p2327
aS'optiray 350'
p2328
aS'optison'
p2329
aS'optivar'
p2330
aS'orabloc'
p2331
aS'oracea'
p2332
aS'oraltag'
p2333
aS'orap'
p2334
aS'orapred'
p2335
aS'orapred odt'
p2336
aS'oraqix'
p2337
aS'oraverse'
p2338
aS'oravig'
p2339
aS'orbactiv'
p2340
aS'orenitram'
p2341
aS'oretic'
p2342
aS'orfadin'
p2343
aS'orphenadrine citrate'
p2344
aS'orphenadrine citrate, aspirin, and caffeine'
p2345
aS'orsythia'
p2346
aS'ortho cyclen-28'
p2347
aS'ortho tri-cyclen'
p2348
aS'ortho tri-cyclen lo'
p2349
aS'ortho-cept'
p2350
aS'ortho-novum 1/35-28'
p2351
aS'ortho-novum 7/7/7-28'
p2352
aS'orvaten'
p2353
aS'oseni'
p2354
aS'osmitrol 10% in water'
p2355
aS'osmitrol 10% in water in plastic container'
p2356
aS'osmitrol 15% in water'
p2357
aS'osmitrol 15% in water in plastic container'
p2358
aS'osmitrol 20% in water'
p2359
aS'osmitrol 20% in water in plastic container'
p2360
aS'osmitrol 5% in water'
p2361
aS'osmitrol 5% in water in plastic container'
p2362
aS'osmoprep'
p2363
aS'osphena'
p2364
aS'otezla'
p2365
aS'oticair'
p2366
aS'otrexup'
p2367
aS'ovcon-35'
p2368
aS'ovide'
p2369
aS'ovidrel'
p2370
aS'oxacillin sodium'
p2371
aS'oxaliplatin'
p2372
aS'oxandrin'
p2373
aS'oxandrolone'
p2374
aS'oxaprozin'
p2375
aS'oxaydo'
p2376
aS'oxazepam'
p2377
aS'oxcarbazepine'
p2378
aS'oxilan-300'
p2379
aS'oxilan-350'
p2380
aS'oxistat'
p2381
aS'oxsoralen'
p2382
aS'oxsoralen-ultra'
p2383
aS'oxtellar xr'
p2384
aS'oxybutynin'
p2385
aS'oxybutynin chloride'
p2386
aS'oxycet'
p2387
aS'oxycodone and acetaminophen'
p2388
aS'oxycodone and aspirin'
p2389
aS'oxycodone hydrochloride'
p2390
aS'oxycodone hydrochloride and acetaminophen'
p2391
aS'oxycodone hydrochloride and ibuprofen'
p2392
aS'oxycontin'
p2393
aS'oxymorphone hydrochloride'
p2394
aS'oxytocin'
p2395
aS'oxytrol'
p2396
aS'ozurdex'
p2397
aS'pacerone'
p2398
aS'paclitaxel'
p2399
aS'pamelor'
p2400
aS'pamidronate disodium'
p2401
aS'pamine'
p2402
aS'pamine forte'
p2403
aS'pancreaze'
p2404
aS'pancuronium bromide'
p2405
aS'pandel'
p2406
aS'panretin'
p2407
aS'pantoprazole sodium'
p2408
aS'parafon forte dsc'
p2409
aS'paragard t 380a'
p2410
aS'paremyd'
p2411
aS'paricalcitol'
p2412
aS'parlodel'
p2413
aS'parnate'
p2414
aS'paroex'
p2415
aS'paromomycin sulfate'
p2416
aS'paroxetine'
p2417
aS'paroxetine hydrochloride'
p2418
aS'paser'
p2419
aS'pataday'
p2420
aS'patanase'
p2421
aS'patanol'
p2422
aS'paxil'
p2423
aS'paxil cr'
p2424
aS'pazeo'
p2425
aS'pce'
p2426
aS'pediamycin'
p2427
aS'pediamycin 400'
p2428
aS'pediapred'
p2429
aS'pediotic'
p2430
aS'peg 3350 and electrolytes'
p2431
aS'peg-3350, sodium chloride, sodium bicarbonate, potassium chloride and bisacodyl'
p2432
aS'peg-3350;potassium chloride;sodium bicarbonate;sodium chloride'
p2433
aS'peganone'
p2434
aS'penicillin g potassium'
p2435
aS'penicillin g potassium in plastic container'
p2436
aS'penicillin g procaine'
p2437
aS'penicillin g sodium'
p2438
aS'penicillin v potassium'
p2439
aS'penicillin-vk'
p2440
aS'penlac'
p2441
aS'pennsaid'
p2442
aS'pentam'
p2443
aS'pentasa'
p2444
aS'pentolair'
p2445
aS'pentostatin'
p2446
aS'pentoxifylline'
p2447
aS'pentoxil'
p2448
aS'pepcid'
p2449
aS'percocet'
p2450
aS'percodan'
p2451
aS'perforomist'
p2452
aS'peridex'
p2453
aS'perikabiven in plastic container'
p2454
aS'perindopril erbumine'
p2455
aS'periochip'
p2456
aS'periogard'
p2457
aS'permapen'
p2458
aS'permethrin'
p2459
aS'perphenazine'
p2460
aS'perphenazine and amitriptyline hydrochloride'
p2461
aS'persantine'
p2462
aS'pertzye'
p2463
aS'pexeva'
p2464
aS'pfizerpen'
p2465
aS'phendimetrazine tartrate'
p2466
aS'phenelzine sulfate'
p2467
aS'phenoxybenzamine hydrochloride'
p2468
aS'phentermine hydrochloride'
p2469
aS'phentermine resin complex'
p2470
aS'phentolamine mesylate'
p2471
aS'phenylephrine hydrochloride'
p2472
aS'phenylephrine hydrochloride and promethazine hydrochloride'
p2473
aS'phenytek'
p2474
aS'phenytoin'
p2475
aS'phenytoin sodium'
p2476
aS'philith'
p2477
aS'phisohex'
p2478
aS'phoslo gelcaps'
p2479
aS'phoslyra'
p2480
aS'phospholine iodide'
p2481
aS'photofrin'
p2482
aS'phoxillum b22k 4/0 in plastic container'
p2483
aS'phoxillum bk 4/2.5 in plastic container'
p2484
aS'physiolyte in plastic container'
p2485
aS'physiosol in plastic container'
p2486
aS'phytonadione'
p2487
aS'picato'
p2488
aS'pilocarpine hydrochloride'
p2489
aS'pilopine hs'
p2490
aS'pimtrea'
p2491
aS'pindolol'
p2492
aS'pioglitazone hydrochloride'
p2493
aS'pioglitazone hydrochloride and glimepiride'
p2494
aS'pioglitazone hydrochloride and metformin hydrochloride'
p2495
aS'piperacillin'
p2496
aS'piperacillin and tazobactam'
p2497
aS'pirmella 1/35'
p2498
aS'pirmella 7/7/7'
p2499
aS'piroxicam'
p2500
aS'pitocin'
p2501
aS'plan b'
p2502
aS'plaquenil'
p2503
aS'plasma-lyte 148 in water in plastic container'
p2504
aS'plasma-lyte 56 and dextrose 5% in plastic container'
p2505
aS'plasma-lyte a in plastic container'
p2506
aS'plavix'
p2507
aS'plegisol in plastic container'
p2508
aS'plendil'
p2509
aS'pletal'
p2510
aS'pliaglis'
p2511
aS'podofilox'
p2512
aS'polocaine'
p2513
aS'polocaine-mpf'
p2514
aS'polyethylene glycol 3350'
p2515
aS'polymycin b sulfate'
p2516
aS'polymyxin b sulfate'
p2517
aS'polytrim'
p2518
aS'pomalyst'
p2519
aS'ponstel'
p2520
aS'portia-28'
p2521
aS'potassium acetate in plastic container'
p2522
aS'potassium chloride'
p2523
aS'potassium chloride 0.037% in dextrose 10% and sodium chloride 0.2% in plastic container'
p2524
aS'potassium chloride 0.037% in dextrose 10% and sodium chloride 0.45% in plastic container'
p2525
aS'potassium chloride 0.037% in dextrose 10% and sodium chloride 0.9% in plastic container'
p2526
aS'potassium chloride 0.037% in dextrose 5% and sodium chloride 0.11% in plastic container'
p2527
aS'potassium chloride 0.037% in dextrose 5% and sodium chloride 0.2% in plastic container'
p2528
aS'potassium chloride 0.037% in dextrose 5% and sodium chloride 0.33% in plastic container'
p2529
aS'potassium chloride 0.037% in dextrose 5% and sodium chloride 0.45% in plastic container'
p2530
aS'potassium chloride 0.037% in dextrose 5% and sodium chloride 0.9% in plastic container'
p2531
aS'potassium chloride 0.075% in dextrose 10% and sodium chloride 0.2% in plastic container'
p2532
aS'potassium chloride 0.075% in dextrose 10% and sodium chloride 0.45% in plastic container'
p2533
aS'potassium chloride 0.075% in dextrose 10% and sodium chloride 0.9% in plastic container'
p2534
aS'potassium chloride 0.075% in dextrose 3.3% and sodium chloride 0.3% in plastic container'
p2535
aS'potassium chloride 0.075% in dextrose 5% and sodium chloride 0.11% in plastic container'
p2536
aS'potassium chloride 0.075% in dextrose 5% and sodium chloride 0.2% in plastic container'
p2537
aS'potassium chloride 0.075% in dextrose 5% and sodium chloride 0.33% in plastic container'
p2538
aS'potassium chloride 0.075% in dextrose 5% and sodium chloride 0.45% in plastic container'
p2539
aS'potassium chloride 0.075% in dextrose 5% and sodium chloride 0.9% in plastic container'
p2540
aS'potassium chloride 0.075% in dextrose 5% in plastic container'
p2541
aS'potassium chloride 0.11% in dextrose 10% and sodium chloride 0.2% in plastic container'
p2542
aS'potassium chloride 0.11% in dextrose 10% and sodium chloride 0.45% in plastic container'
p2543
aS'potassium chloride 0.11% in dextrose 10% and sodium chloride 0.9% in plastic container'
p2544
aS'potassium chloride 0.11% in dextrose 3.3% and sodium chloride 0.3% in plastic container'
p2545
aS'potassium chloride 0.11% in dextrose 5% and sodium chloride 0.11% in plastic container'
p2546
aS'potassium chloride 0.11% in dextrose 5% and sodium chloride 0.2% in plastic container'
p2547
aS'potassium chloride 0.11% in dextrose 5% and sodium chloride 0.33% in plastic container'
p2548
aS'potassium chloride 0.11% in dextrose 5% and sodium chloride 0.45% in plastic container'
p2549
aS'potassium chloride 0.11% in dextrose 5% and sodium chloride 0.9% in plastic container'
p2550
aS'potassium chloride 0.149% in sodium chloride 0.45% in plastic container'
p2551
aS'potassium chloride 0.15% in dextrose 10% and sodium chloride 0.2% in plastic container'
p2552
aS'potassium chloride 0.15% in dextrose 10% and sodium chloride 0.45% in plastic container'
p2553
aS'potassium chloride 0.15% in dextrose 10% and sodium chloride 0.9% in plastic container'
p2554
aS'potassium chloride 0.15% in dextrose 3.3% and sodium chloride 0.3% in plastic container'
p2555
aS'potassium chloride 0.15% in dextrose 5% and sodium chloride 0.11% in plastic container'
p2556
aS'potassium chloride 0.15% in dextrose 5% and sodium chloride 0.2% in plastic container'
p2557
aS'potassium chloride 0.15% in dextrose 5% and sodium chloride 0.33% in plastic container'
p2558
aS'potassium chloride 0.15% in dextrose 5% and sodium chloride 0.45% in plastic container'
p2559
aS'potassium chloride 0.15% in dextrose 5% and sodium chloride 0.9% in plastic container'
p2560
aS'potassium chloride 0.15% in dextrose 5% in plastic container'
p2561
aS'potassium chloride 0.15% in sodium chloride 0.45% in plastic container'
p2562
aS'potassium chloride 0.15% in sodium chloride 0.9% in plastic container'
p2563
aS'potassium chloride 0.22% in dextrose 10% and sodium chloride 0.2% in plastic container'
p2564
aS'potassium chloride 0.22% in dextrose 10% and sodium chloride 0.45% in plastic container'
p2565
aS'potassium chloride 0.22% in dextrose 10% and sodium chloride 0.9% in plastic container'
p2566
aS'potassium chloride 0.22% in dextrose 3.3% and sodium chloride 0.3% in plastic container'
p2567
aS'potassium chloride 0.22% in dextrose 5% and sodium chloride 0.11% in plastic container'
p2568
aS'potassium chloride 0.22% in dextrose 5% and sodium chloride 0.2% in plastic container'
p2569
aS'potassium chloride 0.22% in dextrose 5% and sodium chloride 0.33% in plastic container'
p2570
aS'potassium chloride 0.22% in dextrose 5% and sodium chloride 0.45% in plastic container'
p2571
aS'potassium chloride 0.22% in dextrose 5% and sodium chloride 0.9% in plastic container'
p2572
aS'potassium chloride 0.224% in sodium chloride 0.9%'
p2573
aS'potassium chloride 0.3% and sodium chloride 0.9% in plastic container'
p2574
aS'potassium chloride 0.3% in dextrose 10% and sodium chloride 0.2% in plastic container'
p2575
aS'potassium chloride 0.3% in dextrose 10% and sodium chloride 0.45% in plastic container'
p2576
aS'potassium chloride 0.3% in dextrose 10% and sodium chloride 0.9% in plastic container'
p2577
aS'potassium chloride 0.3% in dextrose 3.3% and sodium chloride 0.3% in plastic container'
p2578
aS'potassium chloride 0.3% in dextrose 5% and sodium chloride 0.11% in plastic container'
p2579
aS'potassium chloride 0.3% in dextrose 5% and sodium chloride 0.2% in plastic container'
p2580
aS'potassium chloride 0.3% in dextrose 5% and sodium chloride 0.33% in plastic container'
p2581
aS'potassium chloride 0.3% in dextrose 5% and sodium chloride 0.45% in plastic container'
p2582
aS'potassium chloride 0.3% in dextrose 5% and sodium chloride 0.9% in plastic container'
p2583
aS'potassium chloride 0.3% in dextrose 5% in plastic container'
p2584
aS"potassium chloride 10meq in dextrose 5% and lactated ringer's in plastic container"
p2585
aS'potassium chloride 10meq in dextrose 5% and sodium chloride 0.225% in plastic container'
p2586
aS'potassium chloride 10meq in dextrose 5% and sodium chloride 0.3% in plastic container'
p2587
aS'potassium chloride 10meq in dextrose 5% and sodium chloride 0.45% in plastic container'
p2588
aS'potassium chloride 10meq in dextrose 5% and sodium chloride 0.9% in plastic container'
p2589
aS'potassium chloride 10meq in plastic container'
p2590
aS"potassium chloride 15meq in dextrose 5% and lactated ringer's in plastic container"
p2591
aS'potassium chloride 15meq in dextrose 5% and sodium chloride 0.225% in plastic container'
p2592
aS'potassium chloride 15meq in dextrose 5% and sodium chloride 0.3% in plastic container'
p2593
aS'potassium chloride 15meq in dextrose 5% and sodium chloride 0.45% in plastic container'
p2594
aS'potassium chloride 15meq in dextrose 5% and sodium chloride 0.9% in plastic container'
p2595
aS"potassium chloride 20meq in dextrose 5% and lactated ringer's in plastic container"
p2596
aS'potassium chloride 20meq in dextrose 5% and sodium chloride 0.225% in plastic container'
p2597
aS'potassium chloride 20meq in dextrose 5% and sodium chloride 0.3% in plastic container'
p2598
aS'potassium chloride 20meq in dextrose 5% and sodium chloride 0.45% in plastic container'
p2599
aS'potassium chloride 20meq in dextrose 5% and sodium chloride 0.9% in plastic container'
p2600
aS'potassium chloride 20meq in dextrose 5% in plastic container'
p2601
aS'potassium chloride 20meq in dextrose 5% in sodium chloride 0.3% in plastic container'
p2602
aS'potassium chloride 20meq in plastic container'
p2603
aS'potassium chloride 20meq in sodium chloride 0.9% in plastic container'
p2604
aS"potassium chloride 30meq in dextrose 5% and lactated ringer's in plastic container"
p2605
aS'potassium chloride 30meq in dextrose 5% and sodium chloride 0.225% in plastic container'
p2606
aS'potassium chloride 30meq in dextrose 5% and sodium chloride 0.3% in plastic container'
p2607
aS'potassium chloride 30meq in dextrose 5% and sodium chloride 0.45% in plastic container'
p2608
aS'potassium chloride 30meq in dextrose 5% and sodium chloride 0.9% in plastic container'
p2609
aS'potassium chloride 30meq in dextrose 5% in plastic container'
p2610
aS'potassium chloride 30meq in plastic container'
p2611
aS"potassium chloride 40meq in dextrose 5% and lactated ringer's in plastic container"
p2612
aS'potassium chloride 40meq in dextrose 5% and sodium chloride 0.225% in plastic container'
p2613
aS'potassium chloride 40meq in dextrose 5% and sodium chloride 0.3% in plastic container'
p2614
aS'potassium chloride 40meq in dextrose 5% and sodium chloride 0.45% in plastic container'
p2615
aS'potassium chloride 40meq in dextrose 5% and sodium chloride 0.9% in plastic container'
p2616
aS'potassium chloride 40meq in dextrose 5% in plastic container'
p2617
aS'potassium chloride 40meq in plastic container'
p2618
aS'potassium chloride 40meq in sodium chloride 0.9% in plastic container'
p2619
aS"potassium chloride 5meq in dextrose 5% and lactated ringer's in plastic container"
p2620
aS'potassium chloride 5meq in dextrose 5% and sodium chloride 0.225% in plastic container'
p2621
aS'potassium chloride 5meq in dextrose 5% and sodium chloride 0.3% in plastic container'
p2622
aS'potassium chloride 5meq in dextrose 5% and sodium chloride 0.45% in plastic container'
p2623
aS'potassium chloride 5meq in dextrose 5% and sodium chloride 0.9% in plastic container'
p2624
aS'potassium chloride in plastic container'
p2625
aS'potassium citrate'
p2626
aS'potiga'
p2627
aS'pradaxa'
p2628
aS'pralidoxime chloride'
p2629
aS'pramipexole dihydrochloride'
p2630
aS'pramosone'
p2631
aS'prandimet'
p2632
aS'prandin'
p2633
aS'pravachol'
p2634
aS'pravastatin sodium'
p2635
aS'prazosin hydrochloride'
p2636
aS'pre-op'
p2637
aS'pre-op ii'
p2638
aS'pre-pen'
p2639
aS'precedex'
p2640
aS'precose'
p2641
aS'pred forte'
p2642
aS'pred mild'
p2643
aS'pred-g'
p2644
aS'prednicarbate'
p2645
aS'prednisolone'
p2646
aS'prednisolone sodium phosphate'
p2647
aS'prednisone'
p2648
aS'prednisone intensol'
p2649
aS'pregnyl'
p2650
aS'prelone'
p2651
aS'premarin'
p2652
aS'premasol 10% in plastic container'
p2653
aS'premasol 6% in plastic container'
p2654
aS'premphase 14/14'
p2655
aS'prempro'
p2656
aS'prepidil'
p2657
aS'prepopik'
p2658
aS'prestalia'
p2659
aS'prevacid'
p2660
aS'prevalite'
p2661
aS'previfem'
p2662
aS'prevpac'
p2663
aS'prezcobix'
p2664
aS'prezista'
p2665
aS'prialt'
p2666
aS'priftin'
p2667
aS'prilocaine hydrochloride'
p2668
aS'prilocaine hydrochloride and epinephrine bitartrate'
p2669
aS'prilosec'
p2670
aS'primaquine'
p2671
aS'primaquine phosphate'
p2672
aS'primaxin'
p2673
aS'primidone'
p2674
aS'primsol'
p2675
aS'prinivil'
p2676
aS'prinzide'
p2677
aS'prismasol b22gk 2/0 in plastic container'
p2678
aS'prismasol b22gk 4/0 in plastic container'
p2679
aS'prismasol b22gk 4/2.5 in plastic container'
p2680
aS'prismasol bgk 0/2.5 in plastic container'
p2681
aS'prismasol bgk 2/0 in plastic container'
p2682
aS'prismasol bgk 2/3.5 in plastic container'
p2683
aS'prismasol bgk 4/0/1.2 in plastic container'
p2684
aS'prismasol bgk 4/2.5 in plastic container'
p2685
aS'prismasol bk 0/0/1.2 in plastic container'
p2686
aS'prismasol bk 0/3.5 in plastic container'
p2687
aS'pristiq'
p2688
aS'proair hfa'
p2689
aS'proair respiclick'
p2690
aS'probalan'
p2691
aS'probenecid'
p2692
aS'probenecid and colchicine'
p2693
aS'procainamide hydrochloride'
p2694
aS'procalamine'
p2695
aS'procardia'
p2696
aS'procardia xl'
p2697
aS'prochlorperazine'
p2698
aS'prochlorperazine edisylate'
p2699
aS'prochlorperazine maleate'
p2700
aS'procomp'
p2701
aS'proctofoam hc'
p2702
aS'procysbi'
p2703
aS'proferdex'
p2704
aS'progesterone'
p2705
aS'proglycem'
p2706
aS'prograf'
p2707
aS'prohance'
p2708
aS'prohance multipack'
p2709
aS'prolensa'
p2710
aS'promacta'
p2711
aS'prometh hydrochloride,phenylephrine hydrochloride w/codeine phosphate'
p2712
aS'prometh vc plain'
p2713
aS'prometh vc w/ codeine'
p2714
aS'promethazine dm'
p2715
aS'promethazine hydrochloride'
p2716
aS'promethazine hydrochloride and codeine phosphate'
p2717
aS'promethazine hydrochloride and dextromethorphan hydrobromide'
p2718
aS'promethazine hydrochloride and phenylephrine hydrochloride'
p2719
aS'promethazine hydrochloride, phenylephrine hydrochloride w/codeine phosphate'
p2720
aS'promethazine plain'
p2721
aS'promethazine w/ dextromethorphan'
p2722
aS'promethazine with codeine'
p2723
aS'promethegan'
p2724
aS'prometrium'
p2725
aS'propafenone hydrochloride'
p2726
aS'propantheline bromide'
p2727
aS'proparacaine hydrochloride'
p2728
aS'propecia'
p2729
aS'propofol'
p2730
aS'propranolol hydrochloride'
p2731
aS'propranolol hydrochloride and hydrochlorothiazide'
p2732
aS'propylthiouracil'
p2733
aS'proscar'
p2734
aS'prosol 20% sulfite free in plastic container'
p2735
aS'prostin e2'
p2736
aS'prostin vr pediatric'
p2737
aS'protamine sulfate'
p2738
aS'protonix'
p2739
aS'protonix iv'
p2740
aS'protopam chloride'
p2741
aS'protopic'
p2742
aS'protriptyline hydrochloride'
p2743
aS'proventil-hfa'
p2744
aS'provera'
p2745
aS'provigil'
p2746
aS'provocholine'
p2747
aS'prozac'
p2748
aS'prozac weekly'
p2749
aS'pulmicort flexhaler'
p2750
aS'pulmicort respules'
p2751
aS'pulmolite'
p2752
aS'purixan'
p2753
aS'pylera'
p2754
aS'pyrazinamide'
p2755
aS'pyridostigmine bromide'
p2756
aS'pyridoxine hydrochloride'
p2757
aS'pytest'
p2758
aS'pytest kit'
p2759
aS'qnasl'
p2760
aS'qoliana'
p2761
aS'qsymia'
p2762
aS'quadramet'
p2763
aS'qualaquin'
p2764
aS'quartette'
p2765
aS'quasense'
p2766
aS'qudexy xr'
p2767
aS'quelicin'
p2768
aS'quelicin preservative free'
p2769
aS'quetiapine fumarate'
p2770
aS'quillivant xr'
p2771
aS'quinapril hydrochloride'
p2772
aS'quinapril hydrochloride and hydrochlorothiazide'
p2773
aS'quinaretic'
p2774
aS'quinidine gluconate'
p2775
aS'quinidine sulfate'
p2776
aS'quinine sulfate'
p2777
aS'quixin'
p2778
aS'qutenza'
p2779
aS'qvar 40'
p2780
aS'qvar 80'
p2781
aS'r-gene 10'
p2782
aS'rabeprazole sodium'
p2783
aS'radiogardase (prussian blue)'
p2784
aS'raloxifene hydrochloride'
p2785
aS'ramelteon'
p2786
aS'ramipril'
p2787
aS'ranexa'
p2788
aS'ranitidine hydrochloride'
p2789
aS'ranolazine'
p2790
aS'rapaflo'
p2791
aS'rapamune'
p2792
aS'rapivab'
p2793
aS'rasagiline mesylate'
p2794
aS'rasuvo'
p2795
aS'ravicti'
p2796
aS'rayos'
p2797
aS'razadyne'
p2798
aS'razadyne er'
p2799
aS'rebetol'
p2800
aS'reclast'
p2801
aS'rectiv'
p2802
aS'regitine'
p2803
aS'reglan'
p2804
aS'regonol'
p2805
aS'relenza'
p2806
aS'relistor'
p2807
aS'relpax'
p2808
aS'remeron'
p2809
aS'remeron soltab'
p2810
aS'remodulin'
p2811
aS'renacidin'
p2812
aS'renagel'
p2813
aS'renografin-76'
p2814
aS'renova'
p2815
aS'renvela'
p2816
aS'repaglinide'
p2817
aS'reprexain'
p2818
aS'repronex'
p2819
aS'requip'
p2820
aS'requip xl'
p2821
aS'rescriptor'
p2822
aS'rescula'
p2823
aS'resectisol in plastic container'
p2824
aS'reserpine'
p2825
aS'restasis'
p2826
aS'restoril'
p2827
aS'retin-a'
p2828
aS'retin-a micro'
p2829
aS'retin-a-micro'
p2830
aS'retisert'
p2831
aS'retrovir'
p2832
aS'revatio'
p2833
aS'revia'
p2834
aS'revlimid'
p2835
aS'revonto'
p2836
aS'reyataz'
p2837
aS'rezira'
p2838
aS'ribasphere'
p2839
aS'ribavarin'
p2840
aS'ribavirin'
p2841
aS'ridaura'
p2842
aS'rifabutin'
p2843
aS'rifadin'
p2844
aS'rifamate'
p2845
aS'rifampin'
p2846
aS'rifater'
p2847
aS'rilutek'
p2848
aS'riluzole'
p2849
aS'rimactane'
p2850
aS'rimantadine hydrochloride'
p2851
aS'rimso-50'
p2852
aS"ringer's in plastic container"
p2853
aS'riomet'
p2854
aS'risedronate sodium'
p2855
aS'risperdal'
p2856
aS'risperdal consta'
p2857
aS'risperidone'
p2858
aS'ritalin'
p2859
aS'ritalin la'
p2860
aS'ritalin-sr'
p2861
aS'ritonavir'
p2862
aS'rivastigmine tartrate'
p2863
aS'rizatriptan benzoate'
p2864
aS'robaxin'
p2865
aS'robaxin-750'
p2866
aS'robinul'
p2867
aS'robinul forte'
p2868
aS'rocaltrol'
p2869
aS'rocephin'
p2870
aS'rocuronium bromide'
p2871
aS'ropinirole hydrochloride'
p2872
aS'ropivacaine hydrochloride'
p2873
aS'rosiglitazone maleate'
p2874
aS'rosiglitazone maleate and metformin hydrochloride'
p2875
aS'rowasa'
p2876
aS'roxicet'
p2877
aS'roxicodone'
p2878
aS'rozerem'
p2879
aS'ryanodex'
p2880
aS'rytary'
p2881
aS'rythmol'
p2882
aS'rythmol sr'
p2883
aS'sabril'
p2884
aS'safyral'
p2885
aS'saizen'
p2886
aS'salagen'
p2887
aS'saluron'
p2888
aS'samsca'
p2889
aS'sanctura'
p2890
aS'sanctura xr'
p2891
aS'sancuso'
p2892
aS'sandimmune'
p2893
aS'sandostatin'
p2894
aS'sandostatin lar'
p2895
aS'saphris'
p2896
aS'sarafem'
p2897
aS'savaysa'
p2898
aS'savella'
p2899
aS'saxenda'
p2900
aS'scandonest l'
p2901
aS'scandonest plain'
p2902
aS'scanlux-300'
p2903
aS'scanlux-370'
p2904
aS'sclerosol'
p2905
aS'scopolamine'
p2906
aS'seasonale'
p2907
aS'seasonique'
p2908
aS'seconal sodium'
p2909
aS'sectral'
p2910
aS'selegiline hydrochloride'
p2911
aS'selenium sulfide'
p2912
aS'selfemra'
p2913
aS'selsun'
p2914
aS'selzentry'
p2915
aS'semprex-d'
p2916
aS'sensipar'
p2917
aS'sensorcaine'
p2918
aS'septocaine'
p2919
aS'septra'
p2920
aS'septra ds'
p2921
aS'serevent'
p2922
aS'seromycin'
p2923
aS'serophene'
p2924
aS'seroquel'
p2925
aS'seroquel xr'
p2926
aS'serostim'
p2927
aS'sertraline hydrochloride'
p2928
aS'setlakin'
p2929
aS'sevoflurane'
p2930
aS'sfrowasa'
p2931
aS'signifor'
p2932
aS'signifor lar'
p2933
aS'sildenafil citrate'
p2934
aS'silenor'
p2935
aS'silvadene'
p2936
aS'simbrinza'
p2937
aS'simcor'
p2938
aS'simvastatin'
p2939
aS'sinemet'
p2940
aS'sinemet cr'
p2941
aS'singulair'
p2942
aS'sinografin'
p2943
aS'sirolimus'
p2944
aS'sirturo'
p2945
aS'sitavig'
p2946
aS'sivextro'
p2947
aS'skelaxin'
p2948
aS'sklice'
p2949
aS'skyla'
p2950
aS'sodium acetate in plastic container'
p2951
aS'sodium bicarbonate'
p2952
aS'sodium chloride 0.45% in plastic container'
p2953
aS'sodium chloride 0.9%'
p2954
aS'sodium chloride 0.9% '
p2955
aS'sodium chloride 0.9% in plastic container'
p2956
aS'sodium chloride 0.9% in sterile plastic container'
p2957
aS'sodium chloride 3% in plastic container'
p2958
aS'sodium chloride 5% in plastic container'
p2959
aS'sodium chloride in plastic container'
p2960
aS'sodium ferric gluconate complex in sucrose'
p2961
aS'sodium fluoride f-18'
p2962
aS'sodium iodide i 123'
p2963
aS'sodium iodide i 131'
p2964
aS'sodium iodide i-131'
p2965
aS'sodium lactate 0.167 molar in plastic container'
p2966
aS'sodium lactate 1/6 molar in plastic container'
p2967
aS'sodium lactate in plastic container'
p2968
aS'sodium nitrite'
p2969
aS'sodium phenylbutyrate'
p2970
aS'sodium phosphates in plastic container'
p2971
aS'sodium polystyrene sulfonate'
p2972
aS'sodium thiosulfate'
p2973
aS'sojourn'
p2974
aS'solaraze'
p2975
aS'solifenacin succinate'
p2976
aS'solodyn'
p2977
aS'soltamox'
p2978
aS'solu-cortef'
p2979
aS'solu-medrol'
p2980
aS'soma'
p2981
aS'soma compound'
p2982
aS'soma compound w/ codeine'
p2983
aS'somatuline depot'
p2984
aS'somavert'
p2985
aS'sonata'
p2986
aS'soolantra'
p2987
aS'sorbitol 3% in plastic container'
p2988
aS'sorbitol 3.3% in plastic container'
p2989
aS'sorbitol-mannitol in plastic container'
p2990
aS'soriatane'
p2991
aS'sorilux'
p2992
aS'sorine'
p2993
aS'sotalol hydrochloride'
p2994
aS'sotradecol'
p2995
aS'sotret'
p2996
aS'sotylize'
p2997
aS'sovaldi'
p2998
aS'spectracef'
p2999
aS'spiriva'
p3000
aS'spiriva respimat'
p3001
aS'spironolactone'
p3002
aS'spironolactone and hydrochlorothiazide'
p3003
aS'sporanox'
p3004
aS'sprintec'
p3005
aS'sprix'
p3006
aS'sprycel'
p3007
aS'sps'
p3008
aS'ssd'
p3009
aS'ssd af'
p3010
aS'stalevo 100'
p3011
aS'stalevo 125'
p3012
aS'stalevo 150'
p3013
aS'stalevo 200'
p3014
aS'stalevo 50'
p3015
aS'stalevo 75'
p3016
aS'starlix'
p3017
aS'stavudine'
p3018
aS'staxyn'
p3019
aS'stendra'
p3020
aS'sterile water'
p3021
aS'sterile water for injection in plastic container'
p3022
aS'sterile water in plastic container'
p3023
aS'stie-cort'
p3024
aS'stimate (needs no refrigeration)'
p3025
aS'stivarga'
p3026
aS'strattera'
p3027
aS'streptomycin sulfate'
p3028
aS'striant'
p3029
aS'stribild'
p3030
aS'striverdi respimat'
p3031
aS'stromectol'
p3032
aS'strontium chloride sr-89'
p3033
aS'sublimaze preservative free'
p3034
aS'suboxone'
p3035
aS'subsys'
p3036
aS'suclear'
p3037
aS'sucraid'
p3038
aS'sucralfate'
p3039
aS'sufenta preservative free'
p3040
aS'sufentanil citrate'
p3041
aS'sular'
p3042
aS'sulfacetamide sodium'
p3043
aS'sulfacetamide sodium and prednisolone sodium phosphate'
p3044
aS'sulfadiazine'
p3045
aS'sulfamethoxazole and trimethoprim'
p3046
aS'sulfamethoxazole and trimethoprim double strength'
p3047
aS'sulfamethoxazole and trimethoprim single strength'
p3048
aS'sulfamylon'
p3049
aS'sulfasalazine'
p3050
aS'sulfatrim pediatric'
p3051
aS'sulindac'
p3052
aS'sumatriptan succinate'
p3053
aS'sumavel dosepro'
p3054
aS'sunitinib malate'
p3055
aS'supprelin la'
p3056
aS'suprane'
p3057
aS'suprax'
p3058
aS'suprenza'
p3059
aS'suprep bowel prep kit'
p3060
aS'surfaxin'
p3061
aS'surmontil'
p3062
aS'survanta'
p3063
aS'sustiva'
p3064
aS'sutent'
p3065
aS'syeda'
p3066
aS'symbicort'
p3067
aS'symbyax'
p3068
aS'symlin'
p3069
aS'synacort'
p3070
aS'synalar'
p3071
aS'synalgos-dc'
p3072
aS'synarel'
p3073
aS'synera'
p3074
aS'synercid'
p3075
aS'synribo'
p3076
aS'synthroid'
p3077
aS'syprine'
p3078
aS'taclonex'
p3079
aS'tacrolimus'
p3080
aS'tafinlar'
p3081
aS'talc'
p3082
aS'talwin'
p3083
aS'tamiflu'
p3084
aS'tamoxifen citrate'
p3085
aS'tamsulosin hydrochloride'
p3086
aS'tapazole'
p3087
aS'tarceva'
p3088
aS'targretin'
p3089
aS'tarka'
p3090
aS'tasigna'
p3091
aS'tasmar'
p3092
aS'taxol'
p3093
aS'taxotere'
p3094
aS'tazicef'
p3095
aS'tazorac'
p3096
aS'taztia xt'
p3097
aS'tecfidera'
p3098
aS'technelite'
p3099
aS'technescan'
p3100
aS'technescan mag3'
p3101
aS'technescan pyp kit'
p3102
aS'technetium tc 99m albumin aggregated kit'
p3103
aS'technetium tc 99m generator'
p3104
aS'technetium tc 99m sestamibi'
p3105
aS'technetium tc-99m mebrofenin'
p3106
aS'technetium tc-99m sestamibi'
p3107
aS'teflaro'
p3108
aS'tegretol'
p3109
aS'tegretol-xr'
p3110
aS'tekamlo'
p3111
aS'tekturna'
p3112
aS'tekturna hct'
p3113
aS'telmisartan'
p3114
aS'telmisartan and amlodipine'
p3115
aS'telmisartan and hydrochlorothiazide'
p3116
aS'temazepam'
p3117
aS'temodar'
p3118
aS'temovate'
p3119
aS'temovate e'
p3120
aS'temozolomide'
p3121
aS'tenex'
p3122
aS'tenofovir disoproxil fumarate'
p3123
aS'tenoretic 100'
p3124
aS'tenoretic 50'
p3125
aS'tenormin'
p3126
aS'tenuate'
p3127
aS'tenuate dospan'
p3128
aS'terazol 3'
p3129
aS'terazol 7'
p3130
aS'terazosin hydrochloride'
p3131
aS'terbinafine hydrochloride'
p3132
aS'terbutaline sulfate'
p3133
aS'terconazole'
p3134
aS'teril'
p3135
aS'terramycin w/ polymyxin b sulfate'
p3136
aS'tessalon'
p3137
aS'testim'
p3138
aS'testopel'
p3139
aS'testosterone'
p3140
aS'testosterone cypionate'
p3141
aS'testosterone enanthate'
p3142
aS'testred'
p3143
aS'tetracycline hydrochloride'
p3144
aS'teveten'
p3145
aS'teveten hct'
p3146
aS'texacort'
p3147
aS'thalitone'
p3148
aS'thallous chloride tl 201'
p3149
aS'thalomid'
p3150
aS'tham'
p3151
aS'theo-24'
p3152
aS'theochron'
p3153
aS'theophylline'
p3154
aS'theophylline 0.04% and dextrose 5% in plastic container'
p3155
aS'theophylline 0.08% and dextrose 5% in plastic container'
p3156
aS'theophylline 0.16% and dextrose 5% in plastic container'
p3157
aS'theophylline 0.32% and dextrose 5% in plastic container'
p3158
aS'theophylline in dextrose 5% in plastic container'
p3159
aS'thermazene'
p3160
aS'thiamine hydrochloride'
p3161
aS'thioguanine'
p3162
aS'thiola'
p3163
aS'thioridazine hydrochloride'
p3164
aS'thiotepa'
p3165
aS'thiothixene'
p3166
aS'thyrogen'
p3167
aS'thyrolar-0.25'
p3168
aS'thyrolar-0.5'
p3169
aS'thyrolar-1'
p3170
aS'thyrolar-2'
p3171
aS'thyrolar-3'
p3172
aS'tiagabine hydrochloride'
p3173
aS'tiazac'
p3174
aS'ticlopidine hydrochloride'
p3175
aS'tigan'
p3176
aS'tikosyn'
p3177
aS'timentin'
p3178
aS'timentin in plastic container'
p3179
aS'timolol maleate'
p3180
aS'timoptic'
p3181
aS'timoptic in ocudose'
p3182
aS'timoptic-xe'
p3183
aS'tindamax'
p3184
aS'tinidazole'
p3185
aS'tirosint'
p3186
aS'tis-u-sol'
p3187
aS'tis-u-sol in plastic container'
p3188
aS'tivicay'
p3189
aS'tivorbex'
p3190
aS'tizanidine hydrochloride'
p3191
aS'tobi'
p3192
aS'tobi podhaler'
p3193
aS'tobradex'
p3194
aS'tobradex st'
p3195
aS'tobramycin'
p3196
aS'tobramycin and dexamethasone'
p3197
aS'tobramycin sulfate'
p3198
aS'tobramycin sulfate (pharmacy bulk)'
p3199
aS'tobramycin sulfate in sodium chloride 0.9% in plastic container'
p3200
aS'tobrex'
p3201
aS'tofranil'
p3202
aS'tofranil-pm'
p3203
aS'tolazamide'
p3204
aS'tolbutamide'
p3205
aS'tolcapone'
p3206
aS'tolmetin sodium'
p3207
aS'tolterodine tartrate'
p3208
aS'topamax'
p3209
aS'topicort'
p3210
aS'topiramate'
p3211
aS'topiramate '
p3212
aS'topotecan hydrochloride'
p3213
aS'toprol-xl'
p3214
aS'torisel'
p3215
aS'torsemide'
p3216
aS'totect'
p3217
aS'toujeo solostar'
p3218
aS'toviaz'
p3219
aS'tpn electrolytes in plastic container'
p3220
aS'tracleer'
p3221
aS'tradjenta'
p3222
aS'tramadol hydrochloride'
p3223
aS'tramadol hydrochloride and acetaminophen'
p3224
aS'trandate'
p3225
aS'trandolapril'
p3226
aS'trandolapril and verapamil hydrochloride'
p3227
aS'tranexamic acid'
p3228
aS'transderm scop'
p3229
aS'tranxene'
p3230
aS'tranylcypromine sulfate'
p3231
aS'travasol 10% in plastic container'
p3232
aS'travasol 5.5% in plastic container'
p3233
aS'travasol 5.5% sulfite free w/ electrolytes in plastic container'
p3234
aS'travasol 8.5% in plastic container'
p3235
aS'travasol 8.5% sulfite free w/ electrolytes in plastic container'
p3236
aS'travatan z'
p3237
aS'travoprost'
p3238
aS'trazodone hydrochloride'
p3239
aS'treanda'
p3240
aS'trecator'
p3241
aS'trelstar'
p3242
aS'tretinoin'
p3243
aS'trexall'
p3244
aS'treximet'
p3245
aS'trezix'
p3246
aS'tri-estarylla'
p3247
aS'tri-legest 21'
p3248
aS'tri-legest fe'
p3249
aS'tri-linyah'
p3250
aS'tri-luma'
p3251
aS'tri-norinyl 28-day'
p3252
aS'tri-previfem'
p3253
aS'tri-sprintec'
p3254
aS'triacin-c'
p3255
aS'triamcinolone acetonide'
p3256
aS'triamcinolone acetonide in absorbase'
p3257
aS'triamterene and hydrochlorothiazide'
p3258
aS'triazolam'
p3259
aS'tribenzor'
p3260
aS'tricor'
p3261
aS'triderm'
p3262
aS'tridione'
p3263
aS'triesence'
p3264
aS'triferic'
p3265
aS'trifluoperazine hydrochloride'
p3266
aS'trifluridine'
p3267
aS'triglide'
p3268
aS'trihexyphenidyl hydrochloride'
p3269
aS'trileptal'
p3270
aS'trilipix'
p3271
aS'trilyte'
p3272
aS'trimethobenzamide hydrochloride'
p3273
aS'trimethobenzamide hydrochloride preservative free'
p3274
aS'trimethoprim'
p3275
aS'trimethoprim sulfate and polymyxin b sulfate'
p3276
aS'trimipramine maleate'
p3277
aS'triostat'
p3278
aS'trisenox'
p3279
aS'triumeq'
p3280
aS'trivora-28'
p3281
aS'trizivir'
p3282
aS'trokendi xr'
p3283
aS'trophamine'
p3284
aS'trophamine 10%'
p3285
aS'tropicacyl'
p3286
aS'tropicamide'
p3287
aS'trospium chloride'
p3288
aS'trusopt'
p3289
aS'truvada'
p3290
aS'tudorza pressair'
p3291
aS'tussicaps'
p3292
aS'tussigon'
p3293
aS'tussionex pennkinetic'
p3294
aS'tuzistra xr'
p3295
aS'twinject 0.15'
p3296
aS'twinject 0.3'
p3297
aS'twynsta'
p3298
aS'tybost'
p3299
aS'tygacil'
p3300
aS'tykerb'
p3301
aS'tylenol w/ codeine no. 3'
p3302
aS'tylenol w/ codeine no. 4'
p3303
aS'tyvaso'
p3304
aS'tyzeka'
p3305
aS'tyzine'
p3306
aS'u-cort'
p3307
aS'uceris'
p3308
aS'ulesfia'
p3309
aS'uloric'
p3310
aS'ultane'
p3311
aS'ultiva'
p3312
aS'ultra-technekow fm'
p3313
aS'ultracet'
p3314
aS'ultram'
p3315
aS'ultram er'
p3316
aS'ultratag'
p3317
aS'ultravate'
p3318
aS'ultravist (pharmacy bulk)'
p3319
aS'ultravist 150'
p3320
aS'ultravist 240'
p3321
aS'ultravist 300'
p3322
aS'ultravist 300 in plastic container'
p3323
aS'ultravist 370'
p3324
aS'ultresa'
p3325
aS'unasyn'
p3326
aS'uniphyl'
p3327
aS'uniretic'
p3328
aS'unithroid'
p3329
aS'univasc'
p3330
aS'urecholine'
p3331
aS'urex'
p3332
aS'urocit-k'
p3333
aS'uroxatral'
p3334
aS'urso 250'
p3335
aS'urso forte'
p3336
aS'ursodiol'
p3337
aS'uvadex'
p3338
aS'vagifem'
p3339
aS'valacyclovir hydrochloride'
p3340
aS'valchlor'
p3341
aS'valcyte'
p3342
aS'valganciclovir hydrochloride'
p3343
aS'valium'
p3344
aS'valnac'
p3345
aS'valproate sodium'
p3346
aS'valproic acid'
p3347
aS'valsartan'
p3348
aS'valsartan and hydrochlorothiazide'
p3349
aS'valstar preservative free'
p3350
aS'valtrex'
p3351
aS'valtropin'
p3352
aS'vancocin hydrochloride'
p3353
aS'vancocin hydrochloride in plastic container'
p3354
aS'vancomycin hydrochloride'
p3355
aS'vandazole'
p3356
aS'vaniqa'
p3357
aS'vanos'
p3358
aS'vantas'
p3359
aS'vaprisol in 5% dextrose in plastic container'
p3360
aS'vardenafil hydrochloride'
p3361
aS'varithena'
p3362
aS'vascepa'
p3363
aS'vaseretic'
p3364
aS'vasostrict'
p3365
aS'vasotec'
p3366
aS'vazculep'
p3367
aS'vectical'
p3368
aS'vecuronium bromide'
p3369
aS'velcade'
p3370
aS'veletri'
p3371
aS'velivet'
p3372
aS'velphoro'
p3373
aS'veltin'
p3374
aS'venlafaxine hydrochloride'
p3375
aS'venofer'
p3376
aS'ventavis'
p3377
aS'ventolin hfa'
p3378
aS'veramyst'
p3379
aS'verapamil hydrochloride'
p3380
aS'verdeso'
p3381
aS'veregen'
p3382
aS'verelan'
p3383
aS'verelan pm'
p3384
aS'versacloz'
p3385
aS'vesicare'
p3386
aS'vexol'
p3387
aS'vfend'
p3388
aS'viagra'
p3389
aS'vibativ'
p3390
aS'vibisone'
p3391
aS'vibramycin'
p3392
aS'vicoprofen'
p3393
aS'victoza'
p3394
aS'victrelis'
p3395
aS'vidaza'
p3396
aS'videx'
p3397
aS'videx ec'
p3398
aS'viekira pak (copackaged)'
p3399
aS'vigamox'
p3400
aS'viibryd'
p3401
aS'vimovo'
p3402
aS'vimpat'
p3403
aS'vinblastine sulfate'
p3404
aS'vincristine sulfate pfs'
p3405
aS'vinorelbine'
p3406
aS'vinorelbine tartrate'
p3407
aS'viokace'
p3408
aS'viorele'
p3409
aS'viracept'
p3410
aS'viramune'
p3411
aS'viramune xr'
p3412
aS'virazole'
p3413
aS'viread'
p3414
aS'viroptic'
p3415
aS'visionblue'
p3416
aS'visipaque 270'
p3417
aS'visipaque 320'
p3418
aS'vistaril'
p3419
aS'vistide'
p3420
aS'visudyne'
p3421
aS'vitamin d'
p3422
aS'vitamin k1'
p3423
aS'vitekta'
p3424
aS'vitrase'
p3425
aS'vituz'
p3426
aS'vivactil'
p3427
aS'vivelle'
p3428
aS'vivelle-dot'
p3429
aS'vivitrol'
p3430
aS'vizamyl'
p3431
aS'vogelxo'
p3432
aS'voltaren'
p3433
aS'voltaren-xr'
p3434
aS'voriconazole'
p3435
aS'vosol'
p3436
aS'vosol hc'
p3437
aS'vospire er'
p3438
aS'votrient'
p3439
aS'vpriv'
p3440
aS'vumon'
p3441
aS'vusion'
p3442
aS'vyfemla'
p3443
aS'vytorin'
p3444
aS'vyvanse'
p3445
aS'warfarin sodium'
p3446
aS'welchol'
p3447
aS'wellbutrin'
p3448
aS'wellbutrin sr'
p3449
aS'wellbutrin xl'
p3450
aS'wera'
p3451
aS'xalatan'
p3452
aS'xalkori'
p3453
aS'xanax'
p3454
aS'xanax xr'
p3455
aS'xarelto'
p3456
aS'xartemis xr'
p3457
aS'xeljanz'
p3458
aS'xeloda'
p3459
aS'xenazine'
p3460
aS'xenical'
p3461
aS'xenon xe 133'
p3462
aS'xerese'
p3463
aS'xifaxan'
p3464
aS'xigduo xr'
p3465
aS'xofigo'
p3466
aS'xolegel'
p3467
aS'xopenex'
p3468
aS'xopenex hfa'
p3469
aS'xtandi'
p3470
aS'xtoro'
p3471
aS'xulane'
p3472
aS'xylocaine'
p3473
aS'xylocaine 4% preservative free'
p3474
aS'xylocaine preservative free'
p3475
aS'xylocaine viscous'
p3476
aS'xylocaine w/ epinephrine'
p3477
aS'xyrem'
p3478
aS'xyzal'
p3479
aS'yaela'
p3480
aS'yasmin'
p3481
aS'yaz'
p3482
aS'zafirlukast'
p3483
aS'zaleplon'
p3484
aS'zanaflex'
p3485
aS'zanosar'
p3486
aS'zantac'
p3487
aS'zantac 150'
p3488
aS'zantac 300'
p3489
aS'zarontin'
p3490
aS'zaroxolyn'
p3491
aS'zavesca'
p3492
aS'zebeta'
p3493
aS'zecuity'
p3494
aS'zegerid'
p3495
aS'zelapar'
p3496
aS'zelboraf'
p3497
aS'zemplar'
p3498
aS'zenatane'
p3499
aS'zenpep'
p3500
aS'zerbaxa'
p3501
aS'zerit'
p3502
aS'zestoretic'
p3503
aS'zestril'
p3504
aS'zetia'
p3505
aS'zetonna'
p3506
aS'ziac'
p3507
aS'ziagen'
p3508
aS'ziana'
p3509
aS'zidovudine'
p3510
aS'zinacef'
p3511
aS'zinacef in plastic container'
p3512
aS'zinc chloride in plastic container'
p3513
aS'zinecard'
p3514
aS'zingo'
p3515
aS'zioptan'
p3516
aS'ziprasidone hydrochloride'
p3517
aS'zipsor'
p3518
aS'zirgan'
p3519
aS'zithromax'
p3520
aS'zmax'
p3521
aS'zocor'
p3522
aS'zofran'
p3523
aS'zofran odt'
p3524
aS'zofran preservative free'
p3525
aS'zohydro er'
p3526
aS'zoladex'
p3527
aS'zoledronic acid'
p3528
aS'zolinza'
p3529
aS'zolmitriptan'
p3530
aS'zoloft'
p3531
aS'zolpidem tartrate'
p3532
aS'zolpimist'
p3533
aS'zomacton'
p3534
aS'zometa'
p3535
aS'zomig'
p3536
aS'zomig-zmt'
p3537
aS'zonalon'
p3538
aS'zonegran'
p3539
aS'zonisamide'
p3540
aS'zontivity'
p3541
aS'zorbtive'
p3542
aS'zortress'
p3543
aS'zorvolex'
p3544
aS'zosyn'
p3545
aS'zosyn in plastic container'
p3546
aS'zovia 1/35e-28'
p3547
aS'zovia 1/50e-28'
p3548
aS'zovirax'
p3549
aS'zubsolv'
p3550
aS'zuplenz'
p3551
aS'zutripro'
p3552
aS'zyban'
p3553
aS'zyclara'
p3554
aS'zydelig'
p3555
aS'zyflo'
p3556
aS'zyflo cr'
p3557
aS'zykadia'
p3558
aS'zylet'
p3559
aS'zyloprim'
p3560
aS'zymar'
p3561
aS'zymaxid'
p3562
aS'zyprexa'
p3563
aS'zyprexa relprevv'
p3564
aS'zyprexa zydis'
p3565
aS'zyrtec'
p3566
aS'zytiga'
p3567
aS'zyvox'
p3568
a.